

Microchip MPLAB XC8 Assembler V2.40 build 20220703182018 
                                                                                               Sun Mar 12 18:58:52 2023

Microchip MPLAB XC8 C Compiler v2.40 (Free license) build 20220703182018 Og1 
     1                           	processor	18F57Q84
     2                           	fnconf	rparam,??,?,0
     3                           	pagewidth 120
     4                           	opt	flic
     5                           	psect	idataCOMRAM,global,class=CODE,delta=1,noexec
     6                           	psect	smallconst,global,reloc=2,class=SMALLCONST,delta=1,noexec
     7                           	psect	cinit,global,reloc=2,class=CODE,delta=1
     8                           	psect	bssCOMRAM,global,class=COMRAM,space=1,delta=1,lowdata,noexec
     9                           	psect	dataCOMRAM,global,class=COMRAM,space=1,delta=1,lowdata,noexec
    10                           	psect	cstackCOMRAM,global,class=COMRAM,space=1,delta=1,lowdata,noexec
    11                           	psect	text0,global,reloc=2,class=CODE,delta=1
    12                           	psect	text1,global,reloc=2,class=CODE,delta=1
    13                           	psect	text2,global,reloc=2,class=CODE,delta=1
    14                           	psect	text3,global,reloc=2,class=CODE,delta=1
    15                           	psect	text4,global,reloc=2,class=CODE,delta=1
    16                           	psect	text5,global,reloc=2,class=CODE,delta=1
    17                           	psect	text6,global,reloc=2,class=CODE,delta=1
    18                           	psect	text7,global,reloc=2,class=CODE,delta=1
    19                           	psect	text8,global,reloc=2,class=CODE,delta=1
    20                           	psect	text9,global,reloc=2,class=CODE,delta=1
    21                           	psect	text10,global,reloc=2,class=CODE,delta=1,inline
    22                           	psect	text11,global,reloc=2,class=CODE,delta=1
    23                           	psect	text12,global,reloc=2,class=CODE,delta=1
    24                           	psect	text13,global,reloc=2,class=CODE,delta=1
    25                           	psect	text14,global,reloc=2,class=CODE,delta=1,inline
    26                           	psect	text15,global,reloc=2,class=CODE,delta=1,inline
    27                           	psect	text16,global,reloc=2,class=CODE,delta=1
    28                           	psect	text17,global,reloc=2,class=CODE,delta=1
    29                           	psect	text18,global,reloc=2,class=CODE,delta=1
    30                           	psect	text19,global,reloc=2,class=CODE,delta=1
    31                           	psect	text20,global,reloc=2,class=CODE,delta=1
    32                           	psect	text21,global,reloc=2,class=CODE,delta=1
    33                           	psect	text22,global,reloc=2,class=CODE,delta=1
    34                           	psect	text23,global,reloc=2,class=CODE,delta=1
    35                           	psect	text24,global,reloc=2,class=CODE,delta=1
    36                           	psect	text25,global,reloc=2,class=CODE,delta=1
    37                           	psect	text26,global,reloc=2,class=CODE,delta=1
    38                           	psect	text27,global,reloc=2,class=CODE,delta=1
    39                           	psect	text28,global,reloc=2,class=CODE,delta=1
    40                           	psect	text29,global,reloc=2,class=CODE,delta=1
    41                           	psect	text30,global,reloc=2,class=CODE,delta=1
    42                           	psect	text31,global,reloc=2,class=CODE,delta=1
    43                           	psect	text32,global,reloc=2,class=CODE,delta=1
    44                           	psect	text33,global,reloc=2,class=CODE,delta=1
    45                           	psect	text34,global,reloc=2,class=CODE,delta=1
    46                           	psect	text35,global,reloc=2,class=CODE,delta=1,inline
    47                           	psect	text36,global,reloc=2,class=CODE,delta=1,inline
    48                           	psect	text37,global,reloc=2,class=CODE,delta=1,inline
    49                           	psect	text38,global,reloc=2,class=CODE,delta=1,inline
    50                           	psect	text39,global,reloc=2,class=CODE,delta=1,inline
    51                           	psect	text40,global,reloc=2,class=CODE,delta=1,inline
    52                           	psect	text41,global,reloc=2,class=CODE,delta=1,inline
    53                           	psect	text42,global,reloc=2,class=CODE,delta=1,inline
    54                           	psect	text43,global,reloc=2,class=CODE,delta=1,inline
    55                           	psect	text44,global,reloc=2,class=CODE,delta=1,inline
    56                           	psect	text45,global,reloc=2,class=CODE,delta=1,inline
    57                           	psect	text46,global,reloc=2,class=CODE,delta=1,inline
    58                           	psect	text47,global,reloc=2,class=CODE,delta=1,inline
    59                           	psect	text48,global,reloc=2,class=CODE,delta=1
    60                           	psect	text49,global,reloc=2,class=CODE,delta=1
    61                           	psect	text50,global,reloc=2,class=CODE,delta=1
    62                           	psect	text51,global,reloc=2,class=CODE,delta=1
    63                           	psect	text52,global,reloc=2,class=CODE,delta=1
    64                           	psect	text53,global,reloc=2,class=CODE,delta=1
    65                           	psect	text54,global,reloc=2,class=CODE,delta=1
    66                           	psect	text55,global,reloc=2,class=CODE,delta=1
    67                           	psect	text56,global,reloc=2,class=CODE,delta=1
    68                           	psect	text57,global,reloc=2,class=CODE,delta=1
    69                           	psect	text58,global,reloc=2,class=CODE,delta=1
    70                           	psect	text59,global,reloc=2,class=CODE,delta=1
    71                           	psect	text60,global,reloc=2,class=CODE,delta=1
    72                           	psect	text61,global,reloc=2,class=CODE,delta=1
    73                           	psect	text62,global,reloc=2,class=CODE,delta=1
    74                           	psect	text63,global,reloc=2,class=CODE,delta=1,inline
    75                           	psect	text64,global,reloc=2,class=CODE,delta=1,inline
    76                           	psect	text65,global,reloc=2,class=CODE,delta=1,inline
    77                           	psect	text66,global,reloc=2,class=CODE,delta=1,inline
    78                           	psect	text67,global,reloc=2,class=CODE,delta=1,inline
    79                           	psect	text68,global,reloc=2,class=CODE,delta=1,inline
    80                           	psect	text69,global,reloc=2,class=CODE,delta=1,inline
    81                           	psect	text70,global,reloc=2,class=CODE,delta=1
    82                           	psect	text71,global,reloc=2,class=CODE,delta=1,inline
    83                           	psect	text72,global,reloc=2,class=CODE,delta=1,inline
    84                           	psect	text73,global,reloc=2,class=CODE,delta=1,inline
    85                           	psect	text74,global,reloc=2,class=CODE,delta=1
    86                           	psect	text75,global,reloc=2,class=CODE,delta=1
    87                           	psect	text76,global,reloc=2,class=CODE,delta=1
    88                           	psect	text77,global,reloc=2,class=CODE,delta=1
    89                           	psect	text78,global,reloc=2,class=CODE,delta=1
    90                           	psect	intsave_regs,global,class=BIGRAM,space=1,delta=1,noexec
    91                           	psect	text79,global,reloc=2,class=CODE,delta=1
    92                           	psect	rparam,global,class=COMRAM,space=1,delta=1,noexec
    93                           	psect	idloc,global,abs,ovrld,class=IDLOC,space=5,delta=1,noexec
    94                           	psect	config,global,abs,ovrld,class=CONFIG,space=4,delta=1,noexec
    95   000000                     
    96                           ; Version 2.40
    97                           ; Generated 08/12/2021 GMT
    98                           ; 
    99                           ; Copyright © 2021, Microchip Technology Inc. and its subsidiaries ("Microchip")
   100                           ; All rights reserved.
   101                           ; 
   102                           ; This software is developed by Microchip Technology Inc. and its subsidiaries ("Microch
      +                          ip").
   103                           ; 
   104                           ; Redistribution and use in source and binary forms, with or without modification, are
   105                           ; permitted provided that the following conditions are met:
   106                           ; 
   107                           ;     1. Redistributions of source code must retain the above copyright notice, this lis
      +                          t of
   108                           ;        conditions and the following disclaimer.
   109                           ; 
   110                           ;     2. Redistributions in binary form must reproduce the above copyright notice, this 
      +                          list
   111                           ;        of conditions and the following disclaimer in the documentation and/or other
   112                           ;        materials provided with the distribution. Publication is not required when
   113                           ;        this file is used in an embedded application.
   114                           ; 
   115                           ;     3. Microchip's name may not be used to endorse or promote products derived from th
      +                          is
   116                           ;        software without specific prior written permission.
   117                           ; 
   118                           ; THIS SOFTWARE IS PROVIDED BY MICROCHIP "AS IS" AND ANY EXPRESS OR IMPLIED WARRANTIES,
   119                           ; INCLUDING, BUT NOT LIMITED TO, THE IMPLIED WARRANTIES OF MERCHANTABILITY AND FITNESS F
      +                          OR
   120                           ; PURPOSE ARE DISCLAIMED.  IN NO EVENT SHALL MICROCHIP BE LIABLE FOR ANY DIRECT, INDIREC
      +                          T,
   121                           ; INCIDENTAL, SPECIAL, EXEMPLARY, OR CONSEQUENTIAL DAMAGES (INCLUDING BUT NOT LIMITED TO
   122                           ; PROCUREMENT OF SUBSTITUTE GOODS OR SERVICES; LOSS OF USE, DATA OR PROFITS; OR BUSINESS
   123                           ; INTERRUPTION) HOWSOEVER CAUSED AND ON ANY THEORY OF LIABILITY, WHETHER IN CONTRACT, ST
      +                          RICT
   124                           ; LIABILITY, OR TORT (INCLUDING NEGLIGENCE OR OTHERWISE) ARISING IN ANY WAY OUT OF THE U
      +                          SE OF
   125                           ; THIS SOFTWARE, EVEN IF ADVISED OF THE POSSIBILITY OF SUCH DAMAGE.
   126                           ; 
   127                           ; 
   128                           ; Code-generator required, PIC18F57Q84 Definitions
   129                           ; 
   130                           ; SFR Addresses
   131   000000                     
   132                           	psect	idataCOMRAM
   133   004EDE                     __pidataCOMRAM:
   134                           	callstack 0
   135                           
   136                           ;initializer for _statusLED
   137   004EDE  08                 	db	8
   138                           
   139                           	psect	smallconst
   140   004000                     __psmallconst:
   141                           	callstack 0
   142   004000  00                 	db	0
   143   004001                     _i2c1_fsmStateTable:
   144                           	callstack 0
   145   004001  4E                 	db	low _I2C1_DO_IDLE
   146   004002  4E                 	db	high _I2C1_DO_IDLE
   147   004003  00                 	db	low (_I2C1_DO_IDLE shr (0+16))
   148   004004  CE                 	db	low _I2C1_DO_SEND_ADR_READ
   149   004005  4B                 	db	high _I2C1_DO_SEND_ADR_READ
   150   004006  00                 	db	low (_I2C1_DO_SEND_ADR_READ shr (0+16))
   151   004007  D8                 	db	low _I2C1_DO_SEND_ADR_WRITE
   152   004008  4D                 	db	high _I2C1_DO_SEND_ADR_WRITE
   153   004009  00                 	db	low (_I2C1_DO_SEND_ADR_WRITE shr (0+16))
   154   00400A  40                 	db	low _I2C1_DO_TX
   155   00400B  40                 	db	high _I2C1_DO_TX
   156   00400C  00                 	db	low (_I2C1_DO_TX shr (0+16))
   157   00400D  3E                 	db	low _I2C1_DO_RX
   158   00400E  43                 	db	high _I2C1_DO_RX
   159   00400F  00                 	db	low (_I2C1_DO_RX shr (0+16))
   160   004010  4C                 	db	low _I2C1_DO_TX_EMPTY
   161   004011  45                 	db	high _I2C1_DO_TX_EMPTY
   162   004012  00                 	db	low (_I2C1_DO_TX_EMPTY shr (0+16))
   163   004013  02                 	db	low _I2C1_DO_RX_EMPTY
   164   004014  42                 	db	high _I2C1_DO_RX_EMPTY
   165   004015  00                 	db	low (_I2C1_DO_RX_EMPTY shr (0+16))
   166   004016  36                 	db	low _I2C1_DO_SEND_RESTART_READ
   167   004017  4E                 	db	high _I2C1_DO_SEND_RESTART_READ
   168   004018  00                 	db	low (_I2C1_DO_SEND_RESTART_READ shr (0+16))
   169   004019  D2                 	db	low _I2C1_DO_SEND_RESTART_WRITE
   170   00401A  4E                 	db	high _I2C1_DO_SEND_RESTART_WRITE
   171   00401B  00                 	db	low (_I2C1_DO_SEND_RESTART_WRITE shr (0+16))
   172   00401C  CE                 	db	low _I2C1_DO_SEND_RESTART
   173   00401D  4E                 	db	high _I2C1_DO_SEND_RESTART
   174   00401E  00                 	db	low (_I2C1_DO_SEND_RESTART shr (0+16))
   175   00401F  22                 	db	low _I2C1_DO_SEND_STOP
   176   004020  4C                 	db	high _I2C1_DO_SEND_STOP
   177   004021  00                 	db	low (_I2C1_DO_SEND_STOP shr (0+16))
   178   004022  72                 	db	low _I2C1_DO_RX_ACK
   179   004023  4E                 	db	high _I2C1_DO_RX_ACK
   180   004024  00                 	db	low (_I2C1_DO_RX_ACK shr (0+16))
   181   004025  7A                 	db	low _I2C1_DO_TX_ACK
   182   004026  4E                 	db	high _I2C1_DO_TX_ACK
   183   004027  00                 	db	low (_I2C1_DO_TX_ACK shr (0+16))
   184   004028  1A                 	db	low _I2C1_DO_RX_NACK_STOP
   185   004029  4E                 	db	high _I2C1_DO_RX_NACK_STOP
   186   00402A  00                 	db	low (_I2C1_DO_RX_NACK_STOP shr (0+16))
   187   00402B  6A                 	db	low _I2C1_DO_RX_NACK_RESTART
   188   00402C  4E                 	db	high _I2C1_DO_RX_NACK_RESTART
   189   00402D  00                 	db	low (_I2C1_DO_RX_NACK_RESTART shr (0+16))
   190   00402E  0C                 	db	low _I2C1_DO_RESET
   191   00402F  4E                 	db	high _I2C1_DO_RESET
   192   004030  00                 	db	low (_I2C1_DO_RESET shr (0+16))
   193   004031  B0                 	db	low _I2C1_DO_ADDRESS_NACK
   194   004032  46                 	db	high _I2C1_DO_ADDRESS_NACK
   195   004033  00                 	db	low (_I2C1_DO_ADDRESS_NACK shr (0+16))
   196   004034  3C                 	db	low _I2C1_DO_BUS_COLLISION
   197   004035  46                 	db	high _I2C1_DO_BUS_COLLISION
   198   004036  00                 	db	low (_I2C1_DO_BUS_COLLISION shr (0+16))
   199   004037  FE                 	db	low _I2C1_DO_BUS_ERROR
   200   004038  4D                 	db	high _I2C1_DO_BUS_ERROR
   201   004039  00                 	db	low (_I2C1_DO_BUS_ERROR shr (0+16))
   202   00403A                     __end_of_i2c1_fsmStateTable:
   203                           	callstack 0
   204   000000                     _OSCTUNE	set	176
   205   000000                     _OSCFRQ	set	177
   206   000000                     _OSCEN	set	179
   207   000000                     _TRISD	set	1225
   208   000000                     _TRISC	set	1224
   209   000000                     _TRISB	set	1223
   210   000000                     _LATC	set	1216
   211   000000                     _LATB	set	1215
   212   000000                     _I2C1TXB	set	651
   213   000000                     _I2C1PIEbits	set	667
   214   000000                     _I2C1PIRbits	set	666
   215   000000                     _I2C1ERRbits	set	663
   216   000000                     _I2C1CON1bits	set	661
   217   000000                     _I2C1CON0bits	set	660
   218   000000                     _LATFbits	set	1219
   219   000000                     _PMD0	set	96
   220   000000                     _OSCCON1	set	173
   221   000000                     _RB1PPS	set	522
   222   000000                     _I2C1SDAPPS	set	624
   223   000000                     _I2C1RXB	set	650
   224   000000                     _I2C1CNTL	set	652
   225   000000                     _I2C1CON0	set	660
   226   000000                     _I2C1STAT1bits	set	665
   227   000000                     _I2C1ERR	set	663
   228   000000                     _I2C1PIR	set	666
   229   000000                     _I2C1CLK	set	670
   230   000000                     _I2C1CON2	set	662
   231   000000                     _I2C1CON1	set	661
   232   000000                     _ANSELA	set	1024
   233   000000                     _ANSELB	set	1032
   234   000000                     _ANSELC	set	1040
   235   000000                     _ANSELD	set	1048
   236   000000                     _PIE7bits	set	1189
   237   000000                     _I2C1BAUD	set	669
   238   000000                     _I2C1PIE	set	667
   239   000000                     _I2C1CNTH	set	653
   240   000000                     _PIR7bits	set	1205
   241   000000                     _LATA	set	1214
   242   000000                     _LATD	set	1217
   243   000000                     _LATE	set	1218
   244   000000                     _TRISA	set	1222
   245   000000                     _TRISE	set	1226
   246   000000                     _LATF	set	1219
   247   000000                     _TRISF	set	1227
   248   000000                     _INLVLD	set	1052
   249   000000                     _SLRCOND	set	1051
   250   000000                     _ODCOND	set	1050
   251   000000                     _WPUD	set	1049
   252   000000                     _ANSELE	set	1056
   253   000000                     _INLVLC	set	1044
   254   000000                     _SLRCONC	set	1043
   255   000000                     _ODCONC	set	1042
   256   000000                     _WPUC	set	1041
   257   000000                     _INLVLB	set	1036
   258   000000                     _SLRCONB	set	1035
   259   000000                     _ODCONB	set	1034
   260   000000                     _WPUB	set	1033
   261   000000                     _INLVLE	set	1060
   262   000000                     _SLRCONE	set	1059
   263   000000                     _ODCONE	set	1058
   264   000000                     _WPUE	set	1057
   265   000000                     _ANSELF	set	1064
   266   000000                     _INLVLF	set	1068
   267   000000                     _SLRCONF	set	1067
   268   000000                     _ODCONF	set	1066
   269   000000                     _WPUF	set	1065
   270   000000                     _INLVLA	set	1028
   271   000000                     _SLRCONA	set	1027
   272   000000                     _ODCONA	set	1026
   273   000000                     _WPUA	set	1025
   274   000000                     _I2C1SCLPPS	set	625
   275   000000                     _RB2PPS	set	523
   276   000000                     _OSCCON3	set	175
   277   000000                     _PMD8	set	104
   278   000000                     _PMD7	set	103
   279   000000                     _PMD6	set	102
   280   000000                     _PMD5	set	101
   281   000000                     _PMD4	set	100
   282   000000                     _PMD3	set	99
   283   000000                     _PMD2	set	98
   284   000000                     _PMD1	set	97
   285   00403A                     STR_1:
   286                           
   287                           ; BSR set to: 2
   288   00403A  20                 	db	32
   289   00403B  26                 	db	38
   290   00403C  61                 	db	97	;'a'
   291   00403D  20                 	db	32
   292   00403E  00                 	db	0
   293   00403F  00                 	db	0	; dummy byte at the end
   294   000000                     
   295                           ; #config settings
   296                           
   297                           	psect	cinit
   298   004C72                     __pcinit:
   299                           	callstack 0
   300   004C72                     start_initialization:
   301                           	callstack 0
   302   004C72                     __initialization:
   303                           	callstack 0
   304                           
   305                           ; Initialize objects allocated to COMRAM (1 bytes)
   306                           ; load TBLPTR registers with __pidataCOMRAM
   307   004C72  0EDE               	movlw	low __pidataCOMRAM
   308   004C74  6EF6               	movwf	tblptrl,c
   309   004C76  0E4E               	movlw	high __pidataCOMRAM
   310   004C78  6EF7               	movwf	tblptrh,c
   311   004C7A  0E00               	movlw	low (__pidataCOMRAM shr (0+16))
   312   004C7C  6EF8               	movwf	tblptru,c
   313   004C7E  0009               	tblrd		*+	;fetch initializer
   314   004C80  C4F5 F553          	movff	tablat,__pdataCOMRAM
   315                           
   316                           ; Clear objects allocated to COMRAM (43 bytes)
   317   004C84  EE01  F101         	lfsr	0,__pbssCOMRAM
   318   004C88  0E2B               	movlw	43
   319   004C8A                     clear_0:
   320   004C8A  6AEE               	clrf	postinc0,c
   321   004C8C  06E8               	decf	wreg,f,c
   322   004C8E  E1FD               	bnz	clear_0
   323   004C90                     end_of_initialization:
   324                           	callstack 0
   325   004C90                     __end_of__initialization:
   326                           	callstack 0
   327   004C90  0100               	movlb	0
   328   004C92  EF68  F022         	goto	_main	;jump to C main() function
   329                           
   330                           	psect	bssCOMRAM
   331   000501                     __pbssCOMRAM:
   332                           	callstack 0
   333   000501                     _I2C1_Status:
   334                           	callstack 0
   335   000501                     	ds	42
   336   00052B                     _paramsLCD:
   337                           	callstack 0
   338   00052B                     	ds	1
   339                           
   340                           	psect	dataCOMRAM
   341   000553                     __pdataCOMRAM:
   342                           	callstack 0
   343   000553                     	ds	1
   344                           
   345                           	psect	cstackCOMRAM
   346   00052C                     __pcstackCOMRAM:
   347                           	callstack 0
   348   00052C                     I2C1_Open@address:
   349                           	callstack 0
   350   00052C                     I2C1_Close@returnValue:
   351                           	callstack 0
   352   00052C                     I2C1_MasterSendTxData@data:
   353                           	callstack 0
   354   00052C                     I2C1_MasterSetCounter@counter:
   355                           	callstack 0
   356   00052C                     I2C1_SetBuffer@buffer:
   357                           	callstack 0
   358   00052C                     I2C1_SetCallback@cb:
   359                           	callstack 0
   360                           
   361                           ; 3 bytes @ 0x0
   362   00052C                     	ds	1
   363   00052D                     I2C1_Open@returnValue:
   364                           	callstack 0
   365                           
   366                           ; 1 bytes @ 0x1
   367   00052D                     	ds	1
   368   00052E                     I2C1_SetBuffer@bufferSize:
   369                           	callstack 0
   370                           
   371                           ; 2 bytes @ 0x2
   372   00052E                     	ds	1
   373   00052F                     I2C1_SetCallback@ptr:
   374                           	callstack 0
   375                           
   376                           ; 2 bytes @ 0x3
   377   00052F                     	ds	1
   378   000530                     
   379                           ; 1 bytes @ 0x4
   380   000530                     	ds	1
   381   000531                     I2C1_SetCallback@idx:
   382                           	callstack 0
   383                           
   384                           ; 1 bytes @ 0x5
   385   000531                     	ds	1
   386   000532                     I2C1_SetDataCompleteCallback@cb:
   387                           	callstack 0
   388   000532                     I2C1_SetAddressNackCallback@cb:
   389                           	callstack 0
   390                           
   391                           ; 3 bytes @ 0x6
   392   000532                     	ds	3
   393   000535                     I2C1_SetDataCompleteCallback@ptr:
   394                           	callstack 0
   395   000535                     I2C1_SetAddressNackCallback@ptr:
   396                           	callstack 0
   397                           
   398                           ; 2 bytes @ 0x9
   399   000535                     	ds	2
   400   000537                     wr1RegCompleteHandler@p:
   401                           	callstack 0
   402   000537                     rd1RegCompleteHandler@p:
   403                           	callstack 0
   404   000537                     rd2RegCompleteHandler@p:
   405                           	callstack 0
   406   000537                     wr2RegCompleteHandler@p:
   407                           	callstack 0
   408   000537                     rdBlkRegCompleteHandler@p:
   409                           	callstack 0
   410   000537                     rd1RegCompleteHandler@i2c1_master_example$F145@ptr:
   411                           	callstack 0
   412   000537                     rd2RegCompleteHandler@i2c1_master_example$F156@ptr:
   413                           	callstack 0
   414   000537                     wr1RegCompleteHandler@i2c1_master_example$F162@ptr:
   415                           	callstack 0
   416   000537                     wr2RegCompleteHandler@i2c1_master_example$F168@ptr:
   417                           	callstack 0
   418   000537                     rdBlkRegCompleteHandler@i2c1_master_example$F179@ptr:
   419                           	callstack 0
   420   000537                     I2C1_CallbackReturnReset@funPtr:
   421                           	callstack 0
   422                           
   423                           ; 2 bytes @ 0xB
   424   000537                     	ds	2
   425   000539                     ??_I2C1_DO_TX:
   426   000539                     ??_I2C1_DO_TX_EMPTY:
   427   000539                     ??_I2C1_DO_RX_EMPTY:
   428   000539                     ??_I2C1_DO_ADDRESS_NACK:
   429   000539                     ??_I2C1_DO_BUS_COLLISION:
   430   000539                     
   431                           ; 1 bytes @ 0xD
   432   000539                     	ds	2
   433   00053B                     ??_I2C1_DO_RX:
   434   00053B                     _I2C1_DO_TX$883:
   435                           	callstack 0
   436                           
   437                           ; 2 bytes @ 0xF
   438   00053B                     	ds	2
   439   00053D                     I2C1_DO_TX@dataTx:
   440                           	callstack 0
   441   00053D                     I2C1_DO_RX@retFsmState:
   442                           	callstack 0
   443                           
   444                           ; 1 bytes @ 0x11
   445   00053D                     	ds	1
   446   00053E                     I2C1_DO_TX@retFsmState:
   447                           	callstack 0
   448                           
   449                           ; 1 bytes @ 0x12
   450   00053E                     	ds	1
   451   00053F                     I2C1_MasterOperation@read:
   452                           	callstack 0
   453                           
   454                           ; 1 bytes @ 0x13
   455   00053F                     	ds	1
   456   000540                     I2C1_MasterOperation@returnValue:
   457                           	callstack 0
   458                           
   459                           ; 1 bytes @ 0x14
   460   000540                     	ds	1
   461   000541                     I2C1_Write1ByteRegister@reg:
   462                           	callstack 0
   463                           
   464                           ; 1 bytes @ 0x15
   465   000541                     	ds	1
   466   000542                     I2C1_Write1ByteRegister@data:
   467                           	callstack 0
   468                           
   469                           ; 1 bytes @ 0x16
   470   000542                     	ds	1
   471   000543                     I2C1_Write1ByteRegister@address:
   472                           	callstack 0
   473                           
   474                           ; 1 bytes @ 0x17
   475   000543                     	ds	1
   476   000544                     PCF_Wr@dato:
   477                           	callstack 0
   478                           
   479                           ; 1 bytes @ 0x18
   480   000544                     	ds	1
   481   000545                     loadPCF@mode:
   482                           	callstack 0
   483                           
   484                           ; 1 bytes @ 0x19
   485   000545                     	ds	1
   486   000546                     ??_loadPCF:
   487                           
   488                           ; 1 bytes @ 0x1A
   489   000546                     	ds	2
   490   000548                     loadPCF@dato:
   491                           	callstack 0
   492                           
   493                           ; 1 bytes @ 0x1C
   494   000548                     	ds	1
   495   000549                     ??_sendDATA:
   496   000549                     ??_sendCMD:
   497                           
   498                           ; 1 bytes @ 0x1D
   499   000549                     	ds	1
   500   00054A                     sendDATA@NibbleH:
   501                           	callstack 0
   502   00054A                     sendCMD@NibbleH:
   503                           	callstack 0
   504                           
   505                           ; 1 bytes @ 0x1E
   506   00054A                     	ds	1
   507   00054B                     sendDATA@NibbleL:
   508                           	callstack 0
   509   00054B                     sendCMD@NibbleL:
   510                           	callstack 0
   511                           
   512                           ; 1 bytes @ 0x1F
   513   00054B                     	ds	1
   514   00054C                     sendDATA@dato:
   515                           	callstack 0
   516   00054C                     sendCMD@cmd:
   517                           	callstack 0
   518                           
   519                           ; 1 bytes @ 0x20
   520   00054C                     	ds	1
   521   00054D                     ??_i2c_lcd_init:
   522   00054D                     i2c_lcd_text@str:
   523                           	callstack 0
   524                           
   525                           ; 2 bytes @ 0x21
   526   00054D                     	ds	2
   527   00054F                     ??_main:
   528                           
   529                           ; 1 bytes @ 0x23
   530   00054F                     	ds	2
   531   000551                     main@a:
   532                           	callstack 0
   533                           
   534                           ; 2 bytes @ 0x25
   535   000551                     	ds	2
   536                           
   537 ;;
   538 ;;Main: autosize = 0, tempsize = 2, incstack = 0, save=0
   539 ;;
   540 ;; *************** function _main *****************
   541 ;; Defined at:
   542 ;;		line 25 in file "main.c"
   543 ;; Parameters:    Size  Location     Type
   544 ;;		None
   545 ;; Auto vars:     Size  Location     Type
   546 ;;  a               2   37[COMRAM] int 
   547 ;; Return value:  Size  Location     Type
   548 ;;                  1    wreg      void 
   549 ;; Registers used:
   550 ;;		wreg, fsr2l, fsr2h, status,2, status,0, pcl, pclath, pclatu, tosl, tblptrl, tblptrh, tblptru, prodl, prodh, cstack
   551 ;; Tracked objects:
   552 ;;		On entry : 0/0
   553 ;;		On exit  : 0/0
   554 ;;		Unchanged: 0/0
   555 ;; Data sizes:     COMRAM   BANK5   BANK6   BANK7   BANK8   BANK9  BANK10  BANK11  BANK12  BANK13  BANK14  BANK15  BANK1
      +6  BANK17  BANK18  BANK19  BANK20  BANK21  BANK22  BANK23  BANK24  BANK25  BANK26  BANK27  BANK28  BANK29  BANK30  BANK3
      +1  BANK32  BANK33  BANK34  BANK35  BANK36  BANK37  BANK38  BANK39  BANK40  BANK41  BANK42  BANK43  BANK44  BANK45  BANK4
      +6  BANK47  BANK48  BANK49  BANK50  BANK51  BANK52  BANK53  BANK54
   556 ;;      Params:         0       0       0       0       0       0       0       0       0       0       0       0       
      +0       0       0       0       0       0       0       0       0       0       0       0       0       0       0       
      +0       0       0       0       0       0       0       0       0       0       0       0       0       0       0       
      +0       0       0       0       0       0       0       0       0
   557 ;;      Locals:         2       0       0       0       0       0       0       0       0       0       0       0       
      +0       0       0       0       0       0       0       0       0       0       0       0       0       0       0       
      +0       0       0       0       0       0       0       0       0       0       0       0       0       0       0       
      +0       0       0       0       0       0       0       0       0
   558 ;;      Temps:          2       0       0       0       0       0       0       0       0       0       0       0       
      +0       0       0       0       0       0       0       0       0       0       0       0       0       0       0       
      +0       0       0       0       0       0       0       0       0       0       0       0       0       0       0       
      +0       0       0       0       0       0       0       0       0
   559 ;;      Totals:         4       0       0       0       0       0       0       0       0       0       0       0       
      +0       0       0       0       0       0       0       0       0       0       0       0       0       0       0       
      +0       0       0       0       0       0       0       0       0       0       0       0       0       0       0       
      +0       0       0       0       0       0       0       0       0
   560 ;;Total ram usage:        4 bytes
   561 ;; Hardware stack levels required when called: 16
   562 ;; This function calls:
   563 ;;		_SYSTEM_Initialize
   564 ;;		_i2c_lcd_init
   565 ;;		_i2c_lcd_text
   566 ;; This function is called by:
   567 ;;		Startup code after reset
   568 ;; This function uses a non-reentrant model
   569 ;;
   570                           
   571                           	psect	text0
   572   0044D0                     __ptext0:
   573                           	callstack 0
   574   0044D0                     _main:
   575                           	callstack 111
   576   0044D0                     
   577                           ;main.c: 28:     SYSTEM_Initialize();
   578   0044D0  ECF6  F026         	call	_SYSTEM_Initialize	;wreg free
   579   0044D4                     
   580                           ;main.c: 30:     i2c_lcd_init();
   581   0044D4  EC29  F022         	call	_i2c_lcd_init	;wreg free
   582   0044D8                     l3322:
   583                           
   584                           ;main.c: 43:     {;main.c: 45:         int a = 0;
   585   0044D8  0E00               	movlw	0
   586   0044DA  6E52               	movwf	(main@a+1)^(0+1280),c
   587   0044DC  0E00               	movlw	0
   588   0044DE  6E51               	movwf	main@a^(0+1280),c
   589   0044E0                     
   590                           ;main.c: 46:         i2c_lcd_text(" &a ");
   591   0044E0  0E3A               	movlw	low STR_1
   592   0044E2  6E4D               	movwf	i2c_lcd_text@str^(0+1280),c
   593   0044E4  0E40               	movlw	high STR_1
   594   0044E6  6E4E               	movwf	(i2c_lcd_text@str+1)^(0+1280),c
   595   0044E8  ECB0  F024         	call	_i2c_lcd_text	;wreg free
   596                           
   597                           ;main.c: 47:         while (a < 10 , a++){
   598   0044EC  EF97  F022         	goto	l3330
   599   0044F0                     l3326:
   600   0044F0  B6C3               	btfsc	195,3,c	;volatile
   601   0044F2  EF7D  F022         	goto	u1341
   602   0044F6  EF80  F022         	goto	u1340
   603   0044FA                     u1341:
   604   0044FA  0E01               	movlw	1
   605   0044FC  EF81  F022         	goto	u1346
   606   004500                     u1340:
   607   004500  0E00               	movlw	0
   608   004502                     u1346:
   609   004502  0AFF               	xorlw	255
   610   004504  6E4F               	movwf	??_main^(0+1280),c
   611   004506  464F               	rlncf	??_main^(0+1280),f,c
   612   004508  464F               	rlncf	??_main^(0+1280),f,c
   613   00450A  464F               	rlncf	??_main^(0+1280),f,c
   614   00450C  50C3               	movf	195,w,c	;volatile
   615   00450E  184F               	xorwf	??_main^(0+1280),w,c
   616   004510  0BF7               	andlw	-9
   617   004512  184F               	xorwf	??_main^(0+1280),w,c
   618   004514  6EC3               	movwf	195,c	;volatile
   619   004516                     
   620                           ;main.c: 49:         _delay((unsigned long)((1000)*(16000000/4000.0)));
   621   004516  0E15               	movlw	21
   622   004518  6E50               	movwf	(??_main+1)^(0+1280),c
   623   00451A  0E4B               	movlw	75
   624   00451C  6E4F               	movwf	??_main^(0+1280),c
   625   00451E  0EBE               	movlw	190
   626   004520                     u1367:
   627   004520  2EE8               	decfsz	wreg,f,c
   628   004522  D7FE               	bra	u1367
   629   004524  2E4F               	decfsz	??_main^(0+1280),f,c
   630   004526  D7FC               	bra	u1367
   631   004528  2E50               	decfsz	(??_main+1)^(0+1280),f,c
   632   00452A  D7FA               	bra	u1367
   633   00452C  D000               	nop2	
   634   00452E                     l3330:
   635                           
   636                           ;main.c: 47:         while (a < 10 , a++){
   637   00452E  4A51               	infsnz	main@a^(0+1280),f,c
   638   004530  2A52               	incf	(main@a+1)^(0+1280),f,c
   639   004532  0451               	decf	main@a^(0+1280),w,c
   640   004534  1052               	iorwf	(main@a+1)^(0+1280),w,c
   641   004536  A4D8               	btfss	status,2,c
   642   004538  EFA0  F022         	goto	u1351
   643   00453C  EFA2  F022         	goto	u1350
   644   004540                     u1351:
   645   004540  EF78  F022         	goto	l3326
   646   004544                     u1350:
   647   004544  EF6C  F022         	goto	l3322
   648   004548  EFFE  F0FF         	goto	start
   649   00454C                     __end_of_main:
   650                           	callstack 0
   651                           
   652 ;; *************** function _i2c_lcd_text *****************
   653 ;; Defined at:
   654 ;;		line 79 in file "I2C_LCD_LIB.c"
   655 ;; Parameters:    Size  Location     Type
   656 ;;  str             2   33[COMRAM] PTR unsigned char 
   657 ;;		 -> STR_1(5), 
   658 ;; Auto vars:     Size  Location     Type
   659 ;;		None
   660 ;; Return value:  Size  Location     Type
   661 ;;                  1    wreg      void 
   662 ;; Registers used:
   663 ;;		wreg, fsr2l, fsr2h, status,2, status,0, pcl, pclath, pclatu, tosl, tblptrl, tblptrh, tblptru, prodl, prodh, cstack
   664 ;; Tracked objects:
   665 ;;		On entry : 0/0
   666 ;;		On exit  : 0/0
   667 ;;		Unchanged: 0/0
   668 ;; Data sizes:     COMRAM   BANK5   BANK6   BANK7   BANK8   BANK9  BANK10  BANK11  BANK12  BANK13  BANK14  BANK15  BANK1
      +6  BANK17  BANK18  BANK19  BANK20  BANK21  BANK22  BANK23  BANK24  BANK25  BANK26  BANK27  BANK28  BANK29  BANK30  BANK3
      +1  BANK32  BANK33  BANK34  BANK35  BANK36  BANK37  BANK38  BANK39  BANK40  BANK41  BANK42  BANK43  BANK44  BANK45  BANK4
      +6  BANK47  BANK48  BANK49  BANK50  BANK51  BANK52  BANK53  BANK54
   669 ;;      Params:         2       0       0       0       0       0       0       0       0       0       0       0       
      +0       0       0       0       0       0       0       0       0       0       0       0       0       0       0       
      +0       0       0       0       0       0       0       0       0       0       0       0       0       0       0       
      +0       0       0       0       0       0       0       0       0
   670 ;;      Locals:         0       0       0       0       0       0       0       0       0       0       0       0       
      +0       0       0       0       0       0       0       0       0       0       0       0       0       0       0       
      +0       0       0       0       0       0       0       0       0       0       0       0       0       0       0       
      +0       0       0       0       0       0       0       0       0
   671 ;;      Temps:          0       0       0       0       0       0       0       0       0       0       0       0       
      +0       0       0       0       0       0       0       0       0       0       0       0       0       0       0       
      +0       0       0       0       0       0       0       0       0       0       0       0       0       0       0       
      +0       0       0       0       0       0       0       0       0
   672 ;;      Totals:         2       0       0       0       0       0       0       0       0       0       0       0       
      +0       0       0       0       0       0       0       0       0       0       0       0       0       0       0       
      +0       0       0       0       0       0       0       0       0       0       0       0       0       0       0       
      +0       0       0       0       0       0       0       0       0
   673 ;;Total ram usage:        2 bytes
   674 ;; Hardware stack levels used: 1
   675 ;; Hardware stack levels required when called: 15
   676 ;; This function calls:
   677 ;;		_sendDATA
   678 ;; This function is called by:
   679 ;;		_main
   680 ;; This function uses a non-reentrant model
   681 ;;
   682                           
   683                           	psect	text1
   684   004960                     __ptext1:
   685                           	callstack 0
   686   004960                     _i2c_lcd_text:
   687                           	callstack 111
   688   004960                     
   689                           ;I2C_LCD_LIB.c: 81:     while(*str){
   690   004960  EFBE  F024         	goto	l3124
   691   004964                     l3120:
   692                           
   693                           ;I2C_LCD_LIB.c: 82:         sendDATA(*str);
   694   004964  C54D  F4F6         	movff	i2c_lcd_text@str,tblptrl
   695   004968  C54E  F4F7         	movff	i2c_lcd_text@str+1,tblptrh
   696   00496C                     	if	0	;tblptru may be non-zero
   697   00496C                     	endif
   698   00496C                     	if	1	;Program memory is > 0xFFFF, there are 3 active tblptr bytes
   699   00496C  0E00               	movlw	low (__mediumconst shr (0+16))
   700   00496E  6EF8               	movwf	tblptru,c
   701   004970                     	endif
   702   004970  0008               	tblrd		*
   703   004972  50F5               	movf	tablat,w,c
   704   004974  EC8F  F025         	call	_sendDATA
   705   004978                     
   706                           ;I2C_LCD_LIB.c: 83:         str++;
   707   004978  4A4D               	infsnz	i2c_lcd_text@str^(0+1280),f,c
   708   00497A  2A4E               	incf	(i2c_lcd_text@str+1)^(0+1280),f,c
   709   00497C                     l3124:
   710                           
   711                           ;I2C_LCD_LIB.c: 81:     while(*str){
   712   00497C  C54D  F4F6         	movff	i2c_lcd_text@str,tblptrl
   713   004980  C54E  F4F7         	movff	i2c_lcd_text@str+1,tblptrh
   714   004984                     	if	0	;tblptru may be non-zero
   715   004984                     	endif
   716   004984                     	if	1	;Program memory is > 0xFFFF, there are 3 active tblptr bytes
   717   004984  0E00               	movlw	low (__mediumconst shr (0+16))
   718   004986  6EF8               	movwf	tblptru,c
   719   004988                     	endif
   720   004988  0008               	tblrd		*
   721   00498A  50F5               	movf	tablat,w,c
   722   00498C  0900               	iorlw	0
   723   00498E  A4D8               	btfss	status,2,c
   724   004990  EFCC  F024         	goto	u1051
   725   004994  EFCE  F024         	goto	u1050
   726   004998                     u1051:
   727   004998  EFB2  F024         	goto	l3120
   728   00499C                     u1050:
   729   00499C  0012               	return		;funcret
   730   00499E                     __end_of_i2c_lcd_text:
   731                           	callstack 0
   732                           
   733 ;; *************** function _sendDATA *****************
   734 ;; Defined at:
   735 ;;		line 32 in file "I2C_LCD_LIB.c"
   736 ;; Parameters:    Size  Location     Type
   737 ;;  dato            1    wreg     unsigned char 
   738 ;; Auto vars:     Size  Location     Type
   739 ;;  dato            1   32[COMRAM] unsigned char 
   740 ;;  NibbleL         1   31[COMRAM] unsigned char 
   741 ;;  NibbleH         1   30[COMRAM] unsigned char 
   742 ;; Return value:  Size  Location     Type
   743 ;;                  1    wreg      void 
   744 ;; Registers used:
   745 ;;		wreg, fsr2l, fsr2h, status,2, status,0, pcl, pclath, pclatu, tosl, tblptrl, tblptrh, tblptru, prodl, prodh, cstack
   746 ;; Tracked objects:
   747 ;;		On entry : 0/0
   748 ;;		On exit  : 0/0
   749 ;;		Unchanged: 0/0
   750 ;; Data sizes:     COMRAM   BANK5   BANK6   BANK7   BANK8   BANK9  BANK10  BANK11  BANK12  BANK13  BANK14  BANK15  BANK1
      +6  BANK17  BANK18  BANK19  BANK20  BANK21  BANK22  BANK23  BANK24  BANK25  BANK26  BANK27  BANK28  BANK29  BANK30  BANK3
      +1  BANK32  BANK33  BANK34  BANK35  BANK36  BANK37  BANK38  BANK39  BANK40  BANK41  BANK42  BANK43  BANK44  BANK45  BANK4
      +6  BANK47  BANK48  BANK49  BANK50  BANK51  BANK52  BANK53  BANK54
   751 ;;      Params:         0       0       0       0       0       0       0       0       0       0       0       0       
      +0       0       0       0       0       0       0       0       0       0       0       0       0       0       0       
      +0       0       0       0       0       0       0       0       0       0       0       0       0       0       0       
      +0       0       0       0       0       0       0       0       0
   752 ;;      Locals:         3       0       0       0       0       0       0       0       0       0       0       0       
      +0       0       0       0       0       0       0       0       0       0       0       0       0       0       0       
      +0       0       0       0       0       0       0       0       0       0       0       0       0       0       0       
      +0       0       0       0       0       0       0       0       0
   753 ;;      Temps:          1       0       0       0       0       0       0       0       0       0       0       0       
      +0       0       0       0       0       0       0       0       0       0       0       0       0       0       0       
      +0       0       0       0       0       0       0       0       0       0       0       0       0       0       0       
      +0       0       0       0       0       0       0       0       0
   754 ;;      Totals:         4       0       0       0       0       0       0       0       0       0       0       0       
      +0       0       0       0       0       0       0       0       0       0       0       0       0       0       0       
      +0       0       0       0       0       0       0       0       0       0       0       0       0       0       0       
      +0       0       0       0       0       0       0       0       0
   755 ;;Total ram usage:        4 bytes
   756 ;; Hardware stack levels used: 1
   757 ;; Hardware stack levels required when called: 14
   758 ;; This function calls:
   759 ;;		_loadPCF
   760 ;; This function is called by:
   761 ;;		_i2c_lcd_text
   762 ;;		_i2c_lcd_write
   763 ;; This function uses a non-reentrant model
   764 ;;
   765                           
   766                           	psect	text2
   767   004B1E                     __ptext2:
   768                           	callstack 0
   769   004B1E                     _sendDATA:
   770                           	callstack 111
   771                           
   772                           ;incstack = 0
   773                           ;sendDATA@dato stored from wreg
   774   004B1E  6E4C               	movwf	sendDATA@dato^(0+1280),c
   775   004B20                     
   776                           ;I2C_LCD_LIB.c: 33:     uint8_t NibbleH, NibbleL;;I2C_LCD_LIB.c: 34:     NibbleH = dato 
      +                          & 0xF0;
   777   004B20  504C               	movf	sendDATA@dato^(0+1280),w,c
   778   004B22  0BF0               	andlw	240
   779   004B24  6E4A               	movwf	sendDATA@NibbleH^(0+1280),c
   780                           
   781                           ;I2C_LCD_LIB.c: 35:     NibbleL = (dato & 0x0F)<<4;
   782   004B26  C54C  F549         	movff	sendDATA@dato,??_sendDATA
   783   004B2A  0E0F               	movlw	15
   784   004B2C  1649               	andwf	??_sendDATA^(0+1280),f,c
   785   004B2E  3849               	swapf	??_sendDATA^(0+1280),w,c
   786   004B30  0BF0               	andlw	240
   787   004B32  6E4B               	movwf	sendDATA@NibbleL^(0+1280),c
   788   004B34                     
   789                           ;I2C_LCD_LIB.c: 36:     loadPCF(NibbleH, 1);
   790   004B34  0E01               	movlw	1
   791   004B36  6E45               	movwf	loadPCF@mode^(0+1280),c
   792   004B38  504A               	movf	sendDATA@NibbleH^(0+1280),w,c
   793   004B3A  ECC3  F023         	call	_loadPCF
   794   004B3E                     
   795                           ;I2C_LCD_LIB.c: 37:     loadPCF(NibbleL, 1);
   796   004B3E  0E01               	movlw	1
   797   004B40  6E45               	movwf	loadPCF@mode^(0+1280),c
   798   004B42  504B               	movf	sendDATA@NibbleL^(0+1280),w,c
   799   004B44  ECC3  F023         	call	_loadPCF
   800   004B48  0012               	return		;funcret
   801   004B4A                     __end_of_sendDATA:
   802                           	callstack 0
   803                           
   804 ;; *************** function _i2c_lcd_init *****************
   805 ;; Defined at:
   806 ;;		line 48 in file "I2C_LCD_LIB.c"
   807 ;; Parameters:    Size  Location     Type
   808 ;;		None
   809 ;; Auto vars:     Size  Location     Type
   810 ;;		None
   811 ;; Return value:  Size  Location     Type
   812 ;;                  1    wreg      void 
   813 ;; Registers used:
   814 ;;		wreg, fsr2l, fsr2h, status,2, status,0, pcl, pclath, pclatu, tosl, tblptrl, tblptrh, tblptru, prodl, prodh, cstack
   815 ;; Tracked objects:
   816 ;;		On entry : 0/0
   817 ;;		On exit  : 0/0
   818 ;;		Unchanged: 0/0
   819 ;; Data sizes:     COMRAM   BANK5   BANK6   BANK7   BANK8   BANK9  BANK10  BANK11  BANK12  BANK13  BANK14  BANK15  BANK1
      +6  BANK17  BANK18  BANK19  BANK20  BANK21  BANK22  BANK23  BANK24  BANK25  BANK26  BANK27  BANK28  BANK29  BANK30  BANK3
      +1  BANK32  BANK33  BANK34  BANK35  BANK36  BANK37  BANK38  BANK39  BANK40  BANK41  BANK42  BANK43  BANK44  BANK45  BANK4
      +6  BANK47  BANK48  BANK49  BANK50  BANK51  BANK52  BANK53  BANK54
   820 ;;      Params:         0       0       0       0       0       0       0       0       0       0       0       0       
      +0       0       0       0       0       0       0       0       0       0       0       0       0       0       0       
      +0       0       0       0       0       0       0       0       0       0       0       0       0       0       0       
      +0       0       0       0       0       0       0       0       0
   821 ;;      Locals:         0       0       0       0       0       0       0       0       0       0       0       0       
      +0       0       0       0       0       0       0       0       0       0       0       0       0       0       0       
      +0       0       0       0       0       0       0       0       0       0       0       0       0       0       0       
      +0       0       0       0       0       0       0       0       0
   822 ;;      Temps:          1       0       0       0       0       0       0       0       0       0       0       0       
      +0       0       0       0       0       0       0       0       0       0       0       0       0       0       0       
      +0       0       0       0       0       0       0       0       0       0       0       0       0       0       0       
      +0       0       0       0       0       0       0       0       0
   823 ;;      Totals:         1       0       0       0       0       0       0       0       0       0       0       0       
      +0       0       0       0       0       0       0       0       0       0       0       0       0       0       0       
      +0       0       0       0       0       0       0       0       0       0       0       0       0       0       0       
      +0       0       0       0       0       0       0       0       0
   824 ;;Total ram usage:        1 bytes
   825 ;; Hardware stack levels used: 1
   826 ;; Hardware stack levels required when called: 15
   827 ;; This function calls:
   828 ;;		_PCF_Wr
   829 ;;		_sendCMD
   830 ;; This function is called by:
   831 ;;		_main
   832 ;; This function uses a non-reentrant model
   833 ;;
   834                           
   835                           	psect	text3
   836   004452                     __ptext3:
   837                           	callstack 0
   838   004452                     _i2c_lcd_init:
   839                           	callstack 111
   840   004452                     
   841                           ;I2C_LCD_LIB.c: 50:     PCF_Wr(0x00);
   842   004452  0E00               	movlw	0
   843   004454  ECE2  F026         	call	_PCF_Wr
   844   004458                     
   845                           ;I2C_LCD_LIB.c: 51:     _delay((unsigned long)((15)*(16000000/4000.0)));
   846   004458  0E4E               	movlw	78
   847   00445A  6E4D               	movwf	??_i2c_lcd_init^(0+1280),c
   848   00445C  0EEB               	movlw	235
   849   00445E                     u1377:
   850   00445E  2EE8               	decfsz	wreg,f,c
   851   004460  D7FE               	bra	u1377
   852   004462  2E4D               	decfsz	??_i2c_lcd_init^(0+1280),f,c
   853   004464  D7FC               	bra	u1377
   854   004466  F000               	nop	
   855   004468                     
   856                           ;I2C_LCD_LIB.c: 52:     sendCMD(0x03);
   857   004468  0E03               	movlw	3
   858   00446A  ECA5  F025         	call	_sendCMD
   859                           
   860                           ;I2C_LCD_LIB.c: 53:     _delay((unsigned long)((4100)*(16000000/4000000.0)));
   861   00446E  0E16               	movlw	22
   862   004470  6E4D               	movwf	??_i2c_lcd_init^(0+1280),c
   863   004472  0E4B               	movlw	75
   864   004474                     u1387:
   865   004474  2EE8               	decfsz	wreg,f,c
   866   004476  D7FE               	bra	u1387
   867   004478  2E4D               	decfsz	??_i2c_lcd_init^(0+1280),f,c
   868   00447A  D7FC               	bra	u1387
   869   00447C  F000               	nop	
   870   00447E                     
   871                           ;I2C_LCD_LIB.c: 54:     sendCMD(0x03);
   872   00447E  0E03               	movlw	3
   873   004480  ECA5  F025         	call	_sendCMD
   874   004484                     
   875                           ;I2C_LCD_LIB.c: 55:     _delay((unsigned long)((100)*(16000000/4000000.0)));
   876   004484  0E85               	movlw	133
   877   004486                     u1397:
   878   004486  2EE8               	decfsz	wreg,f,c
   879   004488  D7FE               	bra	u1397
   880   00448A  F000               	nop	
   881                           
   882                           ;I2C_LCD_LIB.c: 56:     sendCMD(0x03);
   883   00448C  0E03               	movlw	3
   884   00448E  ECA5  F025         	call	_sendCMD
   885                           
   886                           ;I2C_LCD_LIB.c: 57:     sendCMD(0x02);
   887   004492  0E02               	movlw	2
   888   004494  ECA5  F025         	call	_sendCMD
   889                           
   890                           ;I2C_LCD_LIB.c: 59:     sendCMD(0x20 | 0x00 | 0x08 | 0x00);
   891   004498  0E28               	movlw	40
   892   00449A  ECA5  F025         	call	_sendCMD
   893   00449E                     
   894                           ;I2C_LCD_LIB.c: 60:     _delay((unsigned long)((37)*(16000000/4000000.0)));
   895   00449E  0E31               	movlw	49
   896   0044A0                     u1407:
   897   0044A0  2EE8               	decfsz	wreg,f,c
   898   0044A2  D7FE               	bra	u1407
   899   0044A4  F000               	nop	
   900   0044A6                     
   901                           ;I2C_LCD_LIB.c: 62:     paramsLCD = 0x04 | 0x02 | 0x01;
   902   0044A6  0E07               	movlw	7
   903   0044A8  6E2B               	movwf	_paramsLCD^(0+1280),c
   904   0044AA                     
   905                           ;I2C_LCD_LIB.c: 63:     sendCMD(0x08 | paramsLCD );
   906   0044AA  0E0F               	movlw	15
   907   0044AC  ECA5  F025         	call	_sendCMD
   908   0044B0                     
   909                           ;I2C_LCD_LIB.c: 64:     _delay((unsigned long)((37)*(16000000/4000000.0)));
   910   0044B0  0E31               	movlw	49
   911   0044B2                     u1417:
   912   0044B2  2EE8               	decfsz	wreg,f,c
   913   0044B4  D7FE               	bra	u1417
   914   0044B6  F000               	nop	
   915   0044B8                     
   916                           ;I2C_LCD_LIB.c: 66:     sendCMD(0x01);
   917   0044B8  0E01               	movlw	1
   918   0044BA  ECA5  F025         	call	_sendCMD
   919   0044BE                     
   920                           ;I2C_LCD_LIB.c: 67:     _delay((unsigned long)((2)*(16000000/4000.0)));
   921   0044BE  0E0B               	movlw	11
   922   0044C0  6E4D               	movwf	??_i2c_lcd_init^(0+1280),c
   923   0044C2  0E62               	movlw	98
   924   0044C4                     u1427:
   925   0044C4  2EE8               	decfsz	wreg,f,c
   926   0044C6  D7FE               	bra	u1427
   927   0044C8  2E4D               	decfsz	??_i2c_lcd_init^(0+1280),f,c
   928   0044CA  D7FC               	bra	u1427
   929   0044CC  D000               	nop2	
   930   0044CE  0012               	return		;funcret
   931   0044D0                     __end_of_i2c_lcd_init:
   932                           	callstack 0
   933                           
   934 ;; *************** function _sendCMD *****************
   935 ;; Defined at:
   936 ;;		line 40 in file "I2C_LCD_LIB.c"
   937 ;; Parameters:    Size  Location     Type
   938 ;;  cmd             1    wreg     unsigned char 
   939 ;; Auto vars:     Size  Location     Type
   940 ;;  cmd             1   32[COMRAM] unsigned char 
   941 ;;  NibbleL         1   31[COMRAM] unsigned char 
   942 ;;  NibbleH         1   30[COMRAM] unsigned char 
   943 ;; Return value:  Size  Location     Type
   944 ;;                  1    wreg      void 
   945 ;; Registers used:
   946 ;;		wreg, fsr2l, fsr2h, status,2, status,0, pcl, pclath, pclatu, tosl, tblptrl, tblptrh, tblptru, prodl, prodh, cstack
   947 ;; Tracked objects:
   948 ;;		On entry : 0/0
   949 ;;		On exit  : 0/0
   950 ;;		Unchanged: 0/0
   951 ;; Data sizes:     COMRAM   BANK5   BANK6   BANK7   BANK8   BANK9  BANK10  BANK11  BANK12  BANK13  BANK14  BANK15  BANK1
      +6  BANK17  BANK18  BANK19  BANK20  BANK21  BANK22  BANK23  BANK24  BANK25  BANK26  BANK27  BANK28  BANK29  BANK30  BANK3
      +1  BANK32  BANK33  BANK34  BANK35  BANK36  BANK37  BANK38  BANK39  BANK40  BANK41  BANK42  BANK43  BANK44  BANK45  BANK4
      +6  BANK47  BANK48  BANK49  BANK50  BANK51  BANK52  BANK53  BANK54
   952 ;;      Params:         0       0       0       0       0       0       0       0       0       0       0       0       
      +0       0       0       0       0       0       0       0       0       0       0       0       0       0       0       
      +0       0       0       0       0       0       0       0       0       0       0       0       0       0       0       
      +0       0       0       0       0       0       0       0       0
   953 ;;      Locals:         3       0       0       0       0       0       0       0       0       0       0       0       
      +0       0       0       0       0       0       0       0       0       0       0       0       0       0       0       
      +0       0       0       0       0       0       0       0       0       0       0       0       0       0       0       
      +0       0       0       0       0       0       0       0       0
   954 ;;      Temps:          1       0       0       0       0       0       0       0       0       0       0       0       
      +0       0       0       0       0       0       0       0       0       0       0       0       0       0       0       
      +0       0       0       0       0       0       0       0       0       0       0       0       0       0       0       
      +0       0       0       0       0       0       0       0       0
   955 ;;      Totals:         4       0       0       0       0       0       0       0       0       0       0       0       
      +0       0       0       0       0       0       0       0       0       0       0       0       0       0       0       
      +0       0       0       0       0       0       0       0       0       0       0       0       0       0       0       
      +0       0       0       0       0       0       0       0       0
   956 ;;Total ram usage:        4 bytes
   957 ;; Hardware stack levels used: 1
   958 ;; Hardware stack levels required when called: 14
   959 ;; This function calls:
   960 ;;		_loadPCF
   961 ;; This function is called by:
   962 ;;		_i2c_lcd_init
   963 ;;		_i2c_lcd_command
   964 ;; This function uses a non-reentrant model
   965 ;;
   966                           
   967                           	psect	text4
   968   004B4A                     __ptext4:
   969                           	callstack 0
   970   004B4A                     _sendCMD:
   971                           	callstack 111
   972                           
   973                           ;incstack = 0
   974                           ;sendCMD@cmd stored from wreg
   975   004B4A  6E4C               	movwf	sendCMD@cmd^(0+1280),c
   976   004B4C                     
   977                           ;I2C_LCD_LIB.c: 41:     uint8_t NibbleH, NibbleL;;I2C_LCD_LIB.c: 42:     NibbleH = cmd &
      +                           0xF0;
   978   004B4C  504C               	movf	sendCMD@cmd^(0+1280),w,c
   979   004B4E  0BF0               	andlw	240
   980   004B50  6E4A               	movwf	sendCMD@NibbleH^(0+1280),c
   981                           
   982                           ;I2C_LCD_LIB.c: 43:     NibbleL = (cmd & 0x0F)<<4;
   983   004B52  C54C  F549         	movff	sendCMD@cmd,??_sendCMD
   984   004B56  0E0F               	movlw	15
   985   004B58  1649               	andwf	??_sendCMD^(0+1280),f,c
   986   004B5A  3849               	swapf	??_sendCMD^(0+1280),w,c
   987   004B5C  0BF0               	andlw	240
   988   004B5E  6E4B               	movwf	sendCMD@NibbleL^(0+1280),c
   989   004B60                     
   990                           ;I2C_LCD_LIB.c: 44:     loadPCF(NibbleH, 0);
   991   004B60  0E00               	movlw	0
   992   004B62  6E45               	movwf	loadPCF@mode^(0+1280),c
   993   004B64  504A               	movf	sendCMD@NibbleH^(0+1280),w,c
   994   004B66  ECC3  F023         	call	_loadPCF
   995   004B6A                     
   996                           ;I2C_LCD_LIB.c: 45:     loadPCF(NibbleL, 0);
   997   004B6A  0E00               	movlw	0
   998   004B6C  6E45               	movwf	loadPCF@mode^(0+1280),c
   999   004B6E  504B               	movf	sendCMD@NibbleL^(0+1280),w,c
  1000   004B70  ECC3  F023         	call	_loadPCF
  1001   004B74  0012               	return		;funcret
  1002   004B76                     __end_of_sendCMD:
  1003                           	callstack 0
  1004                           
  1005 ;; *************** function _loadPCF *****************
  1006 ;; Defined at:
  1007 ;;		line 17 in file "I2C_LCD_LIB.c"
  1008 ;; Parameters:    Size  Location     Type
  1009 ;;  dato            1    wreg     unsigned char 
  1010 ;;  mode            1   25[COMRAM] unsigned char 
  1011 ;; Auto vars:     Size  Location     Type
  1012 ;;  dato            1   28[COMRAM] unsigned char 
  1013 ;; Return value:  Size  Location     Type
  1014 ;;                  1    wreg      void 
  1015 ;; Registers used:
  1016 ;;		wreg, fsr2l, fsr2h, status,2, status,0, pcl, pclath, pclatu, tosl, tblptrl, tblptrh, tblptru, prodl, prodh, cstack
  1017 ;; Tracked objects:
  1018 ;;		On entry : 0/0
  1019 ;;		On exit  : 0/0
  1020 ;;		Unchanged: 0/0
  1021 ;; Data sizes:     COMRAM   BANK5   BANK6   BANK7   BANK8   BANK9  BANK10  BANK11  BANK12  BANK13  BANK14  BANK15  BANK1
      +6  BANK17  BANK18  BANK19  BANK20  BANK21  BANK22  BANK23  BANK24  BANK25  BANK26  BANK27  BANK28  BANK29  BANK30  BANK3
      +1  BANK32  BANK33  BANK34  BANK35  BANK36  BANK37  BANK38  BANK39  BANK40  BANK41  BANK42  BANK43  BANK44  BANK45  BANK4
      +6  BANK47  BANK48  BANK49  BANK50  BANK51  BANK52  BANK53  BANK54
  1022 ;;      Params:         1       0       0       0       0       0       0       0       0       0       0       0       
      +0       0       0       0       0       0       0       0       0       0       0       0       0       0       0       
      +0       0       0       0       0       0       0       0       0       0       0       0       0       0       0       
      +0       0       0       0       0       0       0       0       0
  1023 ;;      Locals:         1       0       0       0       0       0       0       0       0       0       0       0       
      +0       0       0       0       0       0       0       0       0       0       0       0       0       0       0       
      +0       0       0       0       0       0       0       0       0       0       0       0       0       0       0       
      +0       0       0       0       0       0       0       0       0
  1024 ;;      Temps:          2       0       0       0       0       0       0       0       0       0       0       0       
      +0       0       0       0       0       0       0       0       0       0       0       0       0       0       0       
      +0       0       0       0       0       0       0       0       0       0       0       0       0       0       0       
      +0       0       0       0       0       0       0       0       0
  1025 ;;      Totals:         4       0       0       0       0       0       0       0       0       0       0       0       
      +0       0       0       0       0       0       0       0       0       0       0       0       0       0       0       
      +0       0       0       0       0       0       0       0       0       0       0       0       0       0       0       
      +0       0       0       0       0       0       0       0       0
  1026 ;;Total ram usage:        4 bytes
  1027 ;; Hardware stack levels used: 1
  1028 ;; Hardware stack levels required when called: 13
  1029 ;; This function calls:
  1030 ;;		_PCF_Wr
  1031 ;; This function is called by:
  1032 ;;		_sendDATA
  1033 ;;		_sendCMD
  1034 ;; This function uses a non-reentrant model
  1035 ;;
  1036                           
  1037                           	psect	text5
  1038   004786                     __ptext5:
  1039                           	callstack 0
  1040   004786                     _loadPCF:
  1041                           	callstack 111
  1042                           
  1043                           ;incstack = 0
  1044                           ;loadPCF@dato stored from wreg
  1045   004786  6E48               	movwf	loadPCF@dato^(0+1280),c
  1046   004788                     
  1047                           ;I2C_LCD_LIB.c: 19:     switch(mode){
  1048   004788  EFCC  F023         	goto	l3068
  1049   00478C                     l3062:
  1050   00478C  8048               	bsf	loadPCF@dato^(0+1280),0,c
  1051   00478E  EFE1  F023         	goto	l3070
  1052   004792                     l3064:
  1053   004792  9048               	bcf	loadPCF@dato^(0+1280),0,c
  1054   004794  EFE1  F023         	goto	l3070
  1055   004798                     l3068:
  1056   004798  5045               	movf	loadPCF@mode^(0+1280),w,c
  1057   00479A  6E46               	movwf	??_loadPCF^(0+1280),c
  1058   00479C  6A47               	clrf	(??_loadPCF+1)^(0+1280),c
  1059                           
  1060                           ; Switch on 2 bytes has been partitioned into a top level switch of size 1, and 1 sub-sw
      +                          itches
  1061                           ; Switch size 1, requested type "simple"
  1062                           ; Number of cases is 1, Range of values is 0 to 0
  1063                           ; switch strategies available:
  1064                           ; Name         Instructions Cycles
  1065                           ; simple_byte            4     3 (average)
  1066                           ;	Chosen strategy is simple_byte
  1067   00479E  5047               	movf	(??_loadPCF+1)^(0+1280),w,c
  1068   0047A0  0A00               	xorlw	0	; case 0
  1069   0047A2  B4D8               	btfsc	status,2,c
  1070   0047A4  EFD6  F023         	goto	l3456
  1071   0047A8  EFE1  F023         	goto	l3070
  1072   0047AC                     l3456:
  1073                           
  1074                           ; Switch size 1, requested type "simple"
  1075                           ; Number of cases is 2, Range of values is 0 to 1
  1076                           ; switch strategies available:
  1077                           ; Name         Instructions Cycles
  1078                           ; simple_byte            7     4 (average)
  1079                           ;	Chosen strategy is simple_byte
  1080   0047AC  5046               	movf	??_loadPCF^(0+1280),w,c
  1081   0047AE  0A00               	xorlw	0	; case 0
  1082   0047B0  B4D8               	btfsc	status,2,c
  1083   0047B2  EFC9  F023         	goto	l3064
  1084   0047B6  0A01               	xorlw	1	; case 1
  1085   0047B8  B4D8               	btfsc	status,2,c
  1086   0047BA  EFC6  F023         	goto	l3062
  1087   0047BE  EFE1  F023         	goto	l3070
  1088   0047C2                     l3070:
  1089                           
  1090                           ;I2C_LCD_LIB.c: 24:     PCF_Wr(dato);
  1091   0047C2  5048               	movf	loadPCF@dato^(0+1280),w,c
  1092   0047C4  ECE2  F026         	call	_PCF_Wr
  1093   0047C8                     
  1094                           ;I2C_LCD_LIB.c: 25:     dato |= (1<<2);
  1095   0047C8  8448               	bsf	loadPCF@dato^(0+1280),2,c
  1096   0047CA                     
  1097                           ;I2C_LCD_LIB.c: 26:     PCF_Wr(dato);
  1098   0047CA  5048               	movf	loadPCF@dato^(0+1280),w,c
  1099   0047CC  ECE2  F026         	call	_PCF_Wr
  1100                           
  1101                           ;I2C_LCD_LIB.c: 27:     dato &= ~(1<<2);
  1102   0047D0  9448               	bcf	loadPCF@dato^(0+1280),2,c
  1103   0047D2                     
  1104                           ;I2C_LCD_LIB.c: 28:     PCF_Wr(dato);
  1105   0047D2  5048               	movf	loadPCF@dato^(0+1280),w,c
  1106   0047D4  ECE2  F026         	call	_PCF_Wr
  1107   0047D8                     
  1108                           ;I2C_LCD_LIB.c: 29:     _delay((unsigned long)((30)*(16000000/4000000.0)));
  1109   0047D8  0E28               	movlw	40
  1110   0047DA                     u1437:
  1111   0047DA  2EE8               	decfsz	wreg,f,c
  1112   0047DC  D7FE               	bra	u1437
  1113   0047DE  0012               	return		;funcret
  1114   0047E0                     __end_of_loadPCF:
  1115                           	callstack 0
  1116                           
  1117 ;; *************** function _PCF_Wr *****************
  1118 ;; Defined at:
  1119 ;;		line 13 in file "I2C_LCD_LIB.c"
  1120 ;; Parameters:    Size  Location     Type
  1121 ;;  dato            1    wreg     unsigned char 
  1122 ;; Auto vars:     Size  Location     Type
  1123 ;;  dato            1   24[COMRAM] unsigned char 
  1124 ;; Return value:  Size  Location     Type
  1125 ;;                  1    wreg      void 
  1126 ;; Registers used:
  1127 ;;		wreg, fsr2l, fsr2h, status,2, status,0, pcl, pclath, pclatu, tosl, tblptrl, tblptrh, tblptru, prodl, prodh, cstack
  1128 ;; Tracked objects:
  1129 ;;		On entry : 0/0
  1130 ;;		On exit  : 0/0
  1131 ;;		Unchanged: 0/0
  1132 ;; Data sizes:     COMRAM   BANK5   BANK6   BANK7   BANK8   BANK9  BANK10  BANK11  BANK12  BANK13  BANK14  BANK15  BANK1
      +6  BANK17  BANK18  BANK19  BANK20  BANK21  BANK22  BANK23  BANK24  BANK25  BANK26  BANK27  BANK28  BANK29  BANK30  BANK3
      +1  BANK32  BANK33  BANK34  BANK35  BANK36  BANK37  BANK38  BANK39  BANK40  BANK41  BANK42  BANK43  BANK44  BANK45  BANK4
      +6  BANK47  BANK48  BANK49  BANK50  BANK51  BANK52  BANK53  BANK54
  1133 ;;      Params:         0       0       0       0       0       0       0       0       0       0       0       0       
      +0       0       0       0       0       0       0       0       0       0       0       0       0       0       0       
      +0       0       0       0       0       0       0       0       0       0       0       0       0       0       0       
      +0       0       0       0       0       0       0       0       0
  1134 ;;      Locals:         1       0       0       0       0       0       0       0       0       0       0       0       
      +0       0       0       0       0       0       0       0       0       0       0       0       0       0       0       
      +0       0       0       0       0       0       0       0       0       0       0       0       0       0       0       
      +0       0       0       0       0       0       0       0       0
  1135 ;;      Temps:          0       0       0       0       0       0       0       0       0       0       0       0       
      +0       0       0       0       0       0       0       0       0       0       0       0       0       0       0       
      +0       0       0       0       0       0       0       0       0       0       0       0       0       0       0       
      +0       0       0       0       0       0       0       0       0
  1136 ;;      Totals:         1       0       0       0       0       0       0       0       0       0       0       0       
      +0       0       0       0       0       0       0       0       0       0       0       0       0       0       0       
      +0       0       0       0       0       0       0       0       0       0       0       0       0       0       0       
      +0       0       0       0       0       0       0       0       0
  1137 ;;Total ram usage:        1 bytes
  1138 ;; Hardware stack levels used: 1
  1139 ;; Hardware stack levels required when called: 12
  1140 ;; This function calls:
  1141 ;;		_I2C1_Write1ByteRegister
  1142 ;; This function is called by:
  1143 ;;		_loadPCF
  1144 ;;		_i2c_lcd_init
  1145 ;; This function uses a non-reentrant model
  1146 ;;
  1147                           
  1148                           	psect	text6
  1149   004DC4                     __ptext6:
  1150                           	callstack 0
  1151   004DC4                     _PCF_Wr:
  1152                           	callstack 111
  1153                           
  1154                           ;incstack = 0
  1155                           ;PCF_Wr@dato stored from wreg
  1156   004DC4  6E44               	movwf	PCF_Wr@dato^(0+1280),c
  1157   004DC6                     
  1158                           ;I2C_LCD_LIB.c: 14:     I2C1_Write1ByteRegister(0b00100111 | 0b111, 0, dato|statusLED);
  1159   004DC6  0E00               	movlw	0
  1160   004DC8  6E41               	movwf	I2C1_Write1ByteRegister@reg^(0+1280),c
  1161   004DCA  5044               	movf	PCF_Wr@dato^(0+1280),w,c
  1162   004DCC  0908               	iorlw	8
  1163   004DCE  6E42               	movwf	I2C1_Write1ByteRegister@data^(0+1280),c
  1164   004DD0  0E27               	movlw	39
  1165   004DD2  ECE3  F022         	call	_I2C1_Write1ByteRegister
  1166   004DD6  0012               	return		;funcret
  1167   004DD8                     __end_of_PCF_Wr:
  1168                           	callstack 0
  1169                           
  1170 ;; *************** function _I2C1_Write1ByteRegister *****************
  1171 ;; Defined at:
  1172 ;;		line 91 in file "mcc_generated_files/examples/i2c1_master_example.c"
  1173 ;; Parameters:    Size  Location     Type
  1174 ;;  address         1    wreg     unsigned char 
  1175 ;;  reg             1   21[COMRAM] unsigned char 
  1176 ;;  data            1   22[COMRAM] unsigned char 
  1177 ;; Auto vars:     Size  Location     Type
  1178 ;;  address         1   23[COMRAM] unsigned char 
  1179 ;; Return value:  Size  Location     Type
  1180 ;;                  1    wreg      void 
  1181 ;; Registers used:
  1182 ;;		wreg, fsr2l, fsr2h, status,2, status,0, pcl, pclath, pclatu, tosl, tblptrl, tblptrh, tblptru, prodl, prodh, cstack
  1183 ;; Tracked objects:
  1184 ;;		On entry : 0/0
  1185 ;;		On exit  : 0/0
  1186 ;;		Unchanged: 0/0
  1187 ;; Data sizes:     COMRAM   BANK5   BANK6   BANK7   BANK8   BANK9  BANK10  BANK11  BANK12  BANK13  BANK14  BANK15  BANK1
      +6  BANK17  BANK18  BANK19  BANK20  BANK21  BANK22  BANK23  BANK24  BANK25  BANK26  BANK27  BANK28  BANK29  BANK30  BANK3
      +1  BANK32  BANK33  BANK34  BANK35  BANK36  BANK37  BANK38  BANK39  BANK40  BANK41  BANK42  BANK43  BANK44  BANK45  BANK4
      +6  BANK47  BANK48  BANK49  BANK50  BANK51  BANK52  BANK53  BANK54
  1188 ;;      Params:         2       0       0       0       0       0       0       0       0       0       0       0       
      +0       0       0       0       0       0       0       0       0       0       0       0       0       0       0       
      +0       0       0       0       0       0       0       0       0       0       0       0       0       0       0       
      +0       0       0       0       0       0       0       0       0
  1189 ;;      Locals:         1       0       0       0       0       0       0       0       0       0       0       0       
      +0       0       0       0       0       0       0       0       0       0       0       0       0       0       0       
      +0       0       0       0       0       0       0       0       0       0       0       0       0       0       0       
      +0       0       0       0       0       0       0       0       0
  1190 ;;      Temps:          0       0       0       0       0       0       0       0       0       0       0       0       
      +0       0       0       0       0       0       0       0       0       0       0       0       0       0       0       
      +0       0       0       0       0       0       0       0       0       0       0       0       0       0       0       
      +0       0       0       0       0       0       0       0       0
  1191 ;;      Totals:         3       0       0       0       0       0       0       0       0       0       0       0       
      +0       0       0       0       0       0       0       0       0       0       0       0       0       0       0       
      +0       0       0       0       0       0       0       0       0       0       0       0       0       0       0       
      +0       0       0       0       0       0       0       0       0
  1192 ;;Total ram usage:        3 bytes
  1193 ;; Hardware stack levels used: 1
  1194 ;; Hardware stack levels required when called: 11
  1195 ;; This function calls:
  1196 ;;		_I2C1_Close
  1197 ;;		_I2C1_MasterWrite
  1198 ;;		_I2C1_Open
  1199 ;;		_I2C1_SetAddressNackCallback
  1200 ;;		_I2C1_SetBuffer
  1201 ;;		_I2C1_SetDataCompleteCallback
  1202 ;; This function is called by:
  1203 ;;		_PCF_Wr
  1204 ;; This function uses a non-reentrant model
  1205 ;;
  1206                           
  1207                           	psect	text7
  1208   0045C6                     __ptext7:
  1209                           	callstack 0
  1210   0045C6                     _I2C1_Write1ByteRegister:
  1211                           	callstack 111
  1212                           
  1213                           ;incstack = 0
  1214                           ;I2C1_Write1ByteRegister@address stored from wreg
  1215   0045C6  6E43               	movwf	I2C1_Write1ByteRegister@address^(0+1280),c
  1216   0045C8                     l3046:
  1217   0045C8  5043               	movf	I2C1_Write1ByteRegister@address^(0+1280),w,c
  1218   0045CA  ECB0  F020         	call	_I2C1_Open
  1219   0045CE  0900               	iorlw	0
  1220   0045D0  B4D8               	btfsc	status,2,c
  1221   0045D2  EFED  F022         	goto	u1031
  1222   0045D6  EFEF  F022         	goto	u1030
  1223   0045DA                     u1031:
  1224   0045DA  EFE4  F022         	goto	l3046
  1225   0045DE                     u1030:
  1226   0045DE                     
  1227                           ;mcc_generated_files/examples/i2c1_master_example.c: 94:     I2C1_SetDataCompleteCallbac
      +                          k(wr1RegCompleteHandler,&data);
  1228   0045DE  0E9E               	movlw	low _wr1RegCompleteHandler@i2c1_master_example$F162
  1229   0045E0  6E32               	movwf	I2C1_SetDataCompleteCallback@cb^(0+1280),c
  1230   0045E2  0E49               	movlw	high _wr1RegCompleteHandler@i2c1_master_example$F162
  1231   0045E4  6E33               	movwf	(I2C1_SetDataCompleteCallback@cb+1)^(0+1280),c
  1232   0045E6  0E00               	movlw	low (_wr1RegCompleteHandler@i2c1_master_example$F162 shr (0+16))
  1233   0045E8  6E34               	movwf	(I2C1_SetDataCompleteCallback@cb+2)^(0+1280),c
  1234   0045EA  0E42               	movlw	low I2C1_Write1ByteRegister@data
  1235   0045EC  6E35               	movwf	I2C1_SetDataCompleteCallback@ptr^(0+1280),c
  1236   0045EE  0E05               	movlw	high I2C1_Write1ByteRegister@data
  1237   0045F0  6E36               	movwf	(I2C1_SetDataCompleteCallback@ptr+1)^(0+1280),c
  1238   0045F2  EC78  F026         	call	_I2C1_SetDataCompleteCallback	;wreg free
  1239   0045F6                     
  1240                           ;mcc_generated_files/examples/i2c1_master_example.c: 95:     I2C1_SetBuffer(&reg,1);
  1241   0045F6  0E41               	movlw	low I2C1_Write1ByteRegister@reg
  1242   0045F8  6E2C               	movwf	I2C1_SetBuffer@buffer^(0+1280),c
  1243   0045FA  0E05               	movlw	high I2C1_Write1ByteRegister@reg
  1244   0045FC  6E2D               	movwf	(I2C1_SetBuffer@buffer+1)^(0+1280),c
  1245   0045FE  0E00               	movlw	0
  1246   004600  6E2F               	movwf	(I2C1_SetBuffer@bufferSize+1)^(0+1280),c
  1247   004602  0E01               	movlw	1
  1248   004604  6E2E               	movwf	I2C1_SetBuffer@bufferSize^(0+1280),c
  1249   004606  EC4B  F026         	call	_I2C1_SetBuffer	;wreg free
  1250   00460A                     
  1251                           ;mcc_generated_files/examples/i2c1_master_example.c: 96:     I2C1_SetAddressNackCallback
      +                          (((void*)0),((void*)0));
  1252   00460A  0E00               	movlw	0
  1253   00460C  6E32               	movwf	I2C1_SetAddressNackCallback@cb^(0+1280),c
  1254   00460E  0E00               	movlw	0
  1255   004610  6E33               	movwf	(I2C1_SetAddressNackCallback@cb+1)^(0+1280),c
  1256   004612  0E00               	movlw	0
  1257   004614  6E34               	movwf	(I2C1_SetAddressNackCallback@cb+2)^(0+1280),c
  1258   004616  0E00               	movlw	0
  1259   004618  6E35               	movwf	I2C1_SetAddressNackCallback@ptr^(0+1280),c
  1260   00461A  0E00               	movlw	0
  1261   00461C  6E36               	movwf	(I2C1_SetAddressNackCallback@ptr+1)^(0+1280),c
  1262   00461E  EC5C  F026         	call	_I2C1_SetAddressNackCallback	;wreg free
  1263   004622                     
  1264                           ;mcc_generated_files/examples/i2c1_master_example.c: 97:     I2C1_MasterWrite();
  1265   004622  EC31  F027         	call	_I2C1_MasterWrite	;wreg free
  1266   004626                     l3056:
  1267   004626  ECFC  F025         	call	_I2C1_Close	;wreg free
  1268   00462A  06E8               	decf	wreg,f,c
  1269   00462C  B4D8               	btfsc	status,2,c
  1270   00462E  EF1B  F023         	goto	u1041
  1271   004632  EF1D  F023         	goto	u1040
  1272   004636                     u1041:
  1273   004636  EF13  F023         	goto	l3056
  1274   00463A                     u1040:
  1275   00463A  0012               	return		;funcret
  1276   00463C                     __end_of_I2C1_Write1ByteRegister:
  1277                           	callstack 0
  1278                           
  1279 ;; *************** function _I2C1_SetAddressNackCallback *****************
  1280 ;; Defined at:
  1281 ;;		line 316 in file "mcc_generated_files/i2c1_master.c"
  1282 ;; Parameters:    Size  Location     Type
  1283 ;;  cb              3    6[COMRAM] PTR FTN(PTR void ,)enum 
  1284 ;;		 -> Absolute function(1), 
  1285 ;;  ptr             2    9[COMRAM] PTR void 
  1286 ;;		 -> NULL(0), 
  1287 ;; Auto vars:     Size  Location     Type
  1288 ;;		None
  1289 ;; Return value:  Size  Location     Type
  1290 ;;                  1    wreg      void 
  1291 ;; Registers used:
  1292 ;;		wreg, fsr2l, fsr2h, status,2, status,0, prodl, prodh, cstack
  1293 ;; Tracked objects:
  1294 ;;		On entry : 0/0
  1295 ;;		On exit  : 0/0
  1296 ;;		Unchanged: 0/0
  1297 ;; Data sizes:     COMRAM   BANK5   BANK6   BANK7   BANK8   BANK9  BANK10  BANK11  BANK12  BANK13  BANK14  BANK15  BANK1
      +6  BANK17  BANK18  BANK19  BANK20  BANK21  BANK22  BANK23  BANK24  BANK25  BANK26  BANK27  BANK28  BANK29  BANK30  BANK3
      +1  BANK32  BANK33  BANK34  BANK35  BANK36  BANK37  BANK38  BANK39  BANK40  BANK41  BANK42  BANK43  BANK44  BANK45  BANK4
      +6  BANK47  BANK48  BANK49  BANK50  BANK51  BANK52  BANK53  BANK54
  1298 ;;      Params:         5       0       0       0       0       0       0       0       0       0       0       0       
      +0       0       0       0       0       0       0       0       0       0       0       0       0       0       0       
      +0       0       0       0       0       0       0       0       0       0       0       0       0       0       0       
      +0       0       0       0       0       0       0       0       0
  1299 ;;      Locals:         0       0       0       0       0       0       0       0       0       0       0       0       
      +0       0       0       0       0       0       0       0       0       0       0       0       0       0       0       
      +0       0       0       0       0       0       0       0       0       0       0       0       0       0       0       
      +0       0       0       0       0       0       0       0       0
  1300 ;;      Temps:          0       0       0       0       0       0       0       0       0       0       0       0       
      +0       0       0       0       0       0       0       0       0       0       0       0       0       0       0       
      +0       0       0       0       0       0       0       0       0       0       0       0       0       0       0       
      +0       0       0       0       0       0       0       0       0
  1301 ;;      Totals:         5       0       0       0       0       0       0       0       0       0       0       0       
      +0       0       0       0       0       0       0       0       0       0       0       0       0       0       0       
      +0       0       0       0       0       0       0       0       0       0       0       0       0       0       0       
      +0       0       0       0       0       0       0       0       0
  1302 ;;Total ram usage:        5 bytes
  1303 ;; Hardware stack levels used: 1
  1304 ;; Hardware stack levels required when called: 1
  1305 ;; This function calls:
  1306 ;;		_I2C1_SetCallback
  1307 ;; This function is called by:
  1308 ;;		_I2C1_Write1ByteRegister
  1309 ;;		_i2c_write1ByteRegister
  1310 ;;		_i2c_writeNBytes
  1311 ;;		_i2c_read1ByteRegister
  1312 ;;		_i2c_read2ByteRegister
  1313 ;;		_i2c_write2ByteRegister
  1314 ;;		_i2c_readDataBlock
  1315 ;;		_I2C1_Read1ByteRegister
  1316 ;;		_I2C1_Read2ByteRegister
  1317 ;;		_I2C1_Write2ByteRegister
  1318 ;;		_I2C1_WriteNBytes
  1319 ;;		_I2C1_ReadDataBlock
  1320 ;; This function uses a non-reentrant model
  1321 ;;
  1322                           
  1323                           	psect	text8
  1324   004CB8                     __ptext8:
  1325                           	callstack 0
  1326   004CB8                     _I2C1_SetAddressNackCallback:
  1327                           	callstack 120
  1328   004CB8                     
  1329                           ;mcc_generated_files/i2c1_master.c: 316: void I2C1_SetAddressNackCallback(i2c1_callback_
      +                          t cb, void *ptr);mcc_generated_files/i2c1_master.c: 317: {;mcc_generated_files/i2c1_mast
      +                          er.c: 318:     I2C1_SetCallback(I2C1_ADDR_NACK, cb, ptr);
  1330   004CB8  C532  F52C         	movff	I2C1_SetAddressNackCallback@cb,I2C1_SetCallback@cb
  1331   004CBC  C533  F52D         	movff	I2C1_SetAddressNackCallback@cb+1,I2C1_SetCallback@cb+1
  1332   004CC0  C534  F52E         	movff	I2C1_SetAddressNackCallback@cb+2,I2C1_SetCallback@cb+2
  1333   004CC4  C535  F52F         	movff	I2C1_SetAddressNackCallback@ptr,I2C1_SetCallback@ptr
  1334   004CC8  C536  F530         	movff	I2C1_SetAddressNackCallback@ptr+1,I2C1_SetCallback@ptr+1
  1335   004CCC  0E02               	movlw	2
  1336   004CCE  ECE7  F021         	call	_I2C1_SetCallback
  1337   004CD2  0012               	return		;funcret
  1338   004CD4                     __end_of_I2C1_SetAddressNackCallback:
  1339                           	callstack 0
  1340                           
  1341 ;; *************** function _I2C1_Open *****************
  1342 ;; Defined at:
  1343 ;;		line 207 in file "mcc_generated_files/i2c1_master.c"
  1344 ;; Parameters:    Size  Location     Type
  1345 ;;  address         1    wreg     unsigned char 
  1346 ;; Auto vars:     Size  Location     Type
  1347 ;;  address         1    0[COMRAM] unsigned char 
  1348 ;;  returnValue     1    1[COMRAM] enum E355
  1349 ;; Return value:  Size  Location     Type
  1350 ;;                  1    wreg      enum E355
  1351 ;; Registers used:
  1352 ;;		wreg, status,2, status,0, cstack
  1353 ;; Tracked objects:
  1354 ;;		On entry : 0/0
  1355 ;;		On exit  : 0/0
  1356 ;;		Unchanged: 0/0
  1357 ;; Data sizes:     COMRAM   BANK5   BANK6   BANK7   BANK8   BANK9  BANK10  BANK11  BANK12  BANK13  BANK14  BANK15  BANK1
      +6  BANK17  BANK18  BANK19  BANK20  BANK21  BANK22  BANK23  BANK24  BANK25  BANK26  BANK27  BANK28  BANK29  BANK30  BANK3
      +1  BANK32  BANK33  BANK34  BANK35  BANK36  BANK37  BANK38  BANK39  BANK40  BANK41  BANK42  BANK43  BANK44  BANK45  BANK4
      +6  BANK47  BANK48  BANK49  BANK50  BANK51  BANK52  BANK53  BANK54
  1358 ;;      Params:         0       0       0       0       0       0       0       0       0       0       0       0       
      +0       0       0       0       0       0       0       0       0       0       0       0       0       0       0       
      +0       0       0       0       0       0       0       0       0       0       0       0       0       0       0       
      +0       0       0       0       0       0       0       0       0
  1359 ;;      Locals:         2       0       0       0       0       0       0       0       0       0       0       0       
      +0       0       0       0       0       0       0       0       0       0       0       0       0       0       0       
      +0       0       0       0       0       0       0       0       0       0       0       0       0       0       0       
      +0       0       0       0       0       0       0       0       0
  1360 ;;      Temps:          0       0       0       0       0       0       0       0       0       0       0       0       
      +0       0       0       0       0       0       0       0       0       0       0       0       0       0       0       
      +0       0       0       0       0       0       0       0       0       0       0       0       0       0       0       
      +0       0       0       0       0       0       0       0       0
  1361 ;;      Totals:         2       0       0       0       0       0       0       0       0       0       0       0       
      +0       0       0       0       0       0       0       0       0       0       0       0       0       0       0       
      +0       0       0       0       0       0       0       0       0       0       0       0       0       0       0       
      +0       0       0       0       0       0       0       0       0
  1362 ;;Total ram usage:        2 bytes
  1363 ;; Hardware stack levels used: 1
  1364 ;; Hardware stack levels required when called: 1
  1365 ;; This function calls:
  1366 ;;		_I2C1_MasterClearIrq
  1367 ;;		_I2C1_MasterOpen
  1368 ;; This function is called by:
  1369 ;;		_I2C1_Write1ByteRegister
  1370 ;;		_i2c_write1ByteRegister
  1371 ;;		_i2c_writeNBytes
  1372 ;;		_i2c_read1ByteRegister
  1373 ;;		_i2c_read2ByteRegister
  1374 ;;		_i2c_write2ByteRegister
  1375 ;;		_i2c_readDataBlock
  1376 ;;		_i2c_readNBytes
  1377 ;;		_I2C1_Read1ByteRegister
  1378 ;;		_I2C1_Read2ByteRegister
  1379 ;;		_I2C1_Write2ByteRegister
  1380 ;;		_I2C1_WriteNBytes
  1381 ;;		_I2C1_ReadNBytes
  1382 ;;		_I2C1_ReadDataBlock
  1383 ;; This function uses a non-reentrant model
  1384 ;;
  1385                           
  1386                           	psect	text9
  1387   004160                     __ptext9:
  1388                           	callstack 0
  1389   004160                     _I2C1_Open:
  1390                           	callstack 120
  1391                           
  1392                           ;incstack = 0
  1393                           ;I2C1_Open@address stored from wreg
  1394   004160  6E2C               	movwf	I2C1_Open@address^(0+1280),c
  1395   004162                     
  1396                           ;mcc_generated_files/i2c1_master.c: 207: i2c1_error_t I2C1_Open(i2c1_address_t address);
      +                          mcc_generated_files/i2c1_master.c: 208: {;mcc_generated_files/i2c1_master.c: 209:     i2
      +                          c1_error_t returnValue = I2C1_BUSY;
  1397   004162  0E01               	movlw	1
  1398   004164  6E2D               	movwf	I2C1_Open@returnValue^(0+1280),c
  1399   004166                     
  1400                           ;mcc_generated_files/i2c1_master.c: 211:     if(!I2C1_Status.inUse)
  1401   004166  B62A               	btfsc	(_I2C1_Status+41)^(0+1280),3,c
  1402   004168  EFB8  F020         	goto	u1021
  1403   00416C  EFBA  F020         	goto	u1020
  1404   004170                     u1021:
  1405   004170  EFFF  F020         	goto	l3034
  1406   004174                     u1020:
  1407   004174                     
  1408                           ;mcc_generated_files/i2c1_master.c: 212:     {;mcc_generated_files/i2c1_master.c: 213:  
      +                                 I2C1_Status.address = address;
  1409   004174  C52C  F523         	movff	I2C1_Open@address,_I2C1_Status+34
  1410   004178                     
  1411                           ;mcc_generated_files/i2c1_master.c: 214:         I2C1_Status.busy = 0;
  1412   004178  942A               	bcf	(_I2C1_Status+41)^(0+1280),2,c
  1413   00417A                     
  1414                           ;mcc_generated_files/i2c1_master.c: 215:         I2C1_Status.inUse = 1;
  1415   00417A  862A               	bsf	(_I2C1_Status+41)^(0+1280),3,c
  1416   00417C                     
  1417                           ;mcc_generated_files/i2c1_master.c: 216:         I2C1_Status.addressNackCheck = 0;
  1418   00417C  0EFC               	movlw	-4
  1419   00417E  162A               	andwf	(_I2C1_Status+41)^(0+1280),f,c
  1420   004180                     
  1421                           ;mcc_generated_files/i2c1_master.c: 217:         I2C1_Status.state = I2C1_RESET;
  1422   004180  0E0F               	movlw	15
  1423   004182  6E28               	movwf	(_I2C1_Status+39)^(0+1280),c
  1424   004184                     
  1425                           ;mcc_generated_files/i2c1_master.c: 218:         I2C1_Status.time_out_value = 500;
  1426   004184  0E01               	movlw	1
  1427   004186  6E22               	movwf	(_I2C1_Status+33)^(0+1280),c
  1428   004188  0EF4               	movlw	244
  1429   00418A  6E21               	movwf	(_I2C1_Status+32)^(0+1280),c
  1430   00418C                     
  1431                           ;mcc_generated_files/i2c1_master.c: 219:         I2C1_Status.bufferFree = 1;
  1432   00418C  882A               	bsf	(_I2C1_Status+41)^(0+1280),4,c
  1433   00418E                     
  1434                           ;mcc_generated_files/i2c1_master.c: 222:         I2C1_Status.callbackTable[I2C1_DATA_COM
      +                          PLETE]=I2C1_CallbackReturnStop;
  1435   00418E  0EDA               	movlw	low _I2C1_CallbackReturnStop
  1436   004190  6E01               	movwf	_I2C1_Status^(0+1280),c
  1437   004192  0E4E               	movlw	high _I2C1_CallbackReturnStop
  1438   004194  6E02               	movwf	(_I2C1_Status+1)^(0+1280),c
  1439   004196  0E00               	movlw	low (_I2C1_CallbackReturnStop shr (0+16))
  1440   004198  6E03               	movwf	(_I2C1_Status+2)^(0+1280),c
  1441   00419A                     
  1442                           ;mcc_generated_files/i2c1_master.c: 223:         I2C1_Status.callbackPayload[I2C1_DATA_C
      +                          OMPLETE] = ((void*)0);
  1443   00419A  0E00               	movlw	0
  1444   00419C  6E13               	movwf	(_I2C1_Status+18)^(0+1280),c
  1445   00419E  0E00               	movlw	0
  1446   0041A0  6E14               	movwf	(_I2C1_Status+19)^(0+1280),c
  1447   0041A2                     
  1448                           ;mcc_generated_files/i2c1_master.c: 224:         I2C1_Status.callbackTable[I2C1_WRITE_CO
      +                          LLISION]=I2C1_CallbackReturnStop;
  1449   0041A2  0EDA               	movlw	low _I2C1_CallbackReturnStop
  1450   0041A4  6E04               	movwf	(_I2C1_Status+3)^(0+1280),c
  1451   0041A6  0E4E               	movlw	high _I2C1_CallbackReturnStop
  1452   0041A8  6E05               	movwf	(_I2C1_Status+4)^(0+1280),c
  1453   0041AA  0E00               	movlw	low (_I2C1_CallbackReturnStop shr (0+16))
  1454   0041AC  6E06               	movwf	(_I2C1_Status+5)^(0+1280),c
  1455   0041AE                     
  1456                           ;mcc_generated_files/i2c1_master.c: 225:         I2C1_Status.callbackPayload[I2C1_WRITE_
      +                          COLLISION] = ((void*)0);
  1457   0041AE  0E00               	movlw	0
  1458   0041B0  6E15               	movwf	(_I2C1_Status+20)^(0+1280),c
  1459   0041B2  0E00               	movlw	0
  1460   0041B4  6E16               	movwf	(_I2C1_Status+21)^(0+1280),c
  1461   0041B6                     
  1462                           ;mcc_generated_files/i2c1_master.c: 226:         I2C1_Status.callbackTable[I2C1_ADDR_NAC
      +                          K]=I2C1_CallbackReturnStop;
  1463   0041B6  0EDA               	movlw	low _I2C1_CallbackReturnStop
  1464   0041B8  6E07               	movwf	(_I2C1_Status+6)^(0+1280),c
  1465   0041BA  0E4E               	movlw	high _I2C1_CallbackReturnStop
  1466   0041BC  6E08               	movwf	(_I2C1_Status+7)^(0+1280),c
  1467   0041BE  0E00               	movlw	low (_I2C1_CallbackReturnStop shr (0+16))
  1468   0041C0  6E09               	movwf	(_I2C1_Status+8)^(0+1280),c
  1469   0041C2                     
  1470                           ;mcc_generated_files/i2c1_master.c: 227:         I2C1_Status.callbackPayload[I2C1_ADDR_N
      +                          ACK] = ((void*)0);
  1471   0041C2  0E00               	movlw	0
  1472   0041C4  6E17               	movwf	(_I2C1_Status+22)^(0+1280),c
  1473   0041C6  0E00               	movlw	0
  1474   0041C8  6E18               	movwf	(_I2C1_Status+23)^(0+1280),c
  1475   0041CA                     
  1476                           ;mcc_generated_files/i2c1_master.c: 228:         I2C1_Status.callbackTable[I2C1_DATA_NAC
      +                          K]=I2C1_CallbackReturnStop;
  1477   0041CA  0EDA               	movlw	low _I2C1_CallbackReturnStop
  1478   0041CC  6E0A               	movwf	(_I2C1_Status+9)^(0+1280),c
  1479   0041CE  0E4E               	movlw	high _I2C1_CallbackReturnStop
  1480   0041D0  6E0B               	movwf	(_I2C1_Status+10)^(0+1280),c
  1481   0041D2  0E00               	movlw	low (_I2C1_CallbackReturnStop shr (0+16))
  1482   0041D4  6E0C               	movwf	(_I2C1_Status+11)^(0+1280),c
  1483   0041D6                     
  1484                           ;mcc_generated_files/i2c1_master.c: 229:         I2C1_Status.callbackPayload[I2C1_DATA_N
      +                          ACK] = ((void*)0);
  1485   0041D6  0E00               	movlw	0
  1486   0041D8  6E19               	movwf	(_I2C1_Status+24)^(0+1280),c
  1487   0041DA  0E00               	movlw	0
  1488   0041DC  6E1A               	movwf	(_I2C1_Status+25)^(0+1280),c
  1489   0041DE                     
  1490                           ;mcc_generated_files/i2c1_master.c: 230:         I2C1_Status.callbackTable[I2C1_TIMEOUT]
      +                          =I2C1_CallbackReturnReset;
  1491   0041DE  0ED6               	movlw	low _I2C1_CallbackReturnReset
  1492   0041E0  6E0D               	movwf	(_I2C1_Status+12)^(0+1280),c
  1493   0041E2  0E4E               	movlw	high _I2C1_CallbackReturnReset
  1494   0041E4  6E0E               	movwf	(_I2C1_Status+13)^(0+1280),c
  1495   0041E6  0E00               	movlw	low (_I2C1_CallbackReturnReset shr (0+16))
  1496   0041E8  6E0F               	movwf	(_I2C1_Status+14)^(0+1280),c
  1497   0041EA                     
  1498                           ;mcc_generated_files/i2c1_master.c: 231:         I2C1_Status.callbackPayload[I2C1_TIMEOU
      +                          T] = ((void*)0);
  1499   0041EA  0E00               	movlw	0
  1500   0041EC  6E1B               	movwf	(_I2C1_Status+26)^(0+1280),c
  1501   0041EE  0E00               	movlw	0
  1502   0041F0  6E1C               	movwf	(_I2C1_Status+27)^(0+1280),c
  1503   0041F2                     
  1504                           ;mcc_generated_files/i2c1_master.c: 233:         I2C1_MasterClearIrq();
  1505   0041F2  EC45  F027         	call	_I2C1_MasterClearIrq	;wreg free
  1506   0041F6                     
  1507                           ;mcc_generated_files/i2c1_master.c: 234:         I2C1_MasterOpen();
  1508   0041F6  ECBB  F025         	call	_I2C1_MasterOpen	;wreg free
  1509   0041FA                     
  1510                           ;mcc_generated_files/i2c1_master.c: 235:         returnValue = I2C1_NOERR;
  1511   0041FA  0E00               	movlw	0
  1512   0041FC  6E2D               	movwf	I2C1_Open@returnValue^(0+1280),c
  1513   0041FE                     l3034:
  1514                           
  1515                           ;mcc_generated_files/i2c1_master.c: 237:     return returnValue;
  1516   0041FE  502D               	movf	I2C1_Open@returnValue^(0+1280),w,c
  1517   004200  0012               	return		;funcret
  1518   004202                     __end_of_I2C1_Open:
  1519                           	callstack 0
  1520                           
  1521 ;; *************** function _I2C1_MasterOpen *****************
  1522 ;; Defined at:
  1523 ;;		line 635 in file "mcc_generated_files/i2c1_master.c"
  1524 ;; Parameters:    Size  Location     Type
  1525 ;;		None
  1526 ;; Auto vars:     Size  Location     Type
  1527 ;;		None
  1528 ;; Return value:  Size  Location     Type
  1529 ;;                  1    wreg      _Bool 
  1530 ;; Registers used:
  1531 ;;		wreg, status,2
  1532 ;; Tracked objects:
  1533 ;;		On entry : 0/0
  1534 ;;		On exit  : 0/0
  1535 ;;		Unchanged: 0/0
  1536 ;; Data sizes:     COMRAM   BANK5   BANK6   BANK7   BANK8   BANK9  BANK10  BANK11  BANK12  BANK13  BANK14  BANK15  BANK1
      +6  BANK17  BANK18  BANK19  BANK20  BANK21  BANK22  BANK23  BANK24  BANK25  BANK26  BANK27  BANK28  BANK29  BANK30  BANK3
      +1  BANK32  BANK33  BANK34  BANK35  BANK36  BANK37  BANK38  BANK39  BANK40  BANK41  BANK42  BANK43  BANK44  BANK45  BANK4
      +6  BANK47  BANK48  BANK49  BANK50  BANK51  BANK52  BANK53  BANK54
  1537 ;;      Params:         0       0       0       0       0       0       0       0       0       0       0       0       
      +0       0       0       0       0       0       0       0       0       0       0       0       0       0       0       
      +0       0       0       0       0       0       0       0       0       0       0       0       0       0       0       
      +0       0       0       0       0       0       0       0       0
  1538 ;;      Locals:         0       0       0       0       0       0       0       0       0       0       0       0       
      +0       0       0       0       0       0       0       0       0       0       0       0       0       0       0       
      +0       0       0       0       0       0       0       0       0       0       0       0       0       0       0       
      +0       0       0       0       0       0       0       0       0
  1539 ;;      Temps:          0       0       0       0       0       0       0       0       0       0       0       0       
      +0       0       0       0       0       0       0       0       0       0       0       0       0       0       0       
      +0       0       0       0       0       0       0       0       0       0       0       0       0       0       0       
      +0       0       0       0       0       0       0       0       0
  1540 ;;      Totals:         0       0       0       0       0       0       0       0       0       0       0       0       
      +0       0       0       0       0       0       0       0       0       0       0       0       0       0       0       
      +0       0       0       0       0       0       0       0       0       0       0       0       0       0       0       
      +0       0       0       0       0       0       0       0       0
  1541 ;;Total ram usage:        0 bytes
  1542 ;; Hardware stack levels used: 1
  1543 ;; This function calls:
  1544 ;;		Nothing
  1545 ;; This function is called by:
  1546 ;;		_I2C1_Open
  1547 ;; This function uses a non-reentrant model
  1548 ;;
  1549                           
  1550                           	psect	text10
  1551   004B76                     __ptext10:
  1552                           	callstack 0
  1553   004B76                     _I2C1_MasterOpen:
  1554                           	callstack 120
  1555   004B76                     
  1556                           ;mcc_generated_files/i2c1_master.c: 637:     if(!I2C1CON0bits.EN)
  1557   004B76  0102               	movlb	2	; () banked
  1558   004B78  BF94               	btfsc	148,7,b	;volatile
  1559   004B7A  EFC1  F025         	goto	u361
  1560   004B7E  EFC3  F025         	goto	u360
  1561   004B82                     u361:
  1562   004B82  EFD0  F025         	goto	l533
  1563   004B86                     u360:
  1564   004B86                     
  1565                           ; BSR set to: 2
  1566                           ;mcc_generated_files/i2c1_master.c: 638:     {;mcc_generated_files/i2c1_master.c: 640:  
      +                                 I2C1PIR = 0x00;
  1567   004B86  0E00               	movlw	0
  1568   004B88  6F9A               	movwf	154,b	;volatile
  1569                           
  1570                           ;mcc_generated_files/i2c1_master.c: 642:         I2C1PIE = 0x00;
  1571   004B8A  0E00               	movlw	0
  1572   004B8C  6F9B               	movwf	155,b	;volatile
  1573                           
  1574                           ;mcc_generated_files/i2c1_master.c: 644:         I2C1ERR = 0x00;
  1575   004B8E  0E00               	movlw	0
  1576   004B90  6F97               	movwf	151,b	;volatile
  1577                           
  1578                           ;mcc_generated_files/i2c1_master.c: 646:         I2C1CNTL = 0x00;
  1579   004B92  0E00               	movlw	0
  1580   004B94  6F8C               	movwf	140,b	;volatile
  1581                           
  1582                           ;mcc_generated_files/i2c1_master.c: 647:         I2C1CNTH = 0x00;
  1583   004B96  0E00               	movlw	0
  1584   004B98  6F8D               	movwf	141,b	;volatile
  1585                           
  1586                           ;mcc_generated_files/i2c1_master.c: 649:         I2C1BAUD = 0x00;
  1587   004B9A  0E00               	movlw	0
  1588   004B9C  6F9D               	movwf	157,b	;volatile
  1589   004B9E                     
  1590                           ; BSR set to: 2
  1591                           ;mcc_generated_files/i2c1_master.c: 651:         I2C1CON0bits.EN = 1;
  1592   004B9E  8F94               	bsf	148,7,b	;volatile
  1593   004BA0                     l533:
  1594                           
  1595                           ; BSR set to: 2
  1596   004BA0  0012               	return		;funcret
  1597   004BA2                     __end_of_I2C1_MasterOpen:
  1598                           	callstack 0
  1599                           
  1600 ;; *************** function _I2C1_MasterWrite *****************
  1601 ;; Defined at:
  1602 ;;		line 284 in file "mcc_generated_files/i2c1_master.c"
  1603 ;; Parameters:    Size  Location     Type
  1604 ;;		None
  1605 ;; Auto vars:     Size  Location     Type
  1606 ;;		None
  1607 ;; Return value:  Size  Location     Type
  1608 ;;                  1    wreg      enum E355
  1609 ;; Registers used:
  1610 ;;		wreg, fsr2l, fsr2h, status,2, status,0, pcl, pclath, pclatu, tosl, tblptrl, tblptrh, tblptru, prodl, prodh, cstack
  1611 ;; Tracked objects:
  1612 ;;		On entry : 0/0
  1613 ;;		On exit  : 0/0
  1614 ;;		Unchanged: 0/0
  1615 ;; Data sizes:     COMRAM   BANK5   BANK6   BANK7   BANK8   BANK9  BANK10  BANK11  BANK12  BANK13  BANK14  BANK15  BANK1
      +6  BANK17  BANK18  BANK19  BANK20  BANK21  BANK22  BANK23  BANK24  BANK25  BANK26  BANK27  BANK28  BANK29  BANK30  BANK3
      +1  BANK32  BANK33  BANK34  BANK35  BANK36  BANK37  BANK38  BANK39  BANK40  BANK41  BANK42  BANK43  BANK44  BANK45  BANK4
      +6  BANK47  BANK48  BANK49  BANK50  BANK51  BANK52  BANK53  BANK54
  1616 ;;      Params:         0       0       0       0       0       0       0       0       0       0       0       0       
      +0       0       0       0       0       0       0       0       0       0       0       0       0       0       0       
      +0       0       0       0       0       0       0       0       0       0       0       0       0       0       0       
      +0       0       0       0       0       0       0       0       0
  1617 ;;      Locals:         0       0       0       0       0       0       0       0       0       0       0       0       
      +0       0       0       0       0       0       0       0       0       0       0       0       0       0       0       
      +0       0       0       0       0       0       0       0       0       0       0       0       0       0       0       
      +0       0       0       0       0       0       0       0       0
  1618 ;;      Temps:          0       0       0       0       0       0       0       0       0       0       0       0       
      +0       0       0       0       0       0       0       0       0       0       0       0       0       0       0       
      +0       0       0       0       0       0       0       0       0       0       0       0       0       0       0       
      +0       0       0       0       0       0       0       0       0
  1619 ;;      Totals:         0       0       0       0       0       0       0       0       0       0       0       0       
      +0       0       0       0       0       0       0       0       0       0       0       0       0       0       0       
      +0       0       0       0       0       0       0       0       0       0       0       0       0       0       0       
      +0       0       0       0       0       0       0       0       0
  1620 ;;Total ram usage:        0 bytes
  1621 ;; Hardware stack levels used: 1
  1622 ;; Hardware stack levels required when called: 10
  1623 ;; This function calls:
  1624 ;;		_I2C1_MasterOperation
  1625 ;; This function is called by:
  1626 ;;		_I2C1_Write1ByteRegister
  1627 ;;		_i2c_write1ByteRegister
  1628 ;;		_i2c_writeNBytes
  1629 ;;		_i2c_read1ByteRegister
  1630 ;;		_i2c_read2ByteRegister
  1631 ;;		_i2c_write2ByteRegister
  1632 ;;		_i2c_readDataBlock
  1633 ;;		_I2C1_Read1ByteRegister
  1634 ;;		_I2C1_Read2ByteRegister
  1635 ;;		_I2C1_Write2ByteRegister
  1636 ;;		_I2C1_WriteNBytes
  1637 ;;		_I2C1_ReadDataBlock
  1638 ;; This function uses a non-reentrant model
  1639 ;;
  1640                           
  1641                           	psect	text11
  1642   004E62                     __ptext11:
  1643                           	callstack 0
  1644   004E62                     _I2C1_MasterWrite:
  1645                           	callstack 111
  1646   004E62                     
  1647                           ;mcc_generated_files/i2c1_master.c: 286:     return I2C1_MasterOperation(0);;	Return val
      +                          ue of _I2C1_MasterWrite is never used
  1648   004E62  0E00               	movlw	0
  1649   004E64  EC46  F024         	call	_I2C1_MasterOperation
  1650   004E68  0012               	return		;funcret
  1651   004E6A                     __end_of_I2C1_MasterWrite:
  1652                           	callstack 0
  1653                           
  1654 ;; *************** function _I2C1_MasterOperation *****************
  1655 ;; Defined at:
  1656 ;;		line 255 in file "mcc_generated_files/i2c1_master.c"
  1657 ;; Parameters:    Size  Location     Type
  1658 ;;  read            1    wreg     _Bool 
  1659 ;; Auto vars:     Size  Location     Type
  1660 ;;  read            1   19[COMRAM] _Bool 
  1661 ;;  returnValue     1   20[COMRAM] enum E355
  1662 ;; Return value:  Size  Location     Type
  1663 ;;                  1    wreg      enum E355
  1664 ;; Registers used:
  1665 ;;		wreg, fsr2l, fsr2h, status,2, status,0, pcl, pclath, pclatu, tosl, tblptrl, tblptrh, tblptru, prodl, prodh, cstack
  1666 ;; Tracked objects:
  1667 ;;		On entry : 0/0
  1668 ;;		On exit  : 0/0
  1669 ;;		Unchanged: 0/0
  1670 ;; Data sizes:     COMRAM   BANK5   BANK6   BANK7   BANK8   BANK9  BANK10  BANK11  BANK12  BANK13  BANK14  BANK15  BANK1
      +6  BANK17  BANK18  BANK19  BANK20  BANK21  BANK22  BANK23  BANK24  BANK25  BANK26  BANK27  BANK28  BANK29  BANK30  BANK3
      +1  BANK32  BANK33  BANK34  BANK35  BANK36  BANK37  BANK38  BANK39  BANK40  BANK41  BANK42  BANK43  BANK44  BANK45  BANK4
      +6  BANK47  BANK48  BANK49  BANK50  BANK51  BANK52  BANK53  BANK54
  1671 ;;      Params:         0       0       0       0       0       0       0       0       0       0       0       0       
      +0       0       0       0       0       0       0       0       0       0       0       0       0       0       0       
      +0       0       0       0       0       0       0       0       0       0       0       0       0       0       0       
      +0       0       0       0       0       0       0       0       0
  1672 ;;      Locals:         2       0       0       0       0       0       0       0       0       0       0       0       
      +0       0       0       0       0       0       0       0       0       0       0       0       0       0       0       
      +0       0       0       0       0       0       0       0       0       0       0       0       0       0       0       
      +0       0       0       0       0       0       0       0       0
  1673 ;;      Temps:          0       0       0       0       0       0       0       0       0       0       0       0       
      +0       0       0       0       0       0       0       0       0       0       0       0       0       0       0       
      +0       0       0       0       0       0       0       0       0       0       0       0       0       0       0       
      +0       0       0       0       0       0       0       0       0
  1674 ;;      Totals:         2       0       0       0       0       0       0       0       0       0       0       0       
      +0       0       0       0       0       0       0       0       0       0       0       0       0       0       0       
      +0       0       0       0       0       0       0       0       0       0       0       0       0       0       0       
      +0       0       0       0       0       0       0       0       0
  1675 ;;Total ram usage:        2 bytes
  1676 ;; Hardware stack levels used: 1
  1677 ;; Hardware stack levels required when called: 9
  1678 ;; This function calls:
  1679 ;;		_I2C1_DO_SEND_ADR_READ
  1680 ;;		_I2C1_DO_SEND_ADR_WRITE
  1681 ;;		_I2C1_MasterSetCounter
  1682 ;;		_I2C1_Poller
  1683 ;; This function is called by:
  1684 ;;		_I2C1_MasterWrite
  1685 ;;		_I2C1_MasterRead
  1686 ;; This function uses a non-reentrant model
  1687 ;;
  1688                           
  1689                           	psect	text12
  1690   00488C                     __ptext12:
  1691                           	callstack 0
  1692   00488C                     _I2C1_MasterOperation:
  1693                           	callstack 111
  1694                           
  1695                           ;incstack = 0
  1696                           ;I2C1_MasterOperation@read stored from wreg
  1697   00488C  6E3F               	movwf	I2C1_MasterOperation@read^(0+1280),c
  1698   00488E                     
  1699                           ;mcc_generated_files/i2c1_master.c: 255: i2c1_error_t I2C1_MasterOperation(_Bool read);m
      +                          cc_generated_files/i2c1_master.c: 256: {;mcc_generated_files/i2c1_master.c: 257:     i2c
      +                          1_error_t returnValue = I2C1_BUSY;
  1700   00488E  0E01               	movlw	1
  1701   004890  6E40               	movwf	I2C1_MasterOperation@returnValue^(0+1280),c
  1702   004892                     
  1703                           ;mcc_generated_files/i2c1_master.c: 258:     if(!I2C1_Status.busy)
  1704   004892  B42A               	btfsc	(_I2C1_Status+41)^(0+1280),2,c
  1705   004894  EF4E  F024         	goto	u1001
  1706   004898  EF50  F024         	goto	u1000
  1707   00489C                     u1001:
  1708   00489C  EF6A  F024         	goto	l2986
  1709   0048A0                     u1000:
  1710   0048A0                     
  1711                           ;mcc_generated_files/i2c1_master.c: 259:     {;mcc_generated_files/i2c1_master.c: 260:  
      +                                 I2C1_Status.busy = 1;
  1712   0048A0  842A               	bsf	(_I2C1_Status+41)^(0+1280),2,c
  1713   0048A2                     
  1714                           ;mcc_generated_files/i2c1_master.c: 261:         returnValue = I2C1_NOERR;
  1715   0048A2  0E00               	movlw	0
  1716   0048A4  6E40               	movwf	I2C1_MasterOperation@returnValue^(0+1280),c
  1717   0048A6                     
  1718                           ;mcc_generated_files/i2c1_master.c: 262:         I2C1_MasterSetCounter((uint8_t) I2C1_St
      +                          atus.data_length);
  1719   0048A6  5026               	movf	(_I2C1_Status+37)^(0+1280),w,c
  1720   0048A8  EC14  F027         	call	_I2C1_MasterSetCounter
  1721   0048AC                     
  1722                           ;mcc_generated_files/i2c1_master.c: 264:         if(read)
  1723   0048AC  503F               	movf	I2C1_MasterOperation@read^(0+1280),w,c
  1724   0048AE  B4D8               	btfsc	status,2,c
  1725   0048B0  EF5C  F024         	goto	u1011
  1726   0048B4  EF5E  F024         	goto	u1010
  1727   0048B8                     u1011:
  1728   0048B8  EF64  F024         	goto	l2980
  1729   0048BC                     u1010:
  1730   0048BC                     
  1731                           ;mcc_generated_files/i2c1_master.c: 265:         {;mcc_generated_files/i2c1_master.c: 26
      +                          6:             I2C1_Status.state = I2C1_RX;
  1732   0048BC  0E04               	movlw	4
  1733   0048BE  6E28               	movwf	(_I2C1_Status+39)^(0+1280),c
  1734   0048C0                     
  1735                           ;mcc_generated_files/i2c1_master.c: 267:             I2C1_DO_SEND_ADR_READ();
  1736   0048C0  ECE7  F025         	call	_I2C1_DO_SEND_ADR_READ	;wreg free
  1737                           
  1738                           ;mcc_generated_files/i2c1_master.c: 268:         }
  1739   0048C4  EF68  F024         	goto	l2984
  1740   0048C8                     l2980:
  1741                           
  1742                           ;mcc_generated_files/i2c1_master.c: 270:         {;mcc_generated_files/i2c1_master.c: 27
      +                          1:             I2C1_Status.state = I2C1_TX;
  1743   0048C8  0E03               	movlw	3
  1744   0048CA  6E28               	movwf	(_I2C1_Status+39)^(0+1280),c
  1745   0048CC                     
  1746                           ;mcc_generated_files/i2c1_master.c: 272:             I2C1_DO_SEND_ADR_WRITE();
  1747   0048CC  ECEC  F026         	call	_I2C1_DO_SEND_ADR_WRITE	;wreg free
  1748   0048D0                     l2984:
  1749                           
  1750                           ;mcc_generated_files/i2c1_master.c: 274:         I2C1_Poller();
  1751   0048D0  EC6A  F026         	call	_I2C1_Poller	;wreg free
  1752   0048D4                     l2986:
  1753                           
  1754                           ;mcc_generated_files/i2c1_master.c: 276:     return returnValue;
  1755   0048D4  5040               	movf	I2C1_MasterOperation@returnValue^(0+1280),w,c
  1756   0048D6  0012               	return		;funcret
  1757   0048D8                     __end_of_I2C1_MasterOperation:
  1758                           	callstack 0
  1759                           
  1760 ;; *************** function _I2C1_Poller *****************
  1761 ;; Defined at:
  1762 ;;		line 345 in file "mcc_generated_files/i2c1_master.c"
  1763 ;; Parameters:    Size  Location     Type
  1764 ;;		None
  1765 ;; Auto vars:     Size  Location     Type
  1766 ;;		None
  1767 ;; Return value:  Size  Location     Type
  1768 ;;                  1    wreg      void 
  1769 ;; Registers used:
  1770 ;;		wreg, fsr2l, fsr2h, status,2, status,0, pcl, pclath, pclatu, tosl, tblptrl, tblptrh, tblptru, prodl, prodh, cstack
  1771 ;; Tracked objects:
  1772 ;;		On entry : 0/0
  1773 ;;		On exit  : 0/0
  1774 ;;		Unchanged: 0/0
  1775 ;; Data sizes:     COMRAM   BANK5   BANK6   BANK7   BANK8   BANK9  BANK10  BANK11  BANK12  BANK13  BANK14  BANK15  BANK1
      +6  BANK17  BANK18  BANK19  BANK20  BANK21  BANK22  BANK23  BANK24  BANK25  BANK26  BANK27  BANK28  BANK29  BANK30  BANK3
      +1  BANK32  BANK33  BANK34  BANK35  BANK36  BANK37  BANK38  BANK39  BANK40  BANK41  BANK42  BANK43  BANK44  BANK45  BANK4
      +6  BANK47  BANK48  BANK49  BANK50  BANK51  BANK52  BANK53  BANK54
  1776 ;;      Params:         0       0       0       0       0       0       0       0       0       0       0       0       
      +0       0       0       0       0       0       0       0       0       0       0       0       0       0       0       
      +0       0       0       0       0       0       0       0       0       0       0       0       0       0       0       
      +0       0       0       0       0       0       0       0       0
  1777 ;;      Locals:         0       0       0       0       0       0       0       0       0       0       0       0       
      +0       0       0       0       0       0       0       0       0       0       0       0       0       0       0       
      +0       0       0       0       0       0       0       0       0       0       0       0       0       0       0       
      +0       0       0       0       0       0       0       0       0
  1778 ;;      Temps:          0       0       0       0       0       0       0       0       0       0       0       0       
      +0       0       0       0       0       0       0       0       0       0       0       0       0       0       0       
      +0       0       0       0       0       0       0       0       0       0       0       0       0       0       0       
      +0       0       0       0       0       0       0       0       0
  1779 ;;      Totals:         0       0       0       0       0       0       0       0       0       0       0       0       
      +0       0       0       0       0       0       0       0       0       0       0       0       0       0       0       
      +0       0       0       0       0       0       0       0       0       0       0       0       0       0       0       
      +0       0       0       0       0       0       0       0       0
  1780 ;;Total ram usage:        0 bytes
  1781 ;; Hardware stack levels used: 1
  1782 ;; Hardware stack levels required when called: 8
  1783 ;; This function calls:
  1784 ;;		_I2C1_MasterFsm
  1785 ;;		_I2C1_MasterWaitForEvent
  1786 ;; This function is called by:
  1787 ;;		_I2C1_MasterOperation
  1788 ;; This function uses a non-reentrant model
  1789 ;;
  1790                           
  1791                           	psect	text13
  1792   004CD4                     __ptext13:
  1793                           	callstack 0
  1794   004CD4                     _I2C1_Poller:
  1795                           	callstack 111
  1796   004CD4                     
  1797                           ;mcc_generated_files/i2c1_master.c: 347:     while(I2C1_Status.busy)
  1798   004CD4  EF70  F026         	goto	l2962
  1799   004CD8                     l2958:
  1800                           
  1801                           ;mcc_generated_files/i2c1_master.c: 348:     {;mcc_generated_files/i2c1_master.c: 349:  
      +                                 I2C1_MasterWaitForEvent();
  1802   004CD8  ECF0  F023         	call	_I2C1_MasterWaitForEvent	;wreg free
  1803   004CDC                     
  1804                           ;mcc_generated_files/i2c1_master.c: 350:         I2C1_MasterFsm();
  1805   004CDC  EC8E  F023         	call	_I2C1_MasterFsm	;wreg free
  1806   004CE0                     l2962:
  1807                           
  1808                           ;mcc_generated_files/i2c1_master.c: 347:     while(I2C1_Status.busy)
  1809   004CE0  B42A               	btfsc	(_I2C1_Status+41)^(0+1280),2,c
  1810   004CE2  EF75  F026         	goto	u991
  1811   004CE6  EF77  F026         	goto	u990
  1812   004CEA                     u991:
  1813   004CEA  EF6C  F026         	goto	l2958
  1814   004CEE                     u990:
  1815   004CEE  0012               	return		;funcret
  1816   004CF0                     __end_of_I2C1_Poller:
  1817                           	callstack 0
  1818                           
  1819 ;; *************** function _I2C1_MasterWaitForEvent *****************
  1820 ;; Defined at:
  1821 ;;		line 816 in file "mcc_generated_files/i2c1_master.c"
  1822 ;; Parameters:    Size  Location     Type
  1823 ;;		None
  1824 ;; Auto vars:     Size  Location     Type
  1825 ;;		None
  1826 ;; Return value:  Size  Location     Type
  1827 ;;                  1    wreg      void 
  1828 ;; Registers used:
  1829 ;;		None
  1830 ;; Tracked objects:
  1831 ;;		On entry : 0/0
  1832 ;;		On exit  : 0/0
  1833 ;;		Unchanged: 0/0
  1834 ;; Data sizes:     COMRAM   BANK5   BANK6   BANK7   BANK8   BANK9  BANK10  BANK11  BANK12  BANK13  BANK14  BANK15  BANK1
      +6  BANK17  BANK18  BANK19  BANK20  BANK21  BANK22  BANK23  BANK24  BANK25  BANK26  BANK27  BANK28  BANK29  BANK30  BANK3
      +1  BANK32  BANK33  BANK34  BANK35  BANK36  BANK37  BANK38  BANK39  BANK40  BANK41  BANK42  BANK43  BANK44  BANK45  BANK4
      +6  BANK47  BANK48  BANK49  BANK50  BANK51  BANK52  BANK53  BANK54
  1835 ;;      Params:         0       0       0       0       0       0       0       0       0       0       0       0       
      +0       0       0       0       0       0       0       0       0       0       0       0       0       0       0       
      +0       0       0       0       0       0       0       0       0       0       0       0       0       0       0       
      +0       0       0       0       0       0       0       0       0
  1836 ;;      Locals:         0       0       0       0       0       0       0       0       0       0       0       0       
      +0       0       0       0       0       0       0       0       0       0       0       0       0       0       0       
      +0       0       0       0       0       0       0       0       0       0       0       0       0       0       0       
      +0       0       0       0       0       0       0       0       0
  1837 ;;      Temps:          0       0       0       0       0       0       0       0       0       0       0       0       
      +0       0       0       0       0       0       0       0       0       0       0       0       0       0       0       
      +0       0       0       0       0       0       0       0       0       0       0       0       0       0       0       
      +0       0       0       0       0       0       0       0       0
  1838 ;;      Totals:         0       0       0       0       0       0       0       0       0       0       0       0       
      +0       0       0       0       0       0       0       0       0       0       0       0       0       0       0       
      +0       0       0       0       0       0       0       0       0       0       0       0       0       0       0       
      +0       0       0       0       0       0       0       0       0
  1839 ;;Total ram usage:        0 bytes
  1840 ;; Hardware stack levels used: 1
  1841 ;; This function calls:
  1842 ;;		Nothing
  1843 ;; This function is called by:
  1844 ;;		_I2C1_Poller
  1845 ;; This function uses a non-reentrant model
  1846 ;;
  1847                           
  1848                           	psect	text14
  1849   0047E0                     __ptext14:
  1850                           	callstack 0
  1851   0047E0                     _I2C1_MasterWaitForEvent:
  1852                           	callstack 118
  1853   0047E0                     l613:
  1854                           
  1855                           ;mcc_generated_files/i2c1_master.c: 819:     {;mcc_generated_files/i2c1_master.c: 820:  
      +                                 if(PIR7bits.I2C1TXIF)
  1856   0047E0  A2B5               	btfss	181,1,c	;volatile
  1857   0047E2  EFF5  F023         	goto	u271
  1858   0047E6  EFF7  F023         	goto	u270
  1859   0047EA                     u271:
  1860   0047EA  EFF9  F023         	goto	l614
  1861   0047EE                     u270:
  1862   0047EE  EF1C  F024         	goto	l621
  1863   0047F2                     l614:
  1864                           
  1865                           ;mcc_generated_files/i2c1_master.c: 824:         if(PIR7bits.I2C1RXIF)
  1866   0047F2  A0B5               	btfss	181,0,c	;volatile
  1867   0047F4  EFFE  F023         	goto	u281
  1868   0047F8  EF00  F024         	goto	u280
  1869   0047FC                     u281:
  1870   0047FC  EF02  F024         	goto	l616
  1871   004800                     u280:
  1872   004800  EF1C  F024         	goto	l621
  1873   004804                     l616:
  1874                           
  1875                           ;mcc_generated_files/i2c1_master.c: 828:         if(I2C1PIRbits.PCIF)
  1876   004804  0102               	movlb	2	; () banked
  1877   004806  A59A               	btfss	154,2,b	;volatile
  1878   004808  EF08  F024         	goto	u291
  1879   00480C  EF0A  F024         	goto	u290
  1880   004810                     u291:
  1881   004810  EF0C  F024         	goto	l617
  1882   004814                     u290:
  1883   004814  EF1C  F024         	goto	l621
  1884   004818                     l617:
  1885                           
  1886                           ; BSR set to: 2
  1887                           ;mcc_generated_files/i2c1_master.c: 832:         if(I2C1PIRbits.CNTIF)
  1888   004818  AF9A               	btfss	154,7,b	;volatile
  1889   00481A  EF11  F024         	goto	u301
  1890   00481E  EF13  F024         	goto	u300
  1891   004822                     u301:
  1892   004822  EF15  F024         	goto	l618
  1893   004826                     u300:
  1894   004826  EF1C  F024         	goto	l621
  1895   00482A                     l618:
  1896                           
  1897                           ; BSR set to: 2
  1898                           ;mcc_generated_files/i2c1_master.c: 836:         if(I2C1ERRbits.NACKIF)
  1899   00482A  A997               	btfss	151,4,b	;volatile
  1900   00482C  EF1A  F024         	goto	u311
  1901   004830  EF1C  F024         	goto	u310
  1902   004834                     u311:
  1903   004834  EFF0  F023         	goto	l613
  1904   004838                     u310:
  1905   004838                     l621:
  1906   004838  0012               	return		;funcret
  1907   00483A                     __end_of_I2C1_MasterWaitForEvent:
  1908                           	callstack 0
  1909                           
  1910 ;; *************** function _I2C1_MasterFsm *****************
  1911 ;; Defined at:
  1912 ;;		line 354 in file "mcc_generated_files/i2c1_master.c"
  1913 ;; Parameters:    Size  Location     Type
  1914 ;;		None
  1915 ;; Auto vars:     Size  Location     Type
  1916 ;;		None
  1917 ;; Return value:  Size  Location     Type
  1918 ;;                  1    wreg      void 
  1919 ;; Registers used:
  1920 ;;		wreg, fsr2l, fsr2h, status,2, status,0, pcl, pclath, pclatu, tosl, tblptrl, tblptrh, tblptru, prodl, prodh, cstack
  1921 ;; Tracked objects:
  1922 ;;		On entry : 0/0
  1923 ;;		On exit  : 0/0
  1924 ;;		Unchanged: 0/0
  1925 ;; Data sizes:     COMRAM   BANK5   BANK6   BANK7   BANK8   BANK9  BANK10  BANK11  BANK12  BANK13  BANK14  BANK15  BANK1
      +6  BANK17  BANK18  BANK19  BANK20  BANK21  BANK22  BANK23  BANK24  BANK25  BANK26  BANK27  BANK28  BANK29  BANK30  BANK3
      +1  BANK32  BANK33  BANK34  BANK35  BANK36  BANK37  BANK38  BANK39  BANK40  BANK41  BANK42  BANK43  BANK44  BANK45  BANK4
      +6  BANK47  BANK48  BANK49  BANK50  BANK51  BANK52  BANK53  BANK54
  1926 ;;      Params:         0       0       0       0       0       0       0       0       0       0       0       0       
      +0       0       0       0       0       0       0       0       0       0       0       0       0       0       0       
      +0       0       0       0       0       0       0       0       0       0       0       0       0       0       0       
      +0       0       0       0       0       0       0       0       0
  1927 ;;      Locals:         0       0       0       0       0       0       0       0       0       0       0       0       
      +0       0       0       0       0       0       0       0       0       0       0       0       0       0       0       
      +0       0       0       0       0       0       0       0       0       0       0       0       0       0       0       
      +0       0       0       0       0       0       0       0       0
  1928 ;;      Temps:          0       0       0       0       0       0       0       0       0       0       0       0       
      +0       0       0       0       0       0       0       0       0       0       0       0       0       0       0       
      +0       0       0       0       0       0       0       0       0       0       0       0       0       0       0       
      +0       0       0       0       0       0       0       0       0
  1929 ;;      Totals:         0       0       0       0       0       0       0       0       0       0       0       0       
      +0       0       0       0       0       0       0       0       0       0       0       0       0       0       0       
      +0       0       0       0       0       0       0       0       0       0       0       0       0       0       0       
      +0       0       0       0       0       0       0       0       0
  1930 ;;Total ram usage:        0 bytes
  1931 ;; Hardware stack levels used: 1
  1932 ;; Hardware stack levels required when called: 7
  1933 ;; This function calls:
  1934 ;;		_I2C1_ClearInterruptFlags
  1935 ;;		_I2C1_DO_ADDRESS_NACK
  1936 ;;		_I2C1_DO_BUS_COLLISION
  1937 ;;		_I2C1_DO_BUS_ERROR
  1938 ;;		_I2C1_DO_IDLE
  1939 ;;		_I2C1_DO_RESET
  1940 ;;		_I2C1_DO_RX
  1941 ;;		_I2C1_DO_RX_ACK
  1942 ;;		_I2C1_DO_RX_EMPTY
  1943 ;;		_I2C1_DO_RX_NACK_RESTART
  1944 ;;		_I2C1_DO_RX_NACK_STOP
  1945 ;;		_I2C1_DO_SEND_ADR_READ
  1946 ;;		_I2C1_DO_SEND_ADR_WRITE
  1947 ;;		_I2C1_DO_SEND_RESTART
  1948 ;;		_I2C1_DO_SEND_RESTART_READ
  1949 ;;		_I2C1_DO_SEND_RESTART_WRITE
  1950 ;;		_I2C1_DO_SEND_STOP
  1951 ;;		_I2C1_DO_TX
  1952 ;;		_I2C1_DO_TX_ACK
  1953 ;;		_I2C1_DO_TX_EMPTY
  1954 ;;		_I2C1_MasterIsNack
  1955 ;; This function is called by:
  1956 ;;		_I2C1_Poller
  1957 ;; This function uses a non-reentrant model
  1958 ;;
  1959                           
  1960                           	psect	text15
  1961   00471C                     __ptext15:
  1962                           	callstack 0
  1963   00471C                     _I2C1_MasterFsm:
  1964                           	callstack 111
  1965   00471C                     
  1966                           ;mcc_generated_files/i2c1_master.c: 356:     I2C1_ClearInterruptFlags();
  1967   00471C  EC1D  F024         	call	_I2C1_ClearInterruptFlags	;wreg free
  1968   004720                     
  1969                           ;mcc_generated_files/i2c1_master.c: 358:     if(I2C1_Status.addressNackCheck && I2C1_Mas
      +                          terIsNack())
  1970   004720  502A               	movf	(_I2C1_Status+41)^(0+1280),w,c
  1971   004722  0B03               	andlw	3
  1972   004724  0900               	iorlw	0
  1973   004726  B4D8               	btfsc	status,2,c
  1974   004728  EF98  F023         	goto	u961
  1975   00472C  EF9A  F023         	goto	u960
  1976   004730                     u961:
  1977   004730  EFA6  F023         	goto	l2954
  1978   004734                     u960:
  1979   004734  ECAB  F026         	call	_I2C1_MasterIsNack	;wreg free
  1980   004738  0900               	iorlw	0
  1981   00473A  B4D8               	btfsc	status,2,c
  1982   00473C  EFA2  F023         	goto	u971
  1983   004740  EFA4  F023         	goto	u970
  1984   004744                     u971:
  1985   004744  EFA6  F023         	goto	l2954
  1986   004748                     u970:
  1987   004748                     
  1988                           ;mcc_generated_files/i2c1_master.c: 359:     {;mcc_generated_files/i2c1_master.c: 360:  
      +                                 I2C1_Status.state = I2C1_ADDRESS_NACK;
  1989   004748  0E10               	movlw	16
  1990   00474A  6E28               	movwf	(_I2C1_Status+39)^(0+1280),c
  1991   00474C                     l2954:
  1992                           
  1993                           ;mcc_generated_files/i2c1_master.c: 362:     I2C1_Status.state = i2c1_fsmStateTable[I2C1
      +                          _Status.state]();
  1994   00474C  5028               	movf	(_I2C1_Status+39)^(0+1280),w,c
  1995   00474E  0D03               	mullw	3
  1996   004750  0E01               	movlw	low _i2c1_fsmStateTable
  1997   004752  24F3               	addwf	243,w,c
  1998   004754  6EF6               	movwf	tblptrl,c
  1999   004756  0E40               	movlw	high _i2c1_fsmStateTable
  2000   004758  20F4               	addwfc	244,w,c
  2001   00475A  6EF7               	movwf	tblptrh,c
  2002   00475C                     	if	1	;There are 3 active tblptr bytes
  2003   00475C  6AF8               	clrf	tblptru,c
  2004   00475E  0E00               	movlw	low (__mediumconst shr (0+16))
  2005   004760  22F8               	addwfc	tblptru,f,c
  2006   004762                     	endif
  2007   004762  D802               	call	u988
  2008   004764  EFC1  F023         	goto	u989
  2009   004768                     u988:
  2010   004768  0005               	push	
  2011   00476A  6EFA               	movwf	pclath,c
  2012   00476C  0009               	tblrd		*+
  2013   00476E  50F5               	movf	tablat,w,c
  2014   004770  6EFD               	movwf	tosl,c
  2015   004772  0009               	tblrd		*+
  2016   004774  50F5               	movf	tablat,w,c
  2017   004776  6EFE               	movwf	tosh,c
  2018   004778  0009               	tblrd		*+
  2019   00477A  50F5               	movf	tablat,w,c
  2020   00477C  6EFF               	movwf	tosu,c
  2021   00477E  50FA               	movf	pclath,w,c
  2022   004780  0012               	return		;indir
  2023   004782                     u989:
  2024   004782  6E28               	movwf	(_I2C1_Status+39)^(0+1280),c
  2025   004784  0012               	return		;funcret
  2026   004786                     __end_of_I2C1_MasterFsm:
  2027                           	callstack 0
  2028                           
  2029 ;; *************** function _I2C1_DO_BUS_ERROR *****************
  2030 ;; Defined at:
  2031 ;;		line 598 in file "mcc_generated_files/i2c1_master.c"
  2032 ;; Parameters:    Size  Location     Type
  2033 ;;		None
  2034 ;; Auto vars:     Size  Location     Type
  2035 ;;		None
  2036 ;; Return value:  Size  Location     Type
  2037 ;;                  1    wreg      enum E23261
  2038 ;; Registers used:
  2039 ;;		wreg, status,2, cstack
  2040 ;; Tracked objects:
  2041 ;;		On entry : 0/0
  2042 ;;		On exit  : 0/0
  2043 ;;		Unchanged: 0/0
  2044 ;; Data sizes:     COMRAM   BANK5   BANK6   BANK7   BANK8   BANK9  BANK10  BANK11  BANK12  BANK13  BANK14  BANK15  BANK1
      +6  BANK17  BANK18  BANK19  BANK20  BANK21  BANK22  BANK23  BANK24  BANK25  BANK26  BANK27  BANK28  BANK29  BANK30  BANK3
      +1  BANK32  BANK33  BANK34  BANK35  BANK36  BANK37  BANK38  BANK39  BANK40  BANK41  BANK42  BANK43  BANK44  BANK45  BANK4
      +6  BANK47  BANK48  BANK49  BANK50  BANK51  BANK52  BANK53  BANK54
  2045 ;;      Params:         0       0       0       0       0       0       0       0       0       0       0       0       
      +0       0       0       0       0       0       0       0       0       0       0       0       0       0       0       
      +0       0       0       0       0       0       0       0       0       0       0       0       0       0       0       
      +0       0       0       0       0       0       0       0       0
  2046 ;;      Locals:         0       0       0       0       0       0       0       0       0       0       0       0       
      +0       0       0       0       0       0       0       0       0       0       0       0       0       0       0       
      +0       0       0       0       0       0       0       0       0       0       0       0       0       0       0       
      +0       0       0       0       0       0       0       0       0
  2047 ;;      Temps:          0       0       0       0       0       0       0       0       0       0       0       0       
      +0       0       0       0       0       0       0       0       0       0       0       0       0       0       0       
      +0       0       0       0       0       0       0       0       0       0       0       0       0       0       0       
      +0       0       0       0       0       0       0       0       0
  2048 ;;      Totals:         0       0       0       0       0       0       0       0       0       0       0       0       
      +0       0       0       0       0       0       0       0       0       0       0       0       0       0       0       
      +0       0       0       0       0       0       0       0       0       0       0       0       0       0       0       
      +0       0       0       0       0       0       0       0       0
  2049 ;;Total ram usage:        0 bytes
  2050 ;; Hardware stack levels used: 1
  2051 ;; Hardware stack levels required when called: 1
  2052 ;; This function calls:
  2053 ;;		_I2C1_MasterResetBus
  2054 ;; This function is called by:
  2055 ;;		_I2C1_MasterFsm
  2056 ;; This function uses a non-reentrant model
  2057 ;;
  2058                           
  2059                           	psect	text16
  2060   004DFE                     __ptext16:
  2061                           	callstack 0
  2062   004DFE                     _I2C1_DO_BUS_ERROR:
  2063                           	callstack 116
  2064   004DFE                     
  2065                           ;mcc_generated_files/i2c1_master.c: 600:     I2C1_MasterResetBus();
  2066   004DFE  EC2C  F027         	call	_I2C1_MasterResetBus	;wreg free
  2067   004E02                     
  2068                           ;mcc_generated_files/i2c1_master.c: 601:     I2C1_Status.busy = 0;
  2069   004E02  942A               	bcf	(_I2C1_Status+41)^(0+1280),2,c
  2070   004E04                     
  2071                           ;mcc_generated_files/i2c1_master.c: 602:     I2C1_Status.error = I2C1_FAIL;
  2072   004E04  0E02               	movlw	2
  2073   004E06  6E29               	movwf	(_I2C1_Status+40)^(0+1280),c
  2074   004E08                     
  2075                           ;mcc_generated_files/i2c1_master.c: 603:     return I2C1_RESET;
  2076   004E08  0E0F               	movlw	15
  2077   004E0A  0012               	return		;funcret
  2078   004E0C                     __end_of_I2C1_DO_BUS_ERROR:
  2079                           	callstack 0
  2080                           
  2081 ;; *************** function _I2C1_DO_BUS_COLLISION *****************
  2082 ;; Defined at:
  2083 ;;		line 582 in file "mcc_generated_files/i2c1_master.c"
  2084 ;; Parameters:    Size  Location     Type
  2085 ;;		None
  2086 ;; Auto vars:     Size  Location     Type
  2087 ;;		None
  2088 ;; Return value:  Size  Location     Type
  2089 ;;                  1    wreg      enum E23261
  2090 ;; Registers used:
  2091 ;;		wreg, fsr2l, fsr2h, status,2, status,0, pcl, pclath, pclatu, tosl, prodl, prodh, cstack
  2092 ;; Tracked objects:
  2093 ;;		On entry : 0/0
  2094 ;;		On exit  : 0/0
  2095 ;;		Unchanged: 0/0
  2096 ;; Data sizes:     COMRAM   BANK5   BANK6   BANK7   BANK8   BANK9  BANK10  BANK11  BANK12  BANK13  BANK14  BANK15  BANK1
      +6  BANK17  BANK18  BANK19  BANK20  BANK21  BANK22  BANK23  BANK24  BANK25  BANK26  BANK27  BANK28  BANK29  BANK30  BANK3
      +1  BANK32  BANK33  BANK34  BANK35  BANK36  BANK37  BANK38  BANK39  BANK40  BANK41  BANK42  BANK43  BANK44  BANK45  BANK4
      +6  BANK47  BANK48  BANK49  BANK50  BANK51  BANK52  BANK53  BANK54
  2097 ;;      Params:         0       0       0       0       0       0       0       0       0       0       0       0       
      +0       0       0       0       0       0       0       0       0       0       0       0       0       0       0       
      +0       0       0       0       0       0       0       0       0       0       0       0       0       0       0       
      +0       0       0       0       0       0       0       0       0
  2098 ;;      Locals:         0       0       0       0       0       0       0       0       0       0       0       0       
      +0       0       0       0       0       0       0       0       0       0       0       0       0       0       0       
      +0       0       0       0       0       0       0       0       0       0       0       0       0       0       0       
      +0       0       0       0       0       0       0       0       0
  2099 ;;      Temps:          2       0       0       0       0       0       0       0       0       0       0       0       
      +0       0       0       0       0       0       0       0       0       0       0       0       0       0       0       
      +0       0       0       0       0       0       0       0       0       0       0       0       0       0       0       
      +0       0       0       0       0       0       0       0       0
  2100 ;;      Totals:         2       0       0       0       0       0       0       0       0       0       0       0       
      +0       0       0       0       0       0       0       0       0       0       0       0       0       0       0       
      +0       0       0       0       0       0       0       0       0       0       0       0       0       0       0       
      +0       0       0       0       0       0       0       0       0
  2101 ;;Total ram usage:        2 bytes
  2102 ;; Hardware stack levels used: 1
  2103 ;; Hardware stack levels required when called: 6
  2104 ;; This function calls:
  2105 ;;		Absolute function
  2106 ;;		_I2C1_CallbackReturnReset
  2107 ;;		_I2C1_CallbackReturnStop
  2108 ;;		_I2C1_DO_RESET
  2109 ;;		_I2C1_DO_SEND_RESTART_READ
  2110 ;;		_I2C1_DO_SEND_RESTART_WRITE
  2111 ;;		_I2C1_MasterClearIrq
  2112 ;;		_rd1RegCompleteHandler
  2113 ;;		_rd1RegCompleteHandler@i2c1_master_example$F145
  2114 ;;		_rd2RegCompleteHandler
  2115 ;;		_rd2RegCompleteHandler@i2c1_master_example$F156
  2116 ;;		_rdBlkRegCompleteHandler
  2117 ;;		_rdBlkRegCompleteHandler@i2c1_master_example$F179
  2118 ;;		_wr1RegCompleteHandler
  2119 ;;		_wr1RegCompleteHandler@i2c1_master_example$F162
  2120 ;;		_wr2RegCompleteHandler
  2121 ;;		_wr2RegCompleteHandler@i2c1_master_example$F168
  2122 ;; This function is called by:
  2123 ;;		_I2C1_MasterFsm
  2124 ;; This function uses a non-reentrant model
  2125 ;;
  2126                           
  2127                           	psect	text17
  2128   00463C                     __ptext17:
  2129                           	callstack 0
  2130   00463C                     _I2C1_DO_BUS_COLLISION:
  2131                           	callstack 111
  2132   00463C                     
  2133                           ;mcc_generated_files/i2c1_master.c: 585:     I2C1_MasterClearIrq();
  2134   00463C  EC45  F027         	call	_I2C1_MasterClearIrq	;wreg free
  2135   004640                     
  2136                           ;mcc_generated_files/i2c1_master.c: 587:     I2C1_Status.error = I2C1_FAIL;
  2137   004640  0E02               	movlw	2
  2138   004642  6E29               	movwf	(_I2C1_Status+40)^(0+1280),c
  2139                           
  2140                           ;mcc_generated_files/i2c1_master.c: 588:     switch (I2C1_Status.callbackTable[I2C1_WRIT
      +                          E_COLLISION](I2C1_Status.callbackPayload[I2C1_WRITE_COLLISION])) {
  2141   004644  EF30  F023         	goto	l2940
  2142   004648                     l2926:
  2143                           
  2144                           ;mcc_generated_files/i2c1_master.c: 590:         return I2C1_DO_SEND_RESTART_READ();
  2145   004648  EC1B  F027         	call	_I2C1_DO_SEND_RESTART_READ	;wreg free
  2146   00464C  EF57  F023         	goto	l508
  2147   004650                     l2930:
  2148                           
  2149                           ;mcc_generated_files/i2c1_master.c: 592:         return I2C1_DO_SEND_RESTART_WRITE();
  2150   004650  EC69  F027         	call	_I2C1_DO_SEND_RESTART_WRITE	;wreg free
  2151   004654  EF57  F023         	goto	l508
  2152   004658                     l2934:
  2153                           
  2154                           ;mcc_generated_files/i2c1_master.c: 594:         return I2C1_DO_RESET();
  2155   004658  EC06  F027         	call	_I2C1_DO_RESET	;wreg free
  2156   00465C  EF57  F023         	goto	l508
  2157   004660                     l2940:
  2158   004660  C515  F537         	movff	_I2C1_Status+20,I2C1_CallbackReturnReset@funPtr
  2159   004664  C516  F538         	movff	_I2C1_Status+21,I2C1_CallbackReturnReset@funPtr+1
  2160   004668  EE21  F104         	lfsr	2,_I2C1_Status+3
  2161   00466C  D802               	call	u958
  2162   00466E  EF43  F023         	goto	u959
  2163   004672                     u958:
  2164   004672  0005               	push	
  2165   004674  6EFA               	movwf	pclath,c
  2166   004676  50DE               	movf	postinc2,w,c
  2167   004678  6EFD               	movwf	tosl,c
  2168   00467A  50DE               	movf	postinc2,w,c
  2169   00467C  6EFE               	movwf	tosh,c
  2170   00467E  50DE               	movf	postinc2,w,c
  2171   004680  6EFF               	movwf	tosu,c
  2172   004682  50FA               	movf	pclath,w,c
  2173   004684  0012               	return		;indir
  2174   004686                     u959:
  2175   004686  6E39               	movwf	??_I2C1_DO_BUS_COLLISION^(0+1280),c
  2176   004688  6A3A               	clrf	(??_I2C1_DO_BUS_COLLISION+1)^(0+1280),c
  2177                           
  2178                           ; Switch on 2 bytes has been partitioned into a top level switch of size 1, and 1 sub-sw
      +                          itches
  2179                           ; Switch size 1, requested type "simple"
  2180                           ; Number of cases is 1, Range of values is 0 to 0
  2181                           ; switch strategies available:
  2182                           ; Name         Instructions Cycles
  2183                           ; simple_byte            4     3 (average)
  2184                           ;	Chosen strategy is simple_byte
  2185   00468A  503A               	movf	(??_I2C1_DO_BUS_COLLISION+1)^(0+1280),w,c
  2186   00468C  0A00               	xorlw	0	; case 0
  2187   00468E  B4D8               	btfsc	status,2,c
  2188   004690  EF4C  F023         	goto	l3458
  2189   004694  EF2C  F023         	goto	l2934
  2190   004698                     l3458:
  2191                           
  2192                           ; Switch size 1, requested type "simple"
  2193                           ; Number of cases is 2, Range of values is 2 to 3
  2194                           ; switch strategies available:
  2195                           ; Name         Instructions Cycles
  2196                           ; simple_byte            7     4 (average)
  2197                           ;	Chosen strategy is simple_byte
  2198   004698  5039               	movf	??_I2C1_DO_BUS_COLLISION^(0+1280),w,c
  2199   00469A  0A02               	xorlw	2	; case 2
  2200   00469C  B4D8               	btfsc	status,2,c
  2201   00469E  EF24  F023         	goto	l2926
  2202   0046A2  0A01               	xorlw	1	; case 3
  2203   0046A4  B4D8               	btfsc	status,2,c
  2204   0046A6  EF28  F023         	goto	l2930
  2205   0046AA  EF2C  F023         	goto	l2934
  2206   0046AE                     l508:
  2207   0046AE  0012               	return		;funcret
  2208   0046B0                     __end_of_I2C1_DO_BUS_COLLISION:
  2209                           	callstack 0
  2210                           
  2211 ;; *************** function _I2C1_DO_ADDRESS_NACK *****************
  2212 ;; Defined at:
  2213 ;;		line 567 in file "mcc_generated_files/i2c1_master.c"
  2214 ;; Parameters:    Size  Location     Type
  2215 ;;		None
  2216 ;; Auto vars:     Size  Location     Type
  2217 ;;		None
  2218 ;; Return value:  Size  Location     Type
  2219 ;;                  1    wreg      enum E23261
  2220 ;; Registers used:
  2221 ;;		wreg, fsr2l, fsr2h, status,2, status,0, pcl, pclath, pclatu, tosl, prodl, prodh, cstack
  2222 ;; Tracked objects:
  2223 ;;		On entry : 0/0
  2224 ;;		On exit  : 0/0
  2225 ;;		Unchanged: 0/0
  2226 ;; Data sizes:     COMRAM   BANK5   BANK6   BANK7   BANK8   BANK9  BANK10  BANK11  BANK12  BANK13  BANK14  BANK15  BANK1
      +6  BANK17  BANK18  BANK19  BANK20  BANK21  BANK22  BANK23  BANK24  BANK25  BANK26  BANK27  BANK28  BANK29  BANK30  BANK3
      +1  BANK32  BANK33  BANK34  BANK35  BANK36  BANK37  BANK38  BANK39  BANK40  BANK41  BANK42  BANK43  BANK44  BANK45  BANK4
      +6  BANK47  BANK48  BANK49  BANK50  BANK51  BANK52  BANK53  BANK54
  2227 ;;      Params:         0       0       0       0       0       0       0       0       0       0       0       0       
      +0       0       0       0       0       0       0       0       0       0       0       0       0       0       0       
      +0       0       0       0       0       0       0       0       0       0       0       0       0       0       0       
      +0       0       0       0       0       0       0       0       0
  2228 ;;      Locals:         0       0       0       0       0       0       0       0       0       0       0       0       
      +0       0       0       0       0       0       0       0       0       0       0       0       0       0       0       
      +0       0       0       0       0       0       0       0       0       0       0       0       0       0       0       
      +0       0       0       0       0       0       0       0       0
  2229 ;;      Temps:          2       0       0       0       0       0       0       0       0       0       0       0       
      +0       0       0       0       0       0       0       0       0       0       0       0       0       0       0       
      +0       0       0       0       0       0       0       0       0       0       0       0       0       0       0       
      +0       0       0       0       0       0       0       0       0
  2230 ;;      Totals:         2       0       0       0       0       0       0       0       0       0       0       0       
      +0       0       0       0       0       0       0       0       0       0       0       0       0       0       0       
      +0       0       0       0       0       0       0       0       0       0       0       0       0       0       0       
      +0       0       0       0       0       0       0       0       0
  2231 ;;Total ram usage:        2 bytes
  2232 ;; Hardware stack levels used: 1
  2233 ;; Hardware stack levels required when called: 3
  2234 ;; This function calls:
  2235 ;;		Absolute function
  2236 ;;		_I2C1_CallbackReturnReset
  2237 ;;		_I2C1_CallbackReturnStop
  2238 ;;		_I2C1_DO_SEND_RESTART
  2239 ;;		_rd1RegCompleteHandler
  2240 ;;		_rd1RegCompleteHandler@i2c1_master_example$F145
  2241 ;;		_rd2RegCompleteHandler
  2242 ;;		_rd2RegCompleteHandler@i2c1_master_example$F156
  2243 ;;		_rdBlkRegCompleteHandler
  2244 ;;		_rdBlkRegCompleteHandler@i2c1_master_example$F179
  2245 ;;		_wr1RegCompleteHandler
  2246 ;;		_wr1RegCompleteHandler@i2c1_master_example$F162
  2247 ;;		_wr2RegCompleteHandler
  2248 ;;		_wr2RegCompleteHandler@i2c1_master_example$F168
  2249 ;; This function is called by:
  2250 ;;		_I2C1_MasterFsm
  2251 ;; This function uses a non-reentrant model
  2252 ;;
  2253                           
  2254                           	psect	text18
  2255   0046B0                     __ptext18:
  2256                           	callstack 0
  2257   0046B0                     _I2C1_DO_ADDRESS_NACK:
  2258                           	callstack 114
  2259   0046B0                     
  2260                           ;mcc_generated_files/i2c1_master.c: 569:     I2C1_Status.addressNackCheck = 0;
  2261   0046B0  0EFC               	movlw	-4
  2262   0046B2  162A               	andwf	(_I2C1_Status+41)^(0+1280),f,c
  2263                           
  2264                           ;mcc_generated_files/i2c1_master.c: 570:     I2C1_Status.error = I2C1_FAIL;
  2265   0046B4  0E02               	movlw	2
  2266   0046B6  6E29               	movwf	(_I2C1_Status+40)^(0+1280),c
  2267   0046B8                     
  2268                           ;mcc_generated_files/i2c1_master.c: 571:     I2C1_Status.busy = 0;
  2269   0046B8  942A               	bcf	(_I2C1_Status+41)^(0+1280),2,c
  2270                           
  2271                           ;mcc_generated_files/i2c1_master.c: 572:     switch(I2C1_Status.callbackTable[I2C1_ADDR_
      +                          NACK](I2C1_Status.callbackPayload[I2C1_ADDR_NACK]))
  2272   0046BA  EF66  F023         	goto	l2916
  2273   0046BE                     l2906:
  2274                           
  2275                           ;mcc_generated_files/i2c1_master.c: 576:             return I2C1_DO_SEND_RESTART();
  2276   0046BE  EC67  F027         	call	_I2C1_DO_SEND_RESTART	;wreg free
  2277   0046C2  EF8D  F023         	goto	l501
  2278   0046C6                     l2910:
  2279                           
  2280                           ;mcc_generated_files/i2c1_master.c: 578:             return I2C1_RESET;
  2281   0046C6  0E0F               	movlw	15
  2282   0046C8  EF8D  F023         	goto	l501
  2283   0046CC                     l2916:
  2284   0046CC  C517  F537         	movff	_I2C1_Status+22,I2C1_CallbackReturnReset@funPtr
  2285   0046D0  C518  F538         	movff	_I2C1_Status+23,I2C1_CallbackReturnReset@funPtr+1
  2286   0046D4  EE21  F107         	lfsr	2,_I2C1_Status+6
  2287   0046D8  D802               	call	u948
  2288   0046DA  EF79  F023         	goto	u949
  2289   0046DE                     u948:
  2290   0046DE  0005               	push	
  2291   0046E0  6EFA               	movwf	pclath,c
  2292   0046E2  50DE               	movf	postinc2,w,c
  2293   0046E4  6EFD               	movwf	tosl,c
  2294   0046E6  50DE               	movf	postinc2,w,c
  2295   0046E8  6EFE               	movwf	tosh,c
  2296   0046EA  50DE               	movf	postinc2,w,c
  2297   0046EC  6EFF               	movwf	tosu,c
  2298   0046EE  50FA               	movf	pclath,w,c
  2299   0046F0  0012               	return		;indir
  2300   0046F2                     u949:
  2301   0046F2  6E39               	movwf	??_I2C1_DO_ADDRESS_NACK^(0+1280),c
  2302   0046F4  6A3A               	clrf	(??_I2C1_DO_ADDRESS_NACK+1)^(0+1280),c
  2303                           
  2304                           ; Switch on 2 bytes has been partitioned into a top level switch of size 1, and 1 sub-sw
      +                          itches
  2305                           ; Switch size 1, requested type "simple"
  2306                           ; Number of cases is 1, Range of values is 0 to 0
  2307                           ; switch strategies available:
  2308                           ; Name         Instructions Cycles
  2309                           ; simple_byte            4     3 (average)
  2310                           ;	Chosen strategy is simple_byte
  2311   0046F6  503A               	movf	(??_I2C1_DO_ADDRESS_NACK+1)^(0+1280),w,c
  2312   0046F8  0A00               	xorlw	0	; case 0
  2313   0046FA  B4D8               	btfsc	status,2,c
  2314   0046FC  EF82  F023         	goto	l3460
  2315   004700  EF63  F023         	goto	l2910
  2316   004704                     l3460:
  2317                           
  2318                           ; Switch size 1, requested type "simple"
  2319                           ; Number of cases is 2, Range of values is 2 to 3
  2320                           ; switch strategies available:
  2321                           ; Name         Instructions Cycles
  2322                           ; simple_byte            7     4 (average)
  2323                           ;	Chosen strategy is simple_byte
  2324   004704  5039               	movf	??_I2C1_DO_ADDRESS_NACK^(0+1280),w,c
  2325   004706  0A02               	xorlw	2	; case 2
  2326   004708  B4D8               	btfsc	status,2,c
  2327   00470A  EF5F  F023         	goto	l2906
  2328   00470E  0A01               	xorlw	1	; case 3
  2329   004710  B4D8               	btfsc	status,2,c
  2330   004712  EF5F  F023         	goto	l2906
  2331   004716  EF63  F023         	goto	l2910
  2332   00471A                     l501:
  2333   00471A  0012               	return		;funcret
  2334   00471C                     __end_of_I2C1_DO_ADDRESS_NACK:
  2335                           	callstack 0
  2336                           
  2337 ;; *************** function _I2C1_DO_RESET *****************
  2338 ;; Defined at:
  2339 ;;		line 560 in file "mcc_generated_files/i2c1_master.c"
  2340 ;; Parameters:    Size  Location     Type
  2341 ;;		None
  2342 ;; Auto vars:     Size  Location     Type
  2343 ;;		None
  2344 ;; Return value:  Size  Location     Type
  2345 ;;                  1    wreg      enum E23261
  2346 ;; Registers used:
  2347 ;;		wreg, status,2, cstack
  2348 ;; Tracked objects:
  2349 ;;		On entry : 0/0
  2350 ;;		On exit  : 0/0
  2351 ;;		Unchanged: 0/0
  2352 ;; Data sizes:     COMRAM   BANK5   BANK6   BANK7   BANK8   BANK9  BANK10  BANK11  BANK12  BANK13  BANK14  BANK15  BANK1
      +6  BANK17  BANK18  BANK19  BANK20  BANK21  BANK22  BANK23  BANK24  BANK25  BANK26  BANK27  BANK28  BANK29  BANK30  BANK3
      +1  BANK32  BANK33  BANK34  BANK35  BANK36  BANK37  BANK38  BANK39  BANK40  BANK41  BANK42  BANK43  BANK44  BANK45  BANK4
      +6  BANK47  BANK48  BANK49  BANK50  BANK51  BANK52  BANK53  BANK54
  2353 ;;      Params:         0       0       0       0       0       0       0       0       0       0       0       0       
      +0       0       0       0       0       0       0       0       0       0       0       0       0       0       0       
      +0       0       0       0       0       0       0       0       0       0       0       0       0       0       0       
      +0       0       0       0       0       0       0       0       0
  2354 ;;      Locals:         0       0       0       0       0       0       0       0       0       0       0       0       
      +0       0       0       0       0       0       0       0       0       0       0       0       0       0       0       
      +0       0       0       0       0       0       0       0       0       0       0       0       0       0       0       
      +0       0       0       0       0       0       0       0       0
  2355 ;;      Temps:          0       0       0       0       0       0       0       0       0       0       0       0       
      +0       0       0       0       0       0       0       0       0       0       0       0       0       0       0       
      +0       0       0       0       0       0       0       0       0       0       0       0       0       0       0       
      +0       0       0       0       0       0       0       0       0
  2356 ;;      Totals:         0       0       0       0       0       0       0       0       0       0       0       0       
      +0       0       0       0       0       0       0       0       0       0       0       0       0       0       0       
      +0       0       0       0       0       0       0       0       0       0       0       0       0       0       0       
      +0       0       0       0       0       0       0       0       0
  2357 ;;Total ram usage:        0 bytes
  2358 ;; Hardware stack levels used: 1
  2359 ;; Hardware stack levels required when called: 1
  2360 ;; This function calls:
  2361 ;;		_I2C1_MasterResetBus
  2362 ;; This function is called by:
  2363 ;;		_I2C1_DO_BUS_COLLISION
  2364 ;;		_I2C1_MasterFsm
  2365 ;; This function uses a non-reentrant model
  2366 ;;
  2367                           
  2368                           	psect	text19
  2369   004E0C                     __ptext19:
  2370                           	callstack 0
  2371   004E0C                     _I2C1_DO_RESET:
  2372                           	callstack 116
  2373   004E0C                     
  2374                           ;mcc_generated_files/i2c1_master.c: 562:     I2C1_MasterResetBus();
  2375   004E0C  EC2C  F027         	call	_I2C1_MasterResetBus	;wreg free
  2376   004E10                     
  2377                           ;mcc_generated_files/i2c1_master.c: 563:     I2C1_Status.busy = 0;
  2378   004E10  942A               	bcf	(_I2C1_Status+41)^(0+1280),2,c
  2379   004E12                     
  2380                           ;mcc_generated_files/i2c1_master.c: 564:     I2C1_Status.error = I2C1_NOERR;
  2381   004E12  0E00               	movlw	0
  2382   004E14  6E29               	movwf	(_I2C1_Status+40)^(0+1280),c
  2383   004E16                     
  2384                           ;mcc_generated_files/i2c1_master.c: 565:     return I2C1_RESET;
  2385   004E16  0E0F               	movlw	15
  2386   004E18  0012               	return		;funcret
  2387   004E1A                     __end_of_I2C1_DO_RESET:
  2388                           	callstack 0
  2389                           
  2390 ;; *************** function _I2C1_DO_RX_NACK_RESTART *****************
  2391 ;; Defined at:
  2392 ;;		line 554 in file "mcc_generated_files/i2c1_master.c"
  2393 ;; Parameters:    Size  Location     Type
  2394 ;;		None
  2395 ;; Auto vars:     Size  Location     Type
  2396 ;;		None
  2397 ;; Return value:  Size  Location     Type
  2398 ;;                  1    wreg      enum E23261
  2399 ;; Registers used:
  2400 ;;		wreg, cstack
  2401 ;; Tracked objects:
  2402 ;;		On entry : 0/0
  2403 ;;		On exit  : 0/0
  2404 ;;		Unchanged: 0/0
  2405 ;; Data sizes:     COMRAM   BANK5   BANK6   BANK7   BANK8   BANK9  BANK10  BANK11  BANK12  BANK13  BANK14  BANK15  BANK1
      +6  BANK17  BANK18  BANK19  BANK20  BANK21  BANK22  BANK23  BANK24  BANK25  BANK26  BANK27  BANK28  BANK29  BANK30  BANK3
      +1  BANK32  BANK33  BANK34  BANK35  BANK36  BANK37  BANK38  BANK39  BANK40  BANK41  BANK42  BANK43  BANK44  BANK45  BANK4
      +6  BANK47  BANK48  BANK49  BANK50  BANK51  BANK52  BANK53  BANK54
  2406 ;;      Params:         0       0       0       0       0       0       0       0       0       0       0       0       
      +0       0       0       0       0       0       0       0       0       0       0       0       0       0       0       
      +0       0       0       0       0       0       0       0       0       0       0       0       0       0       0       
      +0       0       0       0       0       0       0       0       0
  2407 ;;      Locals:         0       0       0       0       0       0       0       0       0       0       0       0       
      +0       0       0       0       0       0       0       0       0       0       0       0       0       0       0       
      +0       0       0       0       0       0       0       0       0       0       0       0       0       0       0       
      +0       0       0       0       0       0       0       0       0
  2408 ;;      Temps:          0       0       0       0       0       0       0       0       0       0       0       0       
      +0       0       0       0       0       0       0       0       0       0       0       0       0       0       0       
      +0       0       0       0       0       0       0       0       0       0       0       0       0       0       0       
      +0       0       0       0       0       0       0       0       0
  2409 ;;      Totals:         0       0       0       0       0       0       0       0       0       0       0       0       
      +0       0       0       0       0       0       0       0       0       0       0       0       0       0       0       
      +0       0       0       0       0       0       0       0       0       0       0       0       0       0       0       
      +0       0       0       0       0       0       0       0       0
  2410 ;;Total ram usage:        0 bytes
  2411 ;; Hardware stack levels used: 1
  2412 ;; Hardware stack levels required when called: 1
  2413 ;; This function calls:
  2414 ;;		_I2C1_MasterSendNack
  2415 ;; This function is called by:
  2416 ;;		_I2C1_MasterFsm
  2417 ;; This function uses a non-reentrant model
  2418 ;;
  2419                           
  2420                           	psect	text20
  2421   004E6A                     __ptext20:
  2422                           	callstack 0
  2423   004E6A                     _I2C1_DO_RX_NACK_RESTART:
  2424                           	callstack 116
  2425   004E6A                     
  2426                           ;mcc_generated_files/i2c1_master.c: 556:     I2C1_MasterSendNack();
  2427   004E6A  EC4F  F027         	call	_I2C1_MasterSendNack	;wreg free
  2428   004E6E                     
  2429                           ;mcc_generated_files/i2c1_master.c: 557:     return I2C1_SEND_RESTART;
  2430   004E6E  0E09               	movlw	9
  2431   004E70  0012               	return		;funcret
  2432   004E72                     __end_of_I2C1_DO_RX_NACK_RESTART:
  2433                           	callstack 0
  2434                           
  2435 ;; *************** function _I2C1_DO_RX_NACK_STOP *****************
  2436 ;; Defined at:
  2437 ;;		line 547 in file "mcc_generated_files/i2c1_master.c"
  2438 ;; Parameters:    Size  Location     Type
  2439 ;;		None
  2440 ;; Auto vars:     Size  Location     Type
  2441 ;;		None
  2442 ;; Return value:  Size  Location     Type
  2443 ;;                  1    wreg      enum E23261
  2444 ;; Registers used:
  2445 ;;		wreg, status,2, cstack
  2446 ;; Tracked objects:
  2447 ;;		On entry : 0/0
  2448 ;;		On exit  : 0/0
  2449 ;;		Unchanged: 0/0
  2450 ;; Data sizes:     COMRAM   BANK5   BANK6   BANK7   BANK8   BANK9  BANK10  BANK11  BANK12  BANK13  BANK14  BANK15  BANK1
      +6  BANK17  BANK18  BANK19  BANK20  BANK21  BANK22  BANK23  BANK24  BANK25  BANK26  BANK27  BANK28  BANK29  BANK30  BANK3
      +1  BANK32  BANK33  BANK34  BANK35  BANK36  BANK37  BANK38  BANK39  BANK40  BANK41  BANK42  BANK43  BANK44  BANK45  BANK4
      +6  BANK47  BANK48  BANK49  BANK50  BANK51  BANK52  BANK53  BANK54
  2451 ;;      Params:         0       0       0       0       0       0       0       0       0       0       0       0       
      +0       0       0       0       0       0       0       0       0       0       0       0       0       0       0       
      +0       0       0       0       0       0       0       0       0       0       0       0       0       0       0       
      +0       0       0       0       0       0       0       0       0
  2452 ;;      Locals:         0       0       0       0       0       0       0       0       0       0       0       0       
      +0       0       0       0       0       0       0       0       0       0       0       0       0       0       0       
      +0       0       0       0       0       0       0       0       0       0       0       0       0       0       0       
      +0       0       0       0       0       0       0       0       0
  2453 ;;      Temps:          0       0       0       0       0       0       0       0       0       0       0       0       
      +0       0       0       0       0       0       0       0       0       0       0       0       0       0       0       
      +0       0       0       0       0       0       0       0       0       0       0       0       0       0       0       
      +0       0       0       0       0       0       0       0       0
  2454 ;;      Totals:         0       0       0       0       0       0       0       0       0       0       0       0       
      +0       0       0       0       0       0       0       0       0       0       0       0       0       0       0       
      +0       0       0       0       0       0       0       0       0       0       0       0       0       0       0       
      +0       0       0       0       0       0       0       0       0
  2455 ;;Total ram usage:        0 bytes
  2456 ;; Hardware stack levels used: 1
  2457 ;; Hardware stack levels required when called: 1
  2458 ;; This function calls:
  2459 ;;		_I2C1_DO_IDLE
  2460 ;;		_I2C1_MasterSendNack
  2461 ;;		_I2C1_MasterStop
  2462 ;; This function is called by:
  2463 ;;		_I2C1_MasterFsm
  2464 ;; This function uses a non-reentrant model
  2465 ;;
  2466                           
  2467                           	psect	text21
  2468   004E1A                     __ptext21:
  2469                           	callstack 0
  2470   004E1A                     _I2C1_DO_RX_NACK_STOP:
  2471                           	callstack 116
  2472   004E1A                     
  2473                           ;mcc_generated_files/i2c1_master.c: 549:     I2C1_MasterSendNack();
  2474   004E1A  EC4F  F027         	call	_I2C1_MasterSendNack	;wreg free
  2475                           
  2476                           ;mcc_generated_files/i2c1_master.c: 550:     I2C1_MasterStop();
  2477   004E1E  EC4C  F027         	call	_I2C1_MasterStop	;wreg free
  2478   004E22                     
  2479                           ;mcc_generated_files/i2c1_master.c: 551:     return I2C1_DO_IDLE();
  2480   004E22  EC27  F027         	call	_I2C1_DO_IDLE	;wreg free
  2481   004E26  0012               	return		;funcret
  2482   004E28                     __end_of_I2C1_DO_RX_NACK_STOP:
  2483                           	callstack 0
  2484                           
  2485 ;; *************** function _I2C1_DO_RX_ACK *****************
  2486 ;; Defined at:
  2487 ;;		line 535 in file "mcc_generated_files/i2c1_master.c"
  2488 ;; Parameters:    Size  Location     Type
  2489 ;;		None
  2490 ;; Auto vars:     Size  Location     Type
  2491 ;;		None
  2492 ;; Return value:  Size  Location     Type
  2493 ;;                  1    wreg      enum E23261
  2494 ;; Registers used:
  2495 ;;		wreg, cstack
  2496 ;; Tracked objects:
  2497 ;;		On entry : 0/0
  2498 ;;		On exit  : 0/0
  2499 ;;		Unchanged: 0/0
  2500 ;; Data sizes:     COMRAM   BANK5   BANK6   BANK7   BANK8   BANK9  BANK10  BANK11  BANK12  BANK13  BANK14  BANK15  BANK1
      +6  BANK17  BANK18  BANK19  BANK20  BANK21  BANK22  BANK23  BANK24  BANK25  BANK26  BANK27  BANK28  BANK29  BANK30  BANK3
      +1  BANK32  BANK33  BANK34  BANK35  BANK36  BANK37  BANK38  BANK39  BANK40  BANK41  BANK42  BANK43  BANK44  BANK45  BANK4
      +6  BANK47  BANK48  BANK49  BANK50  BANK51  BANK52  BANK53  BANK54
  2501 ;;      Params:         0       0       0       0       0       0       0       0       0       0       0       0       
      +0       0       0       0       0       0       0       0       0       0       0       0       0       0       0       
      +0       0       0       0       0       0       0       0       0       0       0       0       0       0       0       
      +0       0       0       0       0       0       0       0       0
  2502 ;;      Locals:         0       0       0       0       0       0       0       0       0       0       0       0       
      +0       0       0       0       0       0       0       0       0       0       0       0       0       0       0       
      +0       0       0       0       0       0       0       0       0       0       0       0       0       0       0       
      +0       0       0       0       0       0       0       0       0
  2503 ;;      Temps:          0       0       0       0       0       0       0       0       0       0       0       0       
      +0       0       0       0       0       0       0       0       0       0       0       0       0       0       0       
      +0       0       0       0       0       0       0       0       0       0       0       0       0       0       0       
      +0       0       0       0       0       0       0       0       0
  2504 ;;      Totals:         0       0       0       0       0       0       0       0       0       0       0       0       
      +0       0       0       0       0       0       0       0       0       0       0       0       0       0       0       
      +0       0       0       0       0       0       0       0       0       0       0       0       0       0       0       
      +0       0       0       0       0       0       0       0       0
  2505 ;;Total ram usage:        0 bytes
  2506 ;; Hardware stack levels used: 1
  2507 ;; Hardware stack levels required when called: 1
  2508 ;; This function calls:
  2509 ;;		_I2C1_MasterSendAck
  2510 ;; This function is called by:
  2511 ;;		_I2C1_MasterFsm
  2512 ;; This function uses a non-reentrant model
  2513 ;;
  2514                           
  2515                           	psect	text22
  2516   004E72                     __ptext22:
  2517                           	callstack 0
  2518   004E72                     _I2C1_DO_RX_ACK:
  2519                           	callstack 116
  2520   004E72                     
  2521                           ;mcc_generated_files/i2c1_master.c: 537:     I2C1_MasterSendAck();
  2522   004E72  EC52  F027         	call	_I2C1_MasterSendAck	;wreg free
  2523   004E76                     
  2524                           ;mcc_generated_files/i2c1_master.c: 538:     return I2C1_RX;
  2525   004E76  0E04               	movlw	4
  2526   004E78  0012               	return		;funcret
  2527   004E7A                     __end_of_I2C1_DO_RX_ACK:
  2528                           	callstack 0
  2529                           
  2530 ;; *************** function _I2C1_DO_SEND_STOP *****************
  2531 ;; Defined at:
  2532 ;;		line 524 in file "mcc_generated_files/i2c1_master.c"
  2533 ;; Parameters:    Size  Location     Type
  2534 ;;		None
  2535 ;; Auto vars:     Size  Location     Type
  2536 ;;		None
  2537 ;; Return value:  Size  Location     Type
  2538 ;;                  1    wreg      enum E23261
  2539 ;; Registers used:
  2540 ;;		wreg, status,2, cstack
  2541 ;; Tracked objects:
  2542 ;;		On entry : 0/0
  2543 ;;		On exit  : 0/0
  2544 ;;		Unchanged: 0/0
  2545 ;; Data sizes:     COMRAM   BANK5   BANK6   BANK7   BANK8   BANK9  BANK10  BANK11  BANK12  BANK13  BANK14  BANK15  BANK1
      +6  BANK17  BANK18  BANK19  BANK20  BANK21  BANK22  BANK23  BANK24  BANK25  BANK26  BANK27  BANK28  BANK29  BANK30  BANK3
      +1  BANK32  BANK33  BANK34  BANK35  BANK36  BANK37  BANK38  BANK39  BANK40  BANK41  BANK42  BANK43  BANK44  BANK45  BANK4
      +6  BANK47  BANK48  BANK49  BANK50  BANK51  BANK52  BANK53  BANK54
  2546 ;;      Params:         0       0       0       0       0       0       0       0       0       0       0       0       
      +0       0       0       0       0       0       0       0       0       0       0       0       0       0       0       
      +0       0       0       0       0       0       0       0       0       0       0       0       0       0       0       
      +0       0       0       0       0       0       0       0       0
  2547 ;;      Locals:         0       0       0       0       0       0       0       0       0       0       0       0       
      +0       0       0       0       0       0       0       0       0       0       0       0       0       0       0       
      +0       0       0       0       0       0       0       0       0       0       0       0       0       0       0       
      +0       0       0       0       0       0       0       0       0
  2548 ;;      Temps:          0       0       0       0       0       0       0       0       0       0       0       0       
      +0       0       0       0       0       0       0       0       0       0       0       0       0       0       0       
      +0       0       0       0       0       0       0       0       0       0       0       0       0       0       0       
      +0       0       0       0       0       0       0       0       0
  2549 ;;      Totals:         0       0       0       0       0       0       0       0       0       0       0       0       
      +0       0       0       0       0       0       0       0       0       0       0       0       0       0       0       
      +0       0       0       0       0       0       0       0       0       0       0       0       0       0       0       
      +0       0       0       0       0       0       0       0       0
  2550 ;;Total ram usage:        0 bytes
  2551 ;; Hardware stack levels used: 1
  2552 ;; Hardware stack levels required when called: 1
  2553 ;; This function calls:
  2554 ;;		_I2C1_MasterGetCounter
  2555 ;;		_I2C1_MasterSendTxData
  2556 ;;		_I2C1_MasterSetCounter
  2557 ;;		_I2C1_MasterStop
  2558 ;; This function is called by:
  2559 ;;		_I2C1_MasterFsm
  2560 ;; This function uses a non-reentrant model
  2561 ;;
  2562                           
  2563                           	psect	text23
  2564   004C22                     __ptext23:
  2565                           	callstack 0
  2566   004C22                     _I2C1_DO_SEND_STOP:
  2567                           	callstack 116
  2568   004C22                     
  2569                           ;mcc_generated_files/i2c1_master.c: 526:     I2C1_MasterStop();
  2570   004C22  EC4C  F027         	call	_I2C1_MasterStop	;wreg free
  2571   004C26                     
  2572                           ;mcc_generated_files/i2c1_master.c: 527:     if(I2C1_MasterGetCounter())
  2573   004C26  EC49  F027         	call	_I2C1_MasterGetCounter	;wreg free
  2574   004C2A  0900               	iorlw	0
  2575   004C2C  B4D8               	btfsc	status,2,c
  2576   004C2E  EF1B  F026         	goto	u931
  2577   004C32  EF1D  F026         	goto	u930
  2578   004C36                     u931:
  2579   004C36  EF23  F026         	goto	l2898
  2580   004C3A                     u930:
  2581   004C3A                     
  2582                           ;mcc_generated_files/i2c1_master.c: 528:     {;mcc_generated_files/i2c1_master.c: 529:  
      +                                 I2C1_MasterSetCounter(0);
  2583   004C3A  0E00               	movlw	0
  2584   004C3C  EC14  F027         	call	_I2C1_MasterSetCounter
  2585   004C40                     
  2586                           ;mcc_generated_files/i2c1_master.c: 530:         I2C1_MasterSendTxData(0);
  2587   004C40  0E00               	movlw	0
  2588   004C42  EC41  F027         	call	_I2C1_MasterSendTxData
  2589   004C46                     l2898:
  2590                           
  2591                           ;mcc_generated_files/i2c1_master.c: 532:     return I2C1_IDLE;
  2592   004C46  0E00               	movlw	0
  2593   004C48  0012               	return		;funcret
  2594   004C4A                     __end_of_I2C1_DO_SEND_STOP:
  2595                           	callstack 0
  2596                           
  2597 ;; *************** function _I2C1_DO_SEND_RESTART *****************
  2598 ;; Defined at:
  2599 ;;		line 519 in file "mcc_generated_files/i2c1_master.c"
  2600 ;; Parameters:    Size  Location     Type
  2601 ;;		None
  2602 ;; Auto vars:     Size  Location     Type
  2603 ;;		None
  2604 ;; Return value:  Size  Location     Type
  2605 ;;                  1    wreg      enum E23261
  2606 ;; Registers used:
  2607 ;;		wreg
  2608 ;; Tracked objects:
  2609 ;;		On entry : 0/0
  2610 ;;		On exit  : 0/0
  2611 ;;		Unchanged: 0/0
  2612 ;; Data sizes:     COMRAM   BANK5   BANK6   BANK7   BANK8   BANK9  BANK10  BANK11  BANK12  BANK13  BANK14  BANK15  BANK1
      +6  BANK17  BANK18  BANK19  BANK20  BANK21  BANK22  BANK23  BANK24  BANK25  BANK26  BANK27  BANK28  BANK29  BANK30  BANK3
      +1  BANK32  BANK33  BANK34  BANK35  BANK36  BANK37  BANK38  BANK39  BANK40  BANK41  BANK42  BANK43  BANK44  BANK45  BANK4
      +6  BANK47  BANK48  BANK49  BANK50  BANK51  BANK52  BANK53  BANK54
  2613 ;;      Params:         0       0       0       0       0       0       0       0       0       0       0       0       
      +0       0       0       0       0       0       0       0       0       0       0       0       0       0       0       
      +0       0       0       0       0       0       0       0       0       0       0       0       0       0       0       
      +0       0       0       0       0       0       0       0       0
  2614 ;;      Locals:         0       0       0       0       0       0       0       0       0       0       0       0       
      +0       0       0       0       0       0       0       0       0       0       0       0       0       0       0       
      +0       0       0       0       0       0       0       0       0       0       0       0       0       0       0       
      +0       0       0       0       0       0       0       0       0
  2615 ;;      Temps:          0       0       0       0       0       0       0       0       0       0       0       0       
      +0       0       0       0       0       0       0       0       0       0       0       0       0       0       0       
      +0       0       0       0       0       0       0       0       0       0       0       0       0       0       0       
      +0       0       0       0       0       0       0       0       0
  2616 ;;      Totals:         0       0       0       0       0       0       0       0       0       0       0       0       
      +0       0       0       0       0       0       0       0       0       0       0       0       0       0       0       
      +0       0       0       0       0       0       0       0       0       0       0       0       0       0       0       
      +0       0       0       0       0       0       0       0       0
  2617 ;;Total ram usage:        0 bytes
  2618 ;; Hardware stack levels used: 1
  2619 ;; This function calls:
  2620 ;;		Nothing
  2621 ;; This function is called by:
  2622 ;;		_I2C1_DO_ADDRESS_NACK
  2623 ;;		_I2C1_MasterFsm
  2624 ;; This function uses a non-reentrant model
  2625 ;;
  2626                           
  2627                           	psect	text24
  2628   004ECE                     __ptext24:
  2629                           	callstack 0
  2630   004ECE                     _I2C1_DO_SEND_RESTART:
  2631                           	callstack 117
  2632   004ECE                     
  2633                           ;mcc_generated_files/i2c1_master.c: 521:     return I2C1_SEND_ADR_READ;
  2634   004ECE  0E01               	movlw	1
  2635   004ED0  0012               	return		;funcret
  2636   004ED2                     __end_of_I2C1_DO_SEND_RESTART:
  2637                           	callstack 0
  2638                           
  2639 ;; *************** function _I2C1_DO_SEND_RESTART_WRITE *****************
  2640 ;; Defined at:
  2641 ;;		line 513 in file "mcc_generated_files/i2c1_master.c"
  2642 ;; Parameters:    Size  Location     Type
  2643 ;;		None
  2644 ;; Auto vars:     Size  Location     Type
  2645 ;;		None
  2646 ;; Return value:  Size  Location     Type
  2647 ;;                  1    wreg      enum E23261
  2648 ;; Registers used:
  2649 ;;		wreg
  2650 ;; Tracked objects:
  2651 ;;		On entry : 0/0
  2652 ;;		On exit  : 0/0
  2653 ;;		Unchanged: 0/0
  2654 ;; Data sizes:     COMRAM   BANK5   BANK6   BANK7   BANK8   BANK9  BANK10  BANK11  BANK12  BANK13  BANK14  BANK15  BANK1
      +6  BANK17  BANK18  BANK19  BANK20  BANK21  BANK22  BANK23  BANK24  BANK25  BANK26  BANK27  BANK28  BANK29  BANK30  BANK3
      +1  BANK32  BANK33  BANK34  BANK35  BANK36  BANK37  BANK38  BANK39  BANK40  BANK41  BANK42  BANK43  BANK44  BANK45  BANK4
      +6  BANK47  BANK48  BANK49  BANK50  BANK51  BANK52  BANK53  BANK54
  2655 ;;      Params:         0       0       0       0       0       0       0       0       0       0       0       0       
      +0       0       0       0       0       0       0       0       0       0       0       0       0       0       0       
      +0       0       0       0       0       0       0       0       0       0       0       0       0       0       0       
      +0       0       0       0       0       0       0       0       0
  2656 ;;      Locals:         0       0       0       0       0       0       0       0       0       0       0       0       
      +0       0       0       0       0       0       0       0       0       0       0       0       0       0       0       
      +0       0       0       0       0       0       0       0       0       0       0       0       0       0       0       
      +0       0       0       0       0       0       0       0       0
  2657 ;;      Temps:          0       0       0       0       0       0       0       0       0       0       0       0       
      +0       0       0       0       0       0       0       0       0       0       0       0       0       0       0       
      +0       0       0       0       0       0       0       0       0       0       0       0       0       0       0       
      +0       0       0       0       0       0       0       0       0
  2658 ;;      Totals:         0       0       0       0       0       0       0       0       0       0       0       0       
      +0       0       0       0       0       0       0       0       0       0       0       0       0       0       0       
      +0       0       0       0       0       0       0       0       0       0       0       0       0       0       0       
      +0       0       0       0       0       0       0       0       0
  2659 ;;Total ram usage:        0 bytes
  2660 ;; Hardware stack levels used: 1
  2661 ;; This function calls:
  2662 ;;		Nothing
  2663 ;; This function is called by:
  2664 ;;		_I2C1_DO_TX
  2665 ;;		_I2C1_DO_BUS_COLLISION
  2666 ;;		_I2C1_MasterFsm
  2667 ;; This function uses a non-reentrant model
  2668 ;;
  2669                           
  2670                           	psect	text25
  2671   004ED2                     __ptext25:
  2672                           	callstack 0
  2673   004ED2                     _I2C1_DO_SEND_RESTART_WRITE:
  2674                           	callstack 116
  2675   004ED2                     
  2676                           ;mcc_generated_files/i2c1_master.c: 515:     return I2C1_SEND_ADR_WRITE;
  2677   004ED2  0E02               	movlw	2
  2678   004ED4  0012               	return		;funcret
  2679   004ED6                     __end_of_I2C1_DO_SEND_RESTART_WRITE:
  2680                           	callstack 0
  2681                           
  2682 ;; *************** function _I2C1_DO_SEND_RESTART_READ *****************
  2683 ;; Defined at:
  2684 ;;		line 507 in file "mcc_generated_files/i2c1_master.c"
  2685 ;; Parameters:    Size  Location     Type
  2686 ;;		None
  2687 ;; Auto vars:     Size  Location     Type
  2688 ;;		None
  2689 ;; Return value:  Size  Location     Type
  2690 ;;                  1    wreg      enum E23261
  2691 ;; Registers used:
  2692 ;;		wreg, fsr2l, fsr2h, status,2, status,0, pcl, pclath, pclatu, tosl, prodl, prodh, cstack
  2693 ;; Tracked objects:
  2694 ;;		On entry : 0/0
  2695 ;;		On exit  : 0/0
  2696 ;;		Unchanged: 0/0
  2697 ;; Data sizes:     COMRAM   BANK5   BANK6   BANK7   BANK8   BANK9  BANK10  BANK11  BANK12  BANK13  BANK14  BANK15  BANK1
      +6  BANK17  BANK18  BANK19  BANK20  BANK21  BANK22  BANK23  BANK24  BANK25  BANK26  BANK27  BANK28  BANK29  BANK30  BANK3
      +1  BANK32  BANK33  BANK34  BANK35  BANK36  BANK37  BANK38  BANK39  BANK40  BANK41  BANK42  BANK43  BANK44  BANK45  BANK4
      +6  BANK47  BANK48  BANK49  BANK50  BANK51  BANK52  BANK53  BANK54
  2698 ;;      Params:         0       0       0       0       0       0       0       0       0       0       0       0       
      +0       0       0       0       0       0       0       0       0       0       0       0       0       0       0       
      +0       0       0       0       0       0       0       0       0       0       0       0       0       0       0       
      +0       0       0       0       0       0       0       0       0
  2699 ;;      Locals:         0       0       0       0       0       0       0       0       0       0       0       0       
      +0       0       0       0       0       0       0       0       0       0       0       0       0       0       0       
      +0       0       0       0       0       0       0       0       0       0       0       0       0       0       0       
      +0       0       0       0       0       0       0       0       0
  2700 ;;      Temps:          0       0       0       0       0       0       0       0       0       0       0       0       
      +0       0       0       0       0       0       0       0       0       0       0       0       0       0       0       
      +0       0       0       0       0       0       0       0       0       0       0       0       0       0       0       
      +0       0       0       0       0       0       0       0       0
  2701 ;;      Totals:         0       0       0       0       0       0       0       0       0       0       0       0       
      +0       0       0       0       0       0       0       0       0       0       0       0       0       0       0       
      +0       0       0       0       0       0       0       0       0       0       0       0       0       0       0       
      +0       0       0       0       0       0       0       0       0
  2702 ;;Total ram usage:        0 bytes
  2703 ;; Hardware stack levels used: 1
  2704 ;; Hardware stack levels required when called: 5
  2705 ;; This function calls:
  2706 ;;		_I2C1_DO_SEND_ADR_READ
  2707 ;;		_I2C1_MasterSetCounter
  2708 ;; This function is called by:
  2709 ;;		_I2C1_DO_TX
  2710 ;;		_I2C1_DO_BUS_COLLISION
  2711 ;;		_I2C1_MasterFsm
  2712 ;; This function uses a non-reentrant model
  2713 ;;
  2714                           
  2715                           	psect	text26
  2716   004E36                     __ptext26:
  2717                           	callstack 0
  2718   004E36                     _I2C1_DO_SEND_RESTART_READ:
  2719                           	callstack 111
  2720   004E36                     
  2721                           ;mcc_generated_files/i2c1_master.c: 509:     I2C1_MasterSetCounter((uint8_t) I2C1_Status
      +                          .data_length);
  2722   004E36  5026               	movf	(_I2C1_Status+37)^(0+1280),w,c
  2723   004E38  EC14  F027         	call	_I2C1_MasterSetCounter
  2724   004E3C                     
  2725                           ;mcc_generated_files/i2c1_master.c: 510:     return I2C1_DO_SEND_ADR_READ();
  2726   004E3C  ECE7  F025         	call	_I2C1_DO_SEND_ADR_READ	;wreg free
  2727   004E40  0012               	return		;funcret
  2728   004E42                     __end_of_I2C1_DO_SEND_RESTART_READ:
  2729                           	callstack 0
  2730                           
  2731 ;; *************** function _I2C1_DO_RX_EMPTY *****************
  2732 ;; Defined at:
  2733 ;;		line 482 in file "mcc_generated_files/i2c1_master.c"
  2734 ;; Parameters:    Size  Location     Type
  2735 ;;		None
  2736 ;; Auto vars:     Size  Location     Type
  2737 ;;		None
  2738 ;; Return value:  Size  Location     Type
  2739 ;;                  1    wreg      enum E23261
  2740 ;; Registers used:
  2741 ;;		wreg, fsr2l, fsr2h, status,2, status,0, pcl, pclath, pclatu, tosl, prodl, prodh, cstack
  2742 ;; Tracked objects:
  2743 ;;		On entry : 0/0
  2744 ;;		On exit  : 0/0
  2745 ;;		Unchanged: 0/0
  2746 ;; Data sizes:     COMRAM   BANK5   BANK6   BANK7   BANK8   BANK9  BANK10  BANK11  BANK12  BANK13  BANK14  BANK15  BANK1
      +6  BANK17  BANK18  BANK19  BANK20  BANK21  BANK22  BANK23  BANK24  BANK25  BANK26  BANK27  BANK28  BANK29  BANK30  BANK3
      +1  BANK32  BANK33  BANK34  BANK35  BANK36  BANK37  BANK38  BANK39  BANK40  BANK41  BANK42  BANK43  BANK44  BANK45  BANK4
      +6  BANK47  BANK48  BANK49  BANK50  BANK51  BANK52  BANK53  BANK54
  2747 ;;      Params:         0       0       0       0       0       0       0       0       0       0       0       0       
      +0       0       0       0       0       0       0       0       0       0       0       0       0       0       0       
      +0       0       0       0       0       0       0       0       0       0       0       0       0       0       0       
      +0       0       0       0       0       0       0       0       0
  2748 ;;      Locals:         0       0       0       0       0       0       0       0       0       0       0       0       
      +0       0       0       0       0       0       0       0       0       0       0       0       0       0       0       
      +0       0       0       0       0       0       0       0       0       0       0       0       0       0       0       
      +0       0       0       0       0       0       0       0       0
  2749 ;;      Temps:          2       0       0       0       0       0       0       0       0       0       0       0       
      +0       0       0       0       0       0       0       0       0       0       0       0       0       0       0       
      +0       0       0       0       0       0       0       0       0       0       0       0       0       0       0       
      +0       0       0       0       0       0       0       0       0
  2750 ;;      Totals:         2       0       0       0       0       0       0       0       0       0       0       0       
      +0       0       0       0       0       0       0       0       0       0       0       0       0       0       0       
      +0       0       0       0       0       0       0       0       0       0       0       0       0       0       0       
      +0       0       0       0       0       0       0       0       0
  2751 ;;Total ram usage:        2 bytes
  2752 ;; Hardware stack levels used: 1
  2753 ;; Hardware stack levels required when called: 3
  2754 ;; This function calls:
  2755 ;;		Absolute function
  2756 ;;		_I2C1_CallbackReturnReset
  2757 ;;		_I2C1_CallbackReturnStop
  2758 ;;		_I2C1_MasterDisableRestart
  2759 ;;		_I2C1_MasterEnableRestart
  2760 ;;		_I2C1_MasterSetCounter
  2761 ;;		_rd1RegCompleteHandler
  2762 ;;		_rd1RegCompleteHandler@i2c1_master_example$F145
  2763 ;;		_rd2RegCompleteHandler
  2764 ;;		_rd2RegCompleteHandler@i2c1_master_example$F156
  2765 ;;		_rdBlkRegCompleteHandler
  2766 ;;		_rdBlkRegCompleteHandler@i2c1_master_example$F179
  2767 ;;		_wr1RegCompleteHandler
  2768 ;;		_wr1RegCompleteHandler@i2c1_master_example$F162
  2769 ;;		_wr2RegCompleteHandler
  2770 ;;		_wr2RegCompleteHandler@i2c1_master_example$F168
  2771 ;; This function is called by:
  2772 ;;		_I2C1_DO_SEND_ADR_READ
  2773 ;;		_I2C1_DO_RX
  2774 ;;		_I2C1_MasterFsm
  2775 ;; This function uses a non-reentrant model
  2776 ;;
  2777                           
  2778                           	psect	text27
  2779   004202                     __ptext27:
  2780                           	callstack 0
  2781   004202                     _I2C1_DO_RX_EMPTY:
  2782                           	callstack 111
  2783   004202                     
  2784                           ;mcc_generated_files/i2c1_master.c: 484:     I2C1_Status.bufferFree = 1;
  2785   004202  882A               	bsf	(_I2C1_Status+41)^(0+1280),4,c
  2786                           
  2787                           ;mcc_generated_files/i2c1_master.c: 485:     switch(I2C1_Status.callbackTable[I2C1_DATA_
      +                          COMPLETE](I2C1_Status.callbackPayload[I2C1_DATA_COMPLETE]))
  2788   004204  EF22  F021         	goto	l2732
  2789   004208                     l2704:
  2790                           
  2791                           ;mcc_generated_files/i2c1_master.c: 488:             I2C1_MasterEnableRestart();
  2792   004208  EC58  F027         	call	_I2C1_MasterEnableRestart	;wreg free
  2793   00420C                     
  2794                           ;mcc_generated_files/i2c1_master.c: 489:             return I2C1_SEND_RESTART_WRITE;
  2795   00420C  0E08               	movlw	8
  2796   00420E  EF4F  F021         	goto	l461
  2797   004212                     l2710:
  2798                           
  2799                           ;mcc_generated_files/i2c1_master.c: 491:             I2C1_MasterEnableRestart();
  2800   004212  EC58  F027         	call	_I2C1_MasterEnableRestart	;wreg free
  2801   004216                     
  2802                           ;mcc_generated_files/i2c1_master.c: 492:             return I2C1_SEND_RESTART_READ;
  2803   004216  0E07               	movlw	7
  2804   004218  EF4F  F021         	goto	l461
  2805   00421C                     l2716:
  2806                           
  2807                           ;mcc_generated_files/i2c1_master.c: 495:             I2C1_MasterSetCounter((uint8_t) (I2
      +                          C1_Status.data_length + 1));
  2808   00421C  2826               	incf	(_I2C1_Status+37)^(0+1280),w,c
  2809   00421E  EC14  F027         	call	_I2C1_MasterSetCounter
  2810   004222                     
  2811                           ;mcc_generated_files/i2c1_master.c: 496:             return I2C1_RX;
  2812   004222  0E04               	movlw	4
  2813   004224  EF4F  F021         	goto	l461
  2814   004228                     l2722:
  2815                           
  2816                           ;mcc_generated_files/i2c1_master.c: 499:             if(I2C1_Status.state != I2C1_SEND_R
      +                          ESTART_READ)
  2817   004228  0E07               	movlw	7
  2818   00422A  1828               	xorwf	(_I2C1_Status+39)^(0+1280),w,c
  2819   00422C  B4D8               	btfsc	status,2,c
  2820   00422E  EF1B  F021         	goto	u791
  2821   004232  EF1D  F021         	goto	u790
  2822   004236                     u791:
  2823   004236  EF1F  F021         	goto	l2726
  2824   00423A                     u790:
  2825   00423A                     
  2826                           ;mcc_generated_files/i2c1_master.c: 500:             {;mcc_generated_files/i2c1_master.c
      +                          : 501:                 I2C1_MasterDisableRestart();
  2827   00423A  EC5B  F027         	call	_I2C1_MasterDisableRestart	;wreg free
  2828   00423E                     l2726:
  2829                           
  2830                           ;mcc_generated_files/i2c1_master.c: 503:             return I2C1_RESET;
  2831   00423E  0E0F               	movlw	15
  2832   004240  EF4F  F021         	goto	l461
  2833   004244                     l2732:
  2834   004244  C513  F537         	movff	_I2C1_Status+18,I2C1_CallbackReturnReset@funPtr
  2835   004248  C514  F538         	movff	_I2C1_Status+19,I2C1_CallbackReturnReset@funPtr+1
  2836   00424C  D802               	call	u808
  2837   00424E  EF33  F021         	goto	u809
  2838   004252                     u808:
  2839   004252  0005               	push	
  2840   004254  6EFA               	movwf	pclath,c
  2841   004256  5001               	movf	_I2C1_Status^(0+1280),w,c
  2842   004258  6EFD               	movwf	tosl,c
  2843   00425A  5002               	movf	(_I2C1_Status+1)^(0+1280),w,c
  2844   00425C  6EFE               	movwf	tosh,c
  2845   00425E  5003               	movf	(_I2C1_Status+2)^(0+1280),w,c
  2846   004260  6EFF               	movwf	tosu,c
  2847   004262  50FA               	movf	pclath,w,c
  2848   004264  0012               	return		;indir
  2849   004266                     u809:
  2850   004266  6E39               	movwf	??_I2C1_DO_RX_EMPTY^(0+1280),c
  2851   004268  6A3A               	clrf	(??_I2C1_DO_RX_EMPTY+1)^(0+1280),c
  2852                           
  2853                           ; Switch on 2 bytes has been partitioned into a top level switch of size 1, and 1 sub-sw
      +                          itches
  2854                           ; Switch size 1, requested type "simple"
  2855                           ; Number of cases is 1, Range of values is 0 to 0
  2856                           ; switch strategies available:
  2857                           ; Name         Instructions Cycles
  2858                           ; simple_byte            4     3 (average)
  2859                           ;	Chosen strategy is simple_byte
  2860   00426A  503A               	movf	(??_I2C1_DO_RX_EMPTY+1)^(0+1280),w,c
  2861   00426C  0A00               	xorlw	0	; case 0
  2862   00426E  B4D8               	btfsc	status,2,c
  2863   004270  EF3C  F021         	goto	l3462
  2864   004274  EF14  F021         	goto	l2722
  2865   004278                     l3462:
  2866                           
  2867                           ; Switch size 1, requested type "simple"
  2868                           ; Number of cases is 4, Range of values is 1 to 4
  2869                           ; switch strategies available:
  2870                           ; Name         Instructions Cycles
  2871                           ; simple_byte           13     7 (average)
  2872                           ;	Chosen strategy is simple_byte
  2873   004278  5039               	movf	??_I2C1_DO_RX_EMPTY^(0+1280),w,c
  2874   00427A  0A01               	xorlw	1	; case 1
  2875   00427C  B4D8               	btfsc	status,2,c
  2876   00427E  EF14  F021         	goto	l2722
  2877   004282  0A03               	xorlw	3	; case 2
  2878   004284  B4D8               	btfsc	status,2,c
  2879   004286  EF09  F021         	goto	l2710
  2880   00428A  0A01               	xorlw	1	; case 3
  2881   00428C  B4D8               	btfsc	status,2,c
  2882   00428E  EF04  F021         	goto	l2704
  2883   004292  0A07               	xorlw	7	; case 4
  2884   004294  B4D8               	btfsc	status,2,c
  2885   004296  EF0E  F021         	goto	l2716
  2886   00429A  EF14  F021         	goto	l2722
  2887   00429E                     l461:
  2888   00429E  0012               	return		;funcret
  2889   0042A0                     __end_of_I2C1_DO_RX_EMPTY:
  2890                           	callstack 0
  2891                           
  2892 ;; *************** function _I2C1_DO_TX_EMPTY *****************
  2893 ;; Defined at:
  2894 ;;		line 463 in file "mcc_generated_files/i2c1_master.c"
  2895 ;; Parameters:    Size  Location     Type
  2896 ;;		None
  2897 ;; Auto vars:     Size  Location     Type
  2898 ;;		None
  2899 ;; Return value:  Size  Location     Type
  2900 ;;                  1    wreg      enum E23261
  2901 ;; Registers used:
  2902 ;;		wreg, fsr2l, fsr2h, status,2, status,0, pcl, pclath, pclatu, tosl, prodl, prodh, cstack
  2903 ;; Tracked objects:
  2904 ;;		On entry : 0/0
  2905 ;;		On exit  : 0/0
  2906 ;;		Unchanged: 0/0
  2907 ;; Data sizes:     COMRAM   BANK5   BANK6   BANK7   BANK8   BANK9  BANK10  BANK11  BANK12  BANK13  BANK14  BANK15  BANK1
      +6  BANK17  BANK18  BANK19  BANK20  BANK21  BANK22  BANK23  BANK24  BANK25  BANK26  BANK27  BANK28  BANK29  BANK30  BANK3
      +1  BANK32  BANK33  BANK34  BANK35  BANK36  BANK37  BANK38  BANK39  BANK40  BANK41  BANK42  BANK43  BANK44  BANK45  BANK4
      +6  BANK47  BANK48  BANK49  BANK50  BANK51  BANK52  BANK53  BANK54
  2908 ;;      Params:         0       0       0       0       0       0       0       0       0       0       0       0       
      +0       0       0       0       0       0       0       0       0       0       0       0       0       0       0       
      +0       0       0       0       0       0       0       0       0       0       0       0       0       0       0       
      +0       0       0       0       0       0       0       0       0
  2909 ;;      Locals:         0       0       0       0       0       0       0       0       0       0       0       0       
      +0       0       0       0       0       0       0       0       0       0       0       0       0       0       0       
      +0       0       0       0       0       0       0       0       0       0       0       0       0       0       0       
      +0       0       0       0       0       0       0       0       0
  2910 ;;      Temps:          2       0       0       0       0       0       0       0       0       0       0       0       
      +0       0       0       0       0       0       0       0       0       0       0       0       0       0       0       
      +0       0       0       0       0       0       0       0       0       0       0       0       0       0       0       
      +0       0       0       0       0       0       0       0       0
  2911 ;;      Totals:         2       0       0       0       0       0       0       0       0       0       0       0       
      +0       0       0       0       0       0       0       0       0       0       0       0       0       0       0       
      +0       0       0       0       0       0       0       0       0       0       0       0       0       0       0       
      +0       0       0       0       0       0       0       0       0
  2912 ;;Total ram usage:        2 bytes
  2913 ;; Hardware stack levels used: 1
  2914 ;; Hardware stack levels required when called: 3
  2915 ;; This function calls:
  2916 ;;		Absolute function
  2917 ;;		_I2C1_CallbackReturnReset
  2918 ;;		_I2C1_CallbackReturnStop
  2919 ;;		_I2C1_MasterDisableRestart
  2920 ;;		_I2C1_MasterEnableRestart
  2921 ;;		_I2C1_MasterSetCounter
  2922 ;;		_rd1RegCompleteHandler
  2923 ;;		_rd1RegCompleteHandler@i2c1_master_example$F145
  2924 ;;		_rd2RegCompleteHandler
  2925 ;;		_rd2RegCompleteHandler@i2c1_master_example$F156
  2926 ;;		_rdBlkRegCompleteHandler
  2927 ;;		_rdBlkRegCompleteHandler@i2c1_master_example$F179
  2928 ;;		_wr1RegCompleteHandler
  2929 ;;		_wr1RegCompleteHandler@i2c1_master_example$F162
  2930 ;;		_wr2RegCompleteHandler
  2931 ;;		_wr2RegCompleteHandler@i2c1_master_example$F168
  2932 ;; This function is called by:
  2933 ;;		_I2C1_DO_TX
  2934 ;;		_I2C1_MasterFsm
  2935 ;; This function uses a non-reentrant model
  2936 ;;
  2937                           
  2938                           	psect	text28
  2939   00454C                     __ptext28:
  2940                           	callstack 0
  2941   00454C                     _I2C1_DO_TX_EMPTY:
  2942                           	callstack 114
  2943   00454C                     
  2944                           ;mcc_generated_files/i2c1_master.c: 465:     I2C1_Status.bufferFree = 1;
  2945   00454C  882A               	bsf	(_I2C1_Status+41)^(0+1280),4,c
  2946                           
  2947                           ;mcc_generated_files/i2c1_master.c: 466:     switch(I2C1_Status.callbackTable[I2C1_DATA_
      +                          COMPLETE](I2C1_Status.callbackPayload[I2C1_DATA_COMPLETE]))
  2948   00454E  EFB9  F022         	goto	l2792
  2949   004552                     l2772:
  2950                           
  2951                           ;mcc_generated_files/i2c1_master.c: 469:             I2C1_MasterEnableRestart();
  2952   004552  EC58  F027         	call	_I2C1_MasterEnableRestart	;wreg free
  2953   004556                     
  2954                           ;mcc_generated_files/i2c1_master.c: 470:             return I2C1_SEND_RESTART_READ;
  2955   004556  0E07               	movlw	7
  2956   004558  EFE2  F022         	goto	l452
  2957   00455C                     l2778:
  2958                           
  2959                           ;mcc_generated_files/i2c1_master.c: 473:             I2C1_MasterSetCounter((uint8_t) I2C
      +                          1_Status.data_length + 1);
  2960   00455C  2826               	incf	(_I2C1_Status+37)^(0+1280),w,c
  2961   00455E  EC14  F027         	call	_I2C1_MasterSetCounter
  2962   004562                     
  2963                           ;mcc_generated_files/i2c1_master.c: 474:             return I2C1_TX;
  2964   004562  0E03               	movlw	3
  2965   004564  EFE2  F022         	goto	l452
  2966   004568                     l2784:
  2967                           
  2968                           ;mcc_generated_files/i2c1_master.c: 477:             I2C1_MasterDisableRestart();
  2969   004568  EC5B  F027         	call	_I2C1_MasterDisableRestart	;wreg free
  2970   00456C                     
  2971                           ;mcc_generated_files/i2c1_master.c: 478:             return I2C1_SEND_STOP;
  2972   00456C  0E0A               	movlw	10
  2973   00456E  EFE2  F022         	goto	l452
  2974   004572                     l2792:
  2975   004572  C513  F537         	movff	_I2C1_Status+18,I2C1_CallbackReturnReset@funPtr
  2976   004576  C514  F538         	movff	_I2C1_Status+19,I2C1_CallbackReturnReset@funPtr+1
  2977   00457A  D802               	call	u848
  2978   00457C  EFCA  F022         	goto	u849
  2979   004580                     u848:
  2980   004580  0005               	push	
  2981   004582  6EFA               	movwf	pclath,c
  2982   004584  5001               	movf	_I2C1_Status^(0+1280),w,c
  2983   004586  6EFD               	movwf	tosl,c
  2984   004588  5002               	movf	(_I2C1_Status+1)^(0+1280),w,c
  2985   00458A  6EFE               	movwf	tosh,c
  2986   00458C  5003               	movf	(_I2C1_Status+2)^(0+1280),w,c
  2987   00458E  6EFF               	movwf	tosu,c
  2988   004590  50FA               	movf	pclath,w,c
  2989   004592  0012               	return		;indir
  2990   004594                     u849:
  2991   004594  6E39               	movwf	??_I2C1_DO_TX_EMPTY^(0+1280),c
  2992   004596  6A3A               	clrf	(??_I2C1_DO_TX_EMPTY+1)^(0+1280),c
  2993                           
  2994                           ; Switch on 2 bytes has been partitioned into a top level switch of size 1, and 1 sub-sw
      +                          itches
  2995                           ; Switch size 1, requested type "simple"
  2996                           ; Number of cases is 1, Range of values is 0 to 0
  2997                           ; switch strategies available:
  2998                           ; Name         Instructions Cycles
  2999                           ; simple_byte            4     3 (average)
  3000                           ;	Chosen strategy is simple_byte
  3001   004598  503A               	movf	(??_I2C1_DO_TX_EMPTY+1)^(0+1280),w,c
  3002   00459A  0A00               	xorlw	0	; case 0
  3003   00459C  B4D8               	btfsc	status,2,c
  3004   00459E  EFD3  F022         	goto	l3464
  3005   0045A2  EFB4  F022         	goto	l2784
  3006   0045A6                     l3464:
  3007                           
  3008                           ; Switch size 1, requested type "simple"
  3009                           ; Number of cases is 3, Range of values is 1 to 4
  3010                           ; switch strategies available:
  3011                           ; Name         Instructions Cycles
  3012                           ; simple_byte           10     6 (average)
  3013                           ;	Chosen strategy is simple_byte
  3014   0045A6  5039               	movf	??_I2C1_DO_TX_EMPTY^(0+1280),w,c
  3015   0045A8  0A01               	xorlw	1	; case 1
  3016   0045AA  B4D8               	btfsc	status,2,c
  3017   0045AC  EFB4  F022         	goto	l2784
  3018   0045B0  0A03               	xorlw	3	; case 2
  3019   0045B2  B4D8               	btfsc	status,2,c
  3020   0045B4  EFA9  F022         	goto	l2772
  3021   0045B8  0A06               	xorlw	6	; case 4
  3022   0045BA  B4D8               	btfsc	status,2,c
  3023   0045BC  EFAE  F022         	goto	l2778
  3024   0045C0  EFB4  F022         	goto	l2784
  3025   0045C4                     l452:
  3026   0045C4  0012               	return		;funcret
  3027   0045C6                     __end_of_I2C1_DO_TX_EMPTY:
  3028                           	callstack 0
  3029                           
  3030 ;; *************** function _I2C1_DO_RX *****************
  3031 ;; Defined at:
  3032 ;;		line 439 in file "mcc_generated_files/i2c1_master.c"
  3033 ;; Parameters:    Size  Location     Type
  3034 ;;		None
  3035 ;; Auto vars:     Size  Location     Type
  3036 ;;  retFsmState     1   17[COMRAM] enum E23261
  3037 ;; Return value:  Size  Location     Type
  3038 ;;                  1    wreg      enum E23261
  3039 ;; Registers used:
  3040 ;;		wreg, fsr2l, fsr2h, status,2, status,0, pcl, pclath, pclatu, tosl, prodl, prodh, cstack
  3041 ;; Tracked objects:
  3042 ;;		On entry : 0/0
  3043 ;;		On exit  : 0/0
  3044 ;;		Unchanged: 0/0
  3045 ;; Data sizes:     COMRAM   BANK5   BANK6   BANK7   BANK8   BANK9  BANK10  BANK11  BANK12  BANK13  BANK14  BANK15  BANK1
      +6  BANK17  BANK18  BANK19  BANK20  BANK21  BANK22  BANK23  BANK24  BANK25  BANK26  BANK27  BANK28  BANK29  BANK30  BANK3
      +1  BANK32  BANK33  BANK34  BANK35  BANK36  BANK37  BANK38  BANK39  BANK40  BANK41  BANK42  BANK43  BANK44  BANK45  BANK4
      +6  BANK47  BANK48  BANK49  BANK50  BANK51  BANK52  BANK53  BANK54
  3046 ;;      Params:         0       0       0       0       0       0       0       0       0       0       0       0       
      +0       0       0       0       0       0       0       0       0       0       0       0       0       0       0       
      +0       0       0       0       0       0       0       0       0       0       0       0       0       0       0       
      +0       0       0       0       0       0       0       0       0
  3047 ;;      Locals:         1       0       0       0       0       0       0       0       0       0       0       0       
      +0       0       0       0       0       0       0       0       0       0       0       0       0       0       0       
      +0       0       0       0       0       0       0       0       0       0       0       0       0       0       0       
      +0       0       0       0       0       0       0       0       0
  3048 ;;      Temps:          2       0       0       0       0       0       0       0       0       0       0       0       
      +0       0       0       0       0       0       0       0       0       0       0       0       0       0       0       
      +0       0       0       0       0       0       0       0       0       0       0       0       0       0       0       
      +0       0       0       0       0       0       0       0       0
  3049 ;;      Totals:         3       0       0       0       0       0       0       0       0       0       0       0       
      +0       0       0       0       0       0       0       0       0       0       0       0       0       0       0       
      +0       0       0       0       0       0       0       0       0       0       0       0       0       0       0       
      +0       0       0       0       0       0       0       0       0
  3050 ;;Total ram usage:        3 bytes
  3051 ;; Hardware stack levels used: 1
  3052 ;; Hardware stack levels required when called: 4
  3053 ;; This function calls:
  3054 ;;		_I2C1_DO_RX_EMPTY
  3055 ;;		_I2C1_MasterGetRxData
  3056 ;;		_I2C1_MasterIsRxBufFull
  3057 ;; This function is called by:
  3058 ;;		_I2C1_MasterFsm
  3059 ;; This function uses a non-reentrant model
  3060 ;;
  3061                           
  3062                           	psect	text29
  3063   00433E                     __ptext29:
  3064                           	callstack 0
  3065   00433E                     _I2C1_DO_RX:
  3066                           	callstack 113
  3067   00433E                     
  3068                           ;mcc_generated_files/i2c1_master.c: 441:     if(!I2C1_MasterIsRxBufFull())
  3069   00433E  ECB6  F026         	call	_I2C1_MasterIsRxBufFull	;wreg free
  3070   004342  0900               	iorlw	0
  3071   004344  A4D8               	btfss	status,2,c
  3072   004346  EFA7  F021         	goto	u901
  3073   00434A  EFA9  F021         	goto	u900
  3074   00434E                     u901:
  3075   00434E  EFAC  F021         	goto	l2866
  3076   004352                     u900:
  3077   004352                     l2862:
  3078                           
  3079                           ;mcc_generated_files/i2c1_master.c: 442:     {;mcc_generated_files/i2c1_master.c: 443:  
      +                                 return I2C1_RX;
  3080   004352  0E04               	movlw	4
  3081   004354  EFE6  F021         	goto	l444
  3082   004358                     l2866:
  3083                           
  3084                           ;mcc_generated_files/i2c1_master.c: 445:     if(I2C1_Status.addressNackCheck)
  3085   004358  502A               	movf	(_I2C1_Status+41)^(0+1280),w,c
  3086   00435A  0B03               	andlw	3
  3087   00435C  0900               	iorlw	0
  3088   00435E  B4D8               	btfsc	status,2,c
  3089   004360  EFB4  F021         	goto	u911
  3090   004364  EFB6  F021         	goto	u910
  3091   004368                     u911:
  3092   004368  EFC2  F021         	goto	l445
  3093   00436C                     u910:
  3094   00436C                     
  3095                           ;mcc_generated_files/i2c1_master.c: 446:     {;mcc_generated_files/i2c1_master.c: 447:  
      +                                 I2C1_Status.addressNackCheck--;
  3096   00436C  0E01               	movlw	1
  3097   00436E  6E3B               	movwf	??_I2C1_DO_RX^(0+1280),c
  3098   004370  502A               	movf	(_I2C1_Status+41)^(0+1280),w,c
  3099   004372  0B03               	andlw	3
  3100   004374  6E3C               	movwf	(??_I2C1_DO_RX+1)^(0+1280),c
  3101   004376  503B               	movf	??_I2C1_DO_RX^(0+1280),w,c
  3102   004378  5E3C               	subwf	(??_I2C1_DO_RX+1)^(0+1280),f,c
  3103   00437A  502A               	movf	(_I2C1_Status+41)^(0+1280),w,c
  3104   00437C  183C               	xorwf	(??_I2C1_DO_RX+1)^(0+1280),w,c
  3105   00437E  0BFC               	andlw	-4
  3106   004380  183C               	xorwf	(??_I2C1_DO_RX+1)^(0+1280),w,c
  3107   004382  6E2A               	movwf	(_I2C1_Status+41)^(0+1280),c
  3108   004384                     l445:
  3109                           
  3110                           ;mcc_generated_files/i2c1_master.c: 450:     if(--I2C1_Status.data_length)
  3111   004384  0626               	decf	(_I2C1_Status+37)^(0+1280),f,c
  3112   004386  A0D8               	btfss	status,0,c
  3113   004388  0627               	decf	(_I2C1_Status+38)^(0+1280),f,c
  3114   00438A  5026               	movf	(_I2C1_Status+37)^(0+1280),w,c
  3115   00438C  1027               	iorwf	(_I2C1_Status+38)^(0+1280),w,c
  3116   00438E  B4D8               	btfsc	status,2,c
  3117   004390  EFCC  F021         	goto	u921
  3118   004394  EFCE  F021         	goto	u920
  3119   004398                     u921:
  3120   004398  EFD9  F021         	goto	l2880
  3121   00439C                     u920:
  3122   00439C                     
  3123                           ;mcc_generated_files/i2c1_master.c: 451:     {;mcc_generated_files/i2c1_master.c: 452:  
      +                                 *I2C1_Status.data_ptr++ = I2C1_MasterGetRxData();
  3124   00439C  EC55  F027         	call	_I2C1_MasterGetRxData	;wreg free
  3125   0043A0  C524  F4D9         	movff	_I2C1_Status+35,fsr2l
  3126   0043A4  C525  F4DA         	movff	_I2C1_Status+36,fsr2h
  3127   0043A8  6EDF               	movwf	indf2,c
  3128   0043AA  4A24               	infsnz	(_I2C1_Status+35)^(0+1280),f,c
  3129   0043AC  2A25               	incf	(_I2C1_Status+36)^(0+1280),f,c
  3130   0043AE  EFA9  F021         	goto	l2862
  3131   0043B2                     l2880:
  3132                           
  3133                           ;mcc_generated_files/i2c1_master.c: 456:     {;mcc_generated_files/i2c1_master.c: 457:  
      +                                 i2c1_fsm_states_t retFsmState = I2C1_DO_RX_EMPTY();
  3134   0043B2  EC01  F021         	call	_I2C1_DO_RX_EMPTY	;wreg free
  3135   0043B6  6E3D               	movwf	I2C1_DO_RX@retFsmState^(0+1280),c
  3136   0043B8                     
  3137                           ;mcc_generated_files/i2c1_master.c: 458:         *I2C1_Status.data_ptr++ = I2C1_MasterGe
      +                          tRxData();
  3138   0043B8  EC55  F027         	call	_I2C1_MasterGetRxData	;wreg free
  3139   0043BC  C524  F4D9         	movff	_I2C1_Status+35,fsr2l
  3140   0043C0  C525  F4DA         	movff	_I2C1_Status+36,fsr2h
  3141   0043C4  6EDF               	movwf	indf2,c
  3142   0043C6  4A24               	infsnz	(_I2C1_Status+35)^(0+1280),f,c
  3143   0043C8  2A25               	incf	(_I2C1_Status+36)^(0+1280),f,c
  3144   0043CA                     
  3145                           ;mcc_generated_files/i2c1_master.c: 459:         return retFsmState;
  3146   0043CA  503D               	movf	I2C1_DO_RX@retFsmState^(0+1280),w,c
  3147   0043CC                     l444:
  3148   0043CC  0012               	return		;funcret
  3149   0043CE                     __end_of_I2C1_DO_RX:
  3150                           	callstack 0
  3151                           
  3152 ;; *************** function _I2C1_DO_TX *****************
  3153 ;; Defined at:
  3154 ;;		line 406 in file "mcc_generated_files/i2c1_master.c"
  3155 ;; Parameters:    Size  Location     Type
  3156 ;;		None
  3157 ;; Auto vars:     Size  Location     Type
  3158 ;;  retFsmState     1   18[COMRAM] enum E23261
  3159 ;;  dataTx          1   17[COMRAM] unsigned char 
  3160 ;; Return value:  Size  Location     Type
  3161 ;;                  1    wreg      enum E23261
  3162 ;; Registers used:
  3163 ;;		wreg, fsr2l, fsr2h, status,2, status,0, pcl, pclath, pclatu, tosl, prodl, prodh, cstack
  3164 ;; Tracked objects:
  3165 ;;		On entry : 0/0
  3166 ;;		On exit  : 0/0
  3167 ;;		Unchanged: 0/0
  3168 ;; Data sizes:     COMRAM   BANK5   BANK6   BANK7   BANK8   BANK9  BANK10  BANK11  BANK12  BANK13  BANK14  BANK15  BANK1
      +6  BANK17  BANK18  BANK19  BANK20  BANK21  BANK22  BANK23  BANK24  BANK25  BANK26  BANK27  BANK28  BANK29  BANK30  BANK3
      +1  BANK32  BANK33  BANK34  BANK35  BANK36  BANK37  BANK38  BANK39  BANK40  BANK41  BANK42  BANK43  BANK44  BANK45  BANK4
      +6  BANK47  BANK48  BANK49  BANK50  BANK51  BANK52  BANK53  BANK54
  3169 ;;      Params:         0       0       0       0       0       0       0       0       0       0       0       0       
      +0       0       0       0       0       0       0       0       0       0       0       0       0       0       0       
      +0       0       0       0       0       0       0       0       0       0       0       0       0       0       0       
      +0       0       0       0       0       0       0       0       0
  3170 ;;      Locals:         4       0       0       0       0       0       0       0       0       0       0       0       
      +0       0       0       0       0       0       0       0       0       0       0       0       0       0       0       
      +0       0       0       0       0       0       0       0       0       0       0       0       0       0       0       
      +0       0       0       0       0       0       0       0       0
  3171 ;;      Temps:          2       0       0       0       0       0       0       0       0       0       0       0       
      +0       0       0       0       0       0       0       0       0       0       0       0       0       0       0       
      +0       0       0       0       0       0       0       0       0       0       0       0       0       0       0       
      +0       0       0       0       0       0       0       0       0
  3172 ;;      Totals:         6       0       0       0       0       0       0       0       0       0       0       0       
      +0       0       0       0       0       0       0       0       0       0       0       0       0       0       0       
      +0       0       0       0       0       0       0       0       0       0       0       0       0       0       0       
      +0       0       0       0       0       0       0       0       0
  3173 ;;Total ram usage:        6 bytes
  3174 ;; Hardware stack levels used: 1
  3175 ;; Hardware stack levels required when called: 6
  3176 ;; This function calls:
  3177 ;;		Absolute function
  3178 ;;		_I2C1_CallbackReturnReset
  3179 ;;		_I2C1_CallbackReturnStop
  3180 ;;		_I2C1_DO_SEND_RESTART_READ
  3181 ;;		_I2C1_DO_SEND_RESTART_WRITE
  3182 ;;		_I2C1_DO_TX_EMPTY
  3183 ;;		_I2C1_MasterIsNack
  3184 ;;		_I2C1_MasterIsTxBufEmpty
  3185 ;;		_I2C1_MasterSendTxData
  3186 ;;		_rd1RegCompleteHandler
  3187 ;;		_rd1RegCompleteHandler@i2c1_master_example$F145
  3188 ;;		_rd2RegCompleteHandler
  3189 ;;		_rd2RegCompleteHandler@i2c1_master_example$F156
  3190 ;;		_rdBlkRegCompleteHandler
  3191 ;;		_rdBlkRegCompleteHandler@i2c1_master_example$F179
  3192 ;;		_wr1RegCompleteHandler
  3193 ;;		_wr1RegCompleteHandler@i2c1_master_example$F162
  3194 ;;		_wr2RegCompleteHandler
  3195 ;;		_wr2RegCompleteHandler@i2c1_master_example$F168
  3196 ;; This function is called by:
  3197 ;;		_I2C1_MasterFsm
  3198 ;; This function uses a non-reentrant model
  3199 ;;
  3200                           
  3201                           	psect	text30
  3202   004040                     __ptext30:
  3203                           	callstack 0
  3204   004040                     _I2C1_DO_TX:
  3205                           	callstack 111
  3206   004040                     
  3207                           ;mcc_generated_files/i2c1_master.c: 408:     if(I2C1_MasterIsNack())
  3208   004040  ECAB  F026         	call	_I2C1_MasterIsNack	;wreg free
  3209   004044  0900               	iorlw	0
  3210   004046  B4D8               	btfsc	status,2,c
  3211   004048  EF28  F020         	goto	u851
  3212   00404C  EF2A  F020         	goto	u850
  3213   004050                     u851:
  3214   004050  EF66  F020         	goto	l2826
  3215   004054                     u850:
  3216   004054  EF37  F020         	goto	l2824
  3217   004058                     l2810:
  3218                           
  3219                           ;mcc_generated_files/i2c1_master.c: 413:                 return I2C1_DO_SEND_RESTART_REA
      +                          D();
  3220   004058  EC1B  F027         	call	_I2C1_DO_SEND_RESTART_READ	;wreg free
  3221   00405C  EFAF  F020         	goto	l427
  3222   004060                     l2814:
  3223                           
  3224                           ;mcc_generated_files/i2c1_master.c: 415:                   return I2C1_DO_SEND_RESTART_W
      +                          RITE();
  3225   004060  EC69  F027         	call	_I2C1_DO_SEND_RESTART_WRITE	;wreg free
  3226   004064  EFAF  F020         	goto	l427
  3227   004068                     l2818:
  3228                           
  3229                           ;mcc_generated_files/i2c1_master.c: 419:                 return I2C1_IDLE;
  3230   004068  0E00               	movlw	0
  3231   00406A  EFAF  F020         	goto	l427
  3232   00406E                     l2824:
  3233   00406E  C519  F537         	movff	_I2C1_Status+24,I2C1_CallbackReturnReset@funPtr
  3234   004072  C51A  F538         	movff	_I2C1_Status+25,I2C1_CallbackReturnReset@funPtr+1
  3235   004076  EE21  F10A         	lfsr	2,_I2C1_Status+9
  3236   00407A  D802               	call	u868
  3237   00407C  EF4A  F020         	goto	u869
  3238   004080                     u868:
  3239   004080  0005               	push	
  3240   004082  6EFA               	movwf	pclath,c
  3241   004084  50DE               	movf	postinc2,w,c
  3242   004086  6EFD               	movwf	tosl,c
  3243   004088  50DE               	movf	postinc2,w,c
  3244   00408A  6EFE               	movwf	tosh,c
  3245   00408C  50DE               	movf	postinc2,w,c
  3246   00408E  6EFF               	movwf	tosu,c
  3247   004090  50FA               	movf	pclath,w,c
  3248   004092  0012               	return		;indir
  3249   004094                     u869:
  3250   004094  6E39               	movwf	??_I2C1_DO_TX^(0+1280),c
  3251   004096  6A3A               	clrf	(??_I2C1_DO_TX+1)^(0+1280),c
  3252                           
  3253                           ; Switch on 2 bytes has been partitioned into a top level switch of size 1, and 1 sub-sw
      +                          itches
  3254                           ; Switch size 1, requested type "simple"
  3255                           ; Number of cases is 1, Range of values is 0 to 0
  3256                           ; switch strategies available:
  3257                           ; Name         Instructions Cycles
  3258                           ; simple_byte            4     3 (average)
  3259                           ;	Chosen strategy is simple_byte
  3260   004098  503A               	movf	(??_I2C1_DO_TX+1)^(0+1280),w,c
  3261   00409A  0A00               	xorlw	0	; case 0
  3262   00409C  B4D8               	btfsc	status,2,c
  3263   00409E  EF53  F020         	goto	l3466
  3264   0040A2  EF34  F020         	goto	l2818
  3265   0040A6                     l3466:
  3266                           
  3267                           ; Switch size 1, requested type "simple"
  3268                           ; Number of cases is 4, Range of values is 1 to 4
  3269                           ; switch strategies available:
  3270                           ; Name         Instructions Cycles
  3271                           ; simple_byte           13     7 (average)
  3272                           ;	Chosen strategy is simple_byte
  3273   0040A6  5039               	movf	??_I2C1_DO_TX^(0+1280),w,c
  3274   0040A8  0A01               	xorlw	1	; case 1
  3275   0040AA  B4D8               	btfsc	status,2,c
  3276   0040AC  EF34  F020         	goto	l2818
  3277   0040B0  0A03               	xorlw	3	; case 2
  3278   0040B2  B4D8               	btfsc	status,2,c
  3279   0040B4  EF2C  F020         	goto	l2810
  3280   0040B8  0A01               	xorlw	1	; case 3
  3281   0040BA  B4D8               	btfsc	status,2,c
  3282   0040BC  EF30  F020         	goto	l2814
  3283   0040C0  0A07               	xorlw	7	; case 4
  3284   0040C2  B4D8               	btfsc	status,2,c
  3285   0040C4  EF34  F020         	goto	l2818
  3286   0040C8  EF34  F020         	goto	l2818
  3287   0040CC                     l2826:
  3288   0040CC  ECA0  F026         	call	_I2C1_MasterIsTxBufEmpty	;wreg free
  3289   0040D0  0900               	iorlw	0
  3290   0040D2  B4D8               	btfsc	status,2,c
  3291   0040D4  EF6E  F020         	goto	u871
  3292   0040D8  EF70  F020         	goto	u870
  3293   0040DC                     u871:
  3294   0040DC  EFAE  F020         	goto	l2852
  3295   0040E0                     u870:
  3296   0040E0                     
  3297                           ;mcc_generated_files/i2c1_master.c: 423:     {;mcc_generated_files/i2c1_master.c: 424:  
      +                                 if(I2C1_Status.addressNackCheck)
  3298   0040E0  502A               	movf	(_I2C1_Status+41)^(0+1280),w,c
  3299   0040E2  0B03               	andlw	3
  3300   0040E4  0900               	iorlw	0
  3301   0040E6  B4D8               	btfsc	status,2,c
  3302   0040E8  EF78  F020         	goto	u881
  3303   0040EC  EF7A  F020         	goto	u880
  3304   0040F0                     u881:
  3305   0040F0  EF86  F020         	goto	l2832
  3306   0040F4                     u880:
  3307   0040F4                     
  3308                           ;mcc_generated_files/i2c1_master.c: 425:         {;mcc_generated_files/i2c1_master.c: 42
      +                          6:             I2C1_Status.addressNackCheck--;
  3309   0040F4  0E01               	movlw	1
  3310   0040F6  6E39               	movwf	??_I2C1_DO_TX^(0+1280),c
  3311   0040F8  502A               	movf	(_I2C1_Status+41)^(0+1280),w,c
  3312   0040FA  0B03               	andlw	3
  3313   0040FC  6E3A               	movwf	(??_I2C1_DO_TX+1)^(0+1280),c
  3314   0040FE  5039               	movf	??_I2C1_DO_TX^(0+1280),w,c
  3315   004100  5E3A               	subwf	(??_I2C1_DO_TX+1)^(0+1280),f,c
  3316   004102  502A               	movf	(_I2C1_Status+41)^(0+1280),w,c
  3317   004104  183A               	xorwf	(??_I2C1_DO_TX+1)^(0+1280),w,c
  3318   004106  0BFC               	andlw	-4
  3319   004108  183A               	xorwf	(??_I2C1_DO_TX+1)^(0+1280),w,c
  3320   00410A  6E2A               	movwf	(_I2C1_Status+41)^(0+1280),c
  3321   00410C                     l2832:
  3322                           
  3323                           ;mcc_generated_files/i2c1_master.c: 428:         uint8_t dataTx = *I2C1_Status.data_ptr+
      +                          +;
  3324   00410C  C524  F4D9         	movff	_I2C1_Status+35,fsr2l
  3325   004110  C525  F4DA         	movff	_I2C1_Status+36,fsr2h
  3326   004114  50DF               	movf	indf2,w,c
  3327   004116  6E3D               	movwf	I2C1_DO_TX@dataTx^(0+1280),c
  3328   004118  4A24               	infsnz	(_I2C1_Status+35)^(0+1280),f,c
  3329   00411A  2A25               	incf	(_I2C1_Status+36)^(0+1280),f,c
  3330   00411C                     
  3331                           ;mcc_generated_files/i2c1_master.c: 429:         i2c1_fsm_states_t retFsmState = (--I2C1
      +                          _Status.data_length)?I2C1_TX:I2C1_DO_TX_EMPTY();
  3332   00411C  0626               	decf	(_I2C1_Status+37)^(0+1280),f,c
  3333   00411E  A0D8               	btfss	status,0,c
  3334   004120  0627               	decf	(_I2C1_Status+38)^(0+1280),f,c
  3335   004122  5026               	movf	(_I2C1_Status+37)^(0+1280),w,c
  3336   004124  1027               	iorwf	(_I2C1_Status+38)^(0+1280),w,c
  3337   004126  A4D8               	btfss	status,2,c
  3338   004128  EF98  F020         	goto	u891
  3339   00412C  EF9A  F020         	goto	u890
  3340   004130                     u891:
  3341   004130  EFA2  F020         	goto	l2840
  3342   004134                     u890:
  3343   004134  ECA6  F022         	call	_I2C1_DO_TX_EMPTY	;wreg free
  3344   004138  6E39               	movwf	??_I2C1_DO_TX^(0+1280),c
  3345   00413A  5039               	movf	??_I2C1_DO_TX^(0+1280),w,c
  3346   00413C  6E3B               	movwf	_I2C1_DO_TX$883^(0+1280),c
  3347   00413E  6A3C               	clrf	(_I2C1_DO_TX$883+1)^(0+1280),c
  3348   004140  EFA6  F020         	goto	l2842
  3349   004144                     l2840:
  3350   004144  0E00               	movlw	0
  3351   004146  6E3C               	movwf	(_I2C1_DO_TX$883+1)^(0+1280),c
  3352   004148  0E03               	movlw	3
  3353   00414A  6E3B               	movwf	_I2C1_DO_TX$883^(0+1280),c
  3354   00414C                     l2842:
  3355   00414C  C53B  F53E         	movff	_I2C1_DO_TX$883,I2C1_DO_TX@retFsmState
  3356   004150                     
  3357                           ;mcc_generated_files/i2c1_master.c: 430:         I2C1_MasterSendTxData(dataTx);
  3358   004150  503D               	movf	I2C1_DO_TX@dataTx^(0+1280),w,c
  3359   004152  EC41  F027         	call	_I2C1_MasterSendTxData
  3360   004156                     
  3361                           ;mcc_generated_files/i2c1_master.c: 431:         return retFsmState;
  3362   004156  503E               	movf	I2C1_DO_TX@retFsmState^(0+1280),w,c
  3363   004158  EFAF  F020         	goto	l427
  3364   00415C                     l2852:
  3365                           
  3366                           ;mcc_generated_files/i2c1_master.c: 434:     {;mcc_generated_files/i2c1_master.c: 435:  
      +                                 return I2C1_TX;
  3367   00415C  0E03               	movlw	3
  3368   00415E                     l427:
  3369   00415E  0012               	return		;funcret
  3370   004160                     __end_of_I2C1_DO_TX:
  3371                           	callstack 0
  3372                           
  3373 ;; *************** function _I2C1_DO_SEND_ADR_WRITE *****************
  3374 ;; Defined at:
  3375 ;;		line 399 in file "mcc_generated_files/i2c1_master.c"
  3376 ;; Parameters:    Size  Location     Type
  3377 ;;		None
  3378 ;; Auto vars:     Size  Location     Type
  3379 ;;		None
  3380 ;; Return value:  Size  Location     Type
  3381 ;;                  1    wreg      enum E23261
  3382 ;; Registers used:
  3383 ;;		wreg, status,2, status,0, cstack
  3384 ;; Tracked objects:
  3385 ;;		On entry : 0/0
  3386 ;;		On exit  : 0/0
  3387 ;;		Unchanged: 0/0
  3388 ;; Data sizes:     COMRAM   BANK5   BANK6   BANK7   BANK8   BANK9  BANK10  BANK11  BANK12  BANK13  BANK14  BANK15  BANK1
      +6  BANK17  BANK18  BANK19  BANK20  BANK21  BANK22  BANK23  BANK24  BANK25  BANK26  BANK27  BANK28  BANK29  BANK30  BANK3
      +1  BANK32  BANK33  BANK34  BANK35  BANK36  BANK37  BANK38  BANK39  BANK40  BANK41  BANK42  BANK43  BANK44  BANK45  BANK4
      +6  BANK47  BANK48  BANK49  BANK50  BANK51  BANK52  BANK53  BANK54
  3389 ;;      Params:         0       0       0       0       0       0       0       0       0       0       0       0       
      +0       0       0       0       0       0       0       0       0       0       0       0       0       0       0       
      +0       0       0       0       0       0       0       0       0       0       0       0       0       0       0       
      +0       0       0       0       0       0       0       0       0
  3390 ;;      Locals:         0       0       0       0       0       0       0       0       0       0       0       0       
      +0       0       0       0       0       0       0       0       0       0       0       0       0       0       0       
      +0       0       0       0       0       0       0       0       0       0       0       0       0       0       0       
      +0       0       0       0       0       0       0       0       0
  3391 ;;      Temps:          0       0       0       0       0       0       0       0       0       0       0       0       
      +0       0       0       0       0       0       0       0       0       0       0       0       0       0       0       
      +0       0       0       0       0       0       0       0       0       0       0       0       0       0       0       
      +0       0       0       0       0       0       0       0       0
  3392 ;;      Totals:         0       0       0       0       0       0       0       0       0       0       0       0       
      +0       0       0       0       0       0       0       0       0       0       0       0       0       0       0       
      +0       0       0       0       0       0       0       0       0       0       0       0       0       0       0       
      +0       0       0       0       0       0       0       0       0
  3393 ;;Total ram usage:        0 bytes
  3394 ;; Hardware stack levels used: 1
  3395 ;; Hardware stack levels required when called: 1
  3396 ;; This function calls:
  3397 ;;		_I2C1_MasterSendTxData
  3398 ;; This function is called by:
  3399 ;;		_I2C1_MasterOperation
  3400 ;;		_I2C1_MasterFsm
  3401 ;; This function uses a non-reentrant model
  3402 ;;
  3403                           
  3404                           	psect	text31
  3405   004DD8                     __ptext31:
  3406                           	callstack 0
  3407   004DD8                     _I2C1_DO_SEND_ADR_WRITE:
  3408                           	callstack 116
  3409   004DD8                     
  3410                           ;mcc_generated_files/i2c1_master.c: 401:     I2C1_Status.addressNackCheck = 2;
  3411   004DD8  502A               	movf	(_I2C1_Status+41)^(0+1280),w,c
  3412   004DDA  0BFC               	andlw	-4
  3413   004DDC  0902               	iorlw	2
  3414   004DDE  6E2A               	movwf	(_I2C1_Status+41)^(0+1280),c
  3415   004DE0                     
  3416                           ;mcc_generated_files/i2c1_master.c: 402:     I2C1_MasterSendTxData((uint8_t) (I2C1_Statu
      +                          s.address << 1));
  3417   004DE0  5023               	movf	(_I2C1_Status+34)^(0+1280),w,c
  3418   004DE2  2423               	addwf	(_I2C1_Status+34)^(0+1280),w,c
  3419   004DE4  EC41  F027         	call	_I2C1_MasterSendTxData
  3420   004DE8                     
  3421                           ;mcc_generated_files/i2c1_master.c: 403:     return I2C1_TX;
  3422   004DE8  0E03               	movlw	3
  3423   004DEA  0012               	return		;funcret
  3424   004DEC                     __end_of_I2C1_DO_SEND_ADR_WRITE:
  3425                           	callstack 0
  3426                           
  3427 ;; *************** function _I2C1_DO_SEND_ADR_READ *****************
  3428 ;; Defined at:
  3429 ;;		line 388 in file "mcc_generated_files/i2c1_master.c"
  3430 ;; Parameters:    Size  Location     Type
  3431 ;;		None
  3432 ;; Auto vars:     Size  Location     Type
  3433 ;;		None
  3434 ;; Return value:  Size  Location     Type
  3435 ;;                  1    wreg      enum E23261
  3436 ;; Registers used:
  3437 ;;		wreg, fsr2l, fsr2h, status,2, status,0, pcl, pclath, pclatu, tosl, prodl, prodh, cstack
  3438 ;; Tracked objects:
  3439 ;;		On entry : 0/0
  3440 ;;		On exit  : 0/0
  3441 ;;		Unchanged: 0/0
  3442 ;; Data sizes:     COMRAM   BANK5   BANK6   BANK7   BANK8   BANK9  BANK10  BANK11  BANK12  BANK13  BANK14  BANK15  BANK1
      +6  BANK17  BANK18  BANK19  BANK20  BANK21  BANK22  BANK23  BANK24  BANK25  BANK26  BANK27  BANK28  BANK29  BANK30  BANK3
      +1  BANK32  BANK33  BANK34  BANK35  BANK36  BANK37  BANK38  BANK39  BANK40  BANK41  BANK42  BANK43  BANK44  BANK45  BANK4
      +6  BANK47  BANK48  BANK49  BANK50  BANK51  BANK52  BANK53  BANK54
  3443 ;;      Params:         0       0       0       0       0       0       0       0       0       0       0       0       
      +0       0       0       0       0       0       0       0       0       0       0       0       0       0       0       
      +0       0       0       0       0       0       0       0       0       0       0       0       0       0       0       
      +0       0       0       0       0       0       0       0       0
  3444 ;;      Locals:         0       0       0       0       0       0       0       0       0       0       0       0       
      +0       0       0       0       0       0       0       0       0       0       0       0       0       0       0       
      +0       0       0       0       0       0       0       0       0       0       0       0       0       0       0       
      +0       0       0       0       0       0       0       0       0
  3445 ;;      Temps:          0       0       0       0       0       0       0       0       0       0       0       0       
      +0       0       0       0       0       0       0       0       0       0       0       0       0       0       0       
      +0       0       0       0       0       0       0       0       0       0       0       0       0       0       0       
      +0       0       0       0       0       0       0       0       0
  3446 ;;      Totals:         0       0       0       0       0       0       0       0       0       0       0       0       
      +0       0       0       0       0       0       0       0       0       0       0       0       0       0       0       
      +0       0       0       0       0       0       0       0       0       0       0       0       0       0       0       
      +0       0       0       0       0       0       0       0       0
  3447 ;;Total ram usage:        0 bytes
  3448 ;; Hardware stack levels used: 1
  3449 ;; Hardware stack levels required when called: 4
  3450 ;; This function calls:
  3451 ;;		_I2C1_DO_RX_EMPTY
  3452 ;;		_I2C1_MasterSendTxData
  3453 ;; This function is called by:
  3454 ;;		_I2C1_MasterOperation
  3455 ;;		_I2C1_DO_SEND_RESTART_READ
  3456 ;;		_I2C1_MasterFsm
  3457 ;; This function uses a non-reentrant model
  3458 ;;
  3459                           
  3460                           	psect	text32
  3461   004BCE                     __ptext32:
  3462                           	callstack 0
  3463   004BCE                     _I2C1_DO_SEND_ADR_READ:
  3464                           	callstack 111
  3465   004BCE                     
  3466                           ;mcc_generated_files/i2c1_master.c: 390:     I2C1_Status.addressNackCheck = 2;
  3467   004BCE  502A               	movf	(_I2C1_Status+41)^(0+1280),w,c
  3468   004BD0  0BFC               	andlw	-4
  3469   004BD2  0902               	iorlw	2
  3470   004BD4  6E2A               	movwf	(_I2C1_Status+41)^(0+1280),c
  3471   004BD6                     
  3472                           ;mcc_generated_files/i2c1_master.c: 391:     if(I2C1_Status.data_length == 1)
  3473   004BD6  0426               	decf	(_I2C1_Status+37)^(0+1280),w,c
  3474   004BD8  1027               	iorwf	(_I2C1_Status+38)^(0+1280),w,c
  3475   004BDA  A4D8               	btfss	status,2,c
  3476   004BDC  EFF2  F025         	goto	u811
  3477   004BE0  EFF4  F025         	goto	u810
  3478   004BE4                     u811:
  3479   004BE4  EFF6  F025         	goto	l2746
  3480   004BE8                     u810:
  3481   004BE8                     
  3482                           ;mcc_generated_files/i2c1_master.c: 392:     {;mcc_generated_files/i2c1_master.c: 393:  
      +                                 I2C1_DO_RX_EMPTY();
  3483   004BE8  EC01  F021         	call	_I2C1_DO_RX_EMPTY	;wreg free
  3484   004BEC                     l2746:
  3485                           
  3486                           ;mcc_generated_files/i2c1_master.c: 395:     I2C1_MasterSendTxData((uint8_t) (I2C1_Statu
      +                          s.address << 1 | 1));
  3487   004BEC  80D8               	bsf	status,0,c
  3488   004BEE  3423               	rlcf	(_I2C1_Status+34)^(0+1280),w,c
  3489   004BF0  EC41  F027         	call	_I2C1_MasterSendTxData
  3490   004BF4                     
  3491                           ;mcc_generated_files/i2c1_master.c: 396:     return I2C1_RX;
  3492   004BF4  0E04               	movlw	4
  3493   004BF6  0012               	return		;funcret
  3494   004BF8                     __end_of_I2C1_DO_SEND_ADR_READ:
  3495                           	callstack 0
  3496                           
  3497 ;; *************** function _I2C1_DO_IDLE *****************
  3498 ;; Defined at:
  3499 ;;		line 381 in file "mcc_generated_files/i2c1_master.c"
  3500 ;; Parameters:    Size  Location     Type
  3501 ;;		None
  3502 ;; Auto vars:     Size  Location     Type
  3503 ;;		None
  3504 ;; Return value:  Size  Location     Type
  3505 ;;                  1    wreg      enum E23261
  3506 ;; Registers used:
  3507 ;;		wreg, status,2
  3508 ;; Tracked objects:
  3509 ;;		On entry : 0/0
  3510 ;;		On exit  : 0/0
  3511 ;;		Unchanged: 0/0
  3512 ;; Data sizes:     COMRAM   BANK5   BANK6   BANK7   BANK8   BANK9  BANK10  BANK11  BANK12  BANK13  BANK14  BANK15  BANK1
      +6  BANK17  BANK18  BANK19  BANK20  BANK21  BANK22  BANK23  BANK24  BANK25  BANK26  BANK27  BANK28  BANK29  BANK30  BANK3
      +1  BANK32  BANK33  BANK34  BANK35  BANK36  BANK37  BANK38  BANK39  BANK40  BANK41  BANK42  BANK43  BANK44  BANK45  BANK4
      +6  BANK47  BANK48  BANK49  BANK50  BANK51  BANK52  BANK53  BANK54
  3513 ;;      Params:         0       0       0       0       0       0       0       0       0       0       0       0       
      +0       0       0       0       0       0       0       0       0       0       0       0       0       0       0       
      +0       0       0       0       0       0       0       0       0       0       0       0       0       0       0       
      +0       0       0       0       0       0       0       0       0
  3514 ;;      Locals:         0       0       0       0       0       0       0       0       0       0       0       0       
      +0       0       0       0       0       0       0       0       0       0       0       0       0       0       0       
      +0       0       0       0       0       0       0       0       0       0       0       0       0       0       0       
      +0       0       0       0       0       0       0       0       0
  3515 ;;      Temps:          0       0       0       0       0       0       0       0       0       0       0       0       
      +0       0       0       0       0       0       0       0       0       0       0       0       0       0       0       
      +0       0       0       0       0       0       0       0       0       0       0       0       0       0       0       
      +0       0       0       0       0       0       0       0       0
  3516 ;;      Totals:         0       0       0       0       0       0       0       0       0       0       0       0       
      +0       0       0       0       0       0       0       0       0       0       0       0       0       0       0       
      +0       0       0       0       0       0       0       0       0       0       0       0       0       0       0       
      +0       0       0       0       0       0       0       0       0
  3517 ;;Total ram usage:        0 bytes
  3518 ;; Hardware stack levels used: 1
  3519 ;; This function calls:
  3520 ;;		Nothing
  3521 ;; This function is called by:
  3522 ;;		_I2C1_DO_RX_NACK_STOP
  3523 ;;		_I2C1_MasterFsm
  3524 ;; This function uses a non-reentrant model
  3525 ;;
  3526                           
  3527                           	psect	text33
  3528   004E4E                     __ptext33:
  3529                           	callstack 0
  3530   004E4E                     _I2C1_DO_IDLE:
  3531                           	callstack 116
  3532   004E4E                     
  3533                           ;mcc_generated_files/i2c1_master.c: 383:     I2C1_Status.busy = 0;
  3534   004E4E  942A               	bcf	(_I2C1_Status+41)^(0+1280),2,c
  3535   004E50                     
  3536                           ;mcc_generated_files/i2c1_master.c: 384:     I2C1_Status.error = I2C1_NOERR;
  3537   004E50  0E00               	movlw	0
  3538   004E52  6E29               	movwf	(_I2C1_Status+40)^(0+1280),c
  3539   004E54                     
  3540                           ;mcc_generated_files/i2c1_master.c: 385:     return I2C1_RESET;
  3541   004E54  0E0F               	movlw	15
  3542   004E56  0012               	return		;funcret
  3543   004E58                     __end_of_I2C1_DO_IDLE:
  3544                           	callstack 0
  3545                           
  3546 ;; *************** function _I2C1_DO_TX_ACK *****************
  3547 ;; Defined at:
  3548 ;;		line 541 in file "mcc_generated_files/i2c1_master.c"
  3549 ;; Parameters:    Size  Location     Type
  3550 ;;		None
  3551 ;; Auto vars:     Size  Location     Type
  3552 ;;		None
  3553 ;; Return value:  Size  Location     Type
  3554 ;;                  1    wreg      enum E23261
  3555 ;; Registers used:
  3556 ;;		wreg, cstack
  3557 ;; Tracked objects:
  3558 ;;		On entry : 0/0
  3559 ;;		On exit  : 0/0
  3560 ;;		Unchanged: 0/0
  3561 ;; Data sizes:     COMRAM   BANK5   BANK6   BANK7   BANK8   BANK9  BANK10  BANK11  BANK12  BANK13  BANK14  BANK15  BANK1
      +6  BANK17  BANK18  BANK19  BANK20  BANK21  BANK22  BANK23  BANK24  BANK25  BANK26  BANK27  BANK28  BANK29  BANK30  BANK3
      +1  BANK32  BANK33  BANK34  BANK35  BANK36  BANK37  BANK38  BANK39  BANK40  BANK41  BANK42  BANK43  BANK44  BANK45  BANK4
      +6  BANK47  BANK48  BANK49  BANK50  BANK51  BANK52  BANK53  BANK54
  3562 ;;      Params:         0       0       0       0       0       0       0       0       0       0       0       0       
      +0       0       0       0       0       0       0       0       0       0       0       0       0       0       0       
      +0       0       0       0       0       0       0       0       0       0       0       0       0       0       0       
      +0       0       0       0       0       0       0       0       0
  3563 ;;      Locals:         0       0       0       0       0       0       0       0       0       0       0       0       
      +0       0       0       0       0       0       0       0       0       0       0       0       0       0       0       
      +0       0       0       0       0       0       0       0       0       0       0       0       0       0       0       
      +0       0       0       0       0       0       0       0       0
  3564 ;;      Temps:          0       0       0       0       0       0       0       0       0       0       0       0       
      +0       0       0       0       0       0       0       0       0       0       0       0       0       0       0       
      +0       0       0       0       0       0       0       0       0       0       0       0       0       0       0       
      +0       0       0       0       0       0       0       0       0
  3565 ;;      Totals:         0       0       0       0       0       0       0       0       0       0       0       0       
      +0       0       0       0       0       0       0       0       0       0       0       0       0       0       0       
      +0       0       0       0       0       0       0       0       0       0       0       0       0       0       0       
      +0       0       0       0       0       0       0       0       0
  3566 ;;Total ram usage:        0 bytes
  3567 ;; Hardware stack levels used: 1
  3568 ;; Hardware stack levels required when called: 1
  3569 ;; This function calls:
  3570 ;;		_I2C1_MasterSendAck
  3571 ;; This function is called by:
  3572 ;;		_I2C1_MasterFsm
  3573 ;; This function uses a non-reentrant model
  3574 ;;
  3575                           
  3576                           	psect	text34
  3577   004E7A                     __ptext34:
  3578                           	callstack 0
  3579   004E7A                     _I2C1_DO_TX_ACK:
  3580                           	callstack 116
  3581   004E7A                     
  3582                           ;mcc_generated_files/i2c1_master.c: 543:     I2C1_MasterSendAck();
  3583   004E7A  EC52  F027         	call	_I2C1_MasterSendAck	;wreg free
  3584   004E7E                     
  3585                           ;mcc_generated_files/i2c1_master.c: 544:     return I2C1_TX;
  3586   004E7E  0E03               	movlw	3
  3587   004E80  0012               	return		;funcret
  3588   004E82                     __end_of_I2C1_DO_TX_ACK:
  3589                           	callstack 0
  3590                           
  3591 ;; *************** function _I2C1_MasterIsTxBufEmpty *****************
  3592 ;; Defined at:
  3593 ;;		line 743 in file "mcc_generated_files/i2c1_master.c"
  3594 ;; Parameters:    Size  Location     Type
  3595 ;;		None
  3596 ;; Auto vars:     Size  Location     Type
  3597 ;;		None
  3598 ;; Return value:  Size  Location     Type
  3599 ;;                  1    wreg      _Bool 
  3600 ;; Registers used:
  3601 ;;		wreg
  3602 ;; Tracked objects:
  3603 ;;		On entry : 0/0
  3604 ;;		On exit  : 0/0
  3605 ;;		Unchanged: 0/0
  3606 ;; Data sizes:     COMRAM   BANK5   BANK6   BANK7   BANK8   BANK9  BANK10  BANK11  BANK12  BANK13  BANK14  BANK15  BANK1
      +6  BANK17  BANK18  BANK19  BANK20  BANK21  BANK22  BANK23  BANK24  BANK25  BANK26  BANK27  BANK28  BANK29  BANK30  BANK3
      +1  BANK32  BANK33  BANK34  BANK35  BANK36  BANK37  BANK38  BANK39  BANK40  BANK41  BANK42  BANK43  BANK44  BANK45  BANK4
      +6  BANK47  BANK48  BANK49  BANK50  BANK51  BANK52  BANK53  BANK54
  3607 ;;      Params:         0       0       0       0       0       0       0       0       0       0       0       0       
      +0       0       0       0       0       0       0       0       0       0       0       0       0       0       0       
      +0       0       0       0       0       0       0       0       0       0       0       0       0       0       0       
      +0       0       0       0       0       0       0       0       0
  3608 ;;      Locals:         0       0       0       0       0       0       0       0       0       0       0       0       
      +0       0       0       0       0       0       0       0       0       0       0       0       0       0       0       
      +0       0       0       0       0       0       0       0       0       0       0       0       0       0       0       
      +0       0       0       0       0       0       0       0       0
  3609 ;;      Temps:          0       0       0       0       0       0       0       0       0       0       0       0       
      +0       0       0       0       0       0       0       0       0       0       0       0       0       0       0       
      +0       0       0       0       0       0       0       0       0       0       0       0       0       0       0       
      +0       0       0       0       0       0       0       0       0
  3610 ;;      Totals:         0       0       0       0       0       0       0       0       0       0       0       0       
      +0       0       0       0       0       0       0       0       0       0       0       0       0       0       0       
      +0       0       0       0       0       0       0       0       0       0       0       0       0       0       0       
      +0       0       0       0       0       0       0       0       0
  3611 ;;Total ram usage:        0 bytes
  3612 ;; Hardware stack levels used: 1
  3613 ;; This function calls:
  3614 ;;		Nothing
  3615 ;; This function is called by:
  3616 ;;		_I2C1_DO_TX
  3617 ;; This function uses a non-reentrant model
  3618 ;;
  3619                           
  3620                           	psect	text35
  3621   004D40                     __ptext35:
  3622                           	callstack 0
  3623   004D40                     _I2C1_MasterIsTxBufEmpty:
  3624                           	callstack 116
  3625   004D40                     
  3626                           ;mcc_generated_files/i2c1_master.c: 745:     return I2C1STAT1bits.TXBE;
  3627   004D40  0102               	movlb	2	; () banked
  3628   004D42  BB99               	btfsc	153,5,b	;volatile
  3629   004D44  EFA6  F026         	goto	u831
  3630   004D48  EFA9  F026         	goto	u830
  3631   004D4C                     u831:
  3632   004D4C  0E01               	movlw	1
  3633   004D4E  EFAA  F026         	goto	u836
  3634   004D52                     u830:
  3635   004D52  0E00               	movlw	0
  3636   004D54                     u836:
  3637   004D54                     
  3638                           ; BSR set to: 2
  3639   004D54  0012               	return		;funcret
  3640   004D56                     __end_of_I2C1_MasterIsTxBufEmpty:
  3641                           	callstack 0
  3642                           
  3643 ;; *************** function _I2C1_MasterIsNack *****************
  3644 ;; Defined at:
  3645 ;;		line 716 in file "mcc_generated_files/i2c1_master.c"
  3646 ;; Parameters:    Size  Location     Type
  3647 ;;		None
  3648 ;; Auto vars:     Size  Location     Type
  3649 ;;		None
  3650 ;; Return value:  Size  Location     Type
  3651 ;;                  1    wreg      _Bool 
  3652 ;; Registers used:
  3653 ;;		wreg
  3654 ;; Tracked objects:
  3655 ;;		On entry : 0/0
  3656 ;;		On exit  : 0/0
  3657 ;;		Unchanged: 0/0
  3658 ;; Data sizes:     COMRAM   BANK5   BANK6   BANK7   BANK8   BANK9  BANK10  BANK11  BANK12  BANK13  BANK14  BANK15  BANK1
      +6  BANK17  BANK18  BANK19  BANK20  BANK21  BANK22  BANK23  BANK24  BANK25  BANK26  BANK27  BANK28  BANK29  BANK30  BANK3
      +1  BANK32  BANK33  BANK34  BANK35  BANK36  BANK37  BANK38  BANK39  BANK40  BANK41  BANK42  BANK43  BANK44  BANK45  BANK4
      +6  BANK47  BANK48  BANK49  BANK50  BANK51  BANK52  BANK53  BANK54
  3659 ;;      Params:         0       0       0       0       0       0       0       0       0       0       0       0       
      +0       0       0       0       0       0       0       0       0       0       0       0       0       0       0       
      +0       0       0       0       0       0       0       0       0       0       0       0       0       0       0       
      +0       0       0       0       0       0       0       0       0
  3660 ;;      Locals:         0       0       0       0       0       0       0       0       0       0       0       0       
      +0       0       0       0       0       0       0       0       0       0       0       0       0       0       0       
      +0       0       0       0       0       0       0       0       0       0       0       0       0       0       0       
      +0       0       0       0       0       0       0       0       0
  3661 ;;      Temps:          0       0       0       0       0       0       0       0       0       0       0       0       
      +0       0       0       0       0       0       0       0       0       0       0       0       0       0       0       
      +0       0       0       0       0       0       0       0       0       0       0       0       0       0       0       
      +0       0       0       0       0       0       0       0       0
  3662 ;;      Totals:         0       0       0       0       0       0       0       0       0       0       0       0       
      +0       0       0       0       0       0       0       0       0       0       0       0       0       0       0       
      +0       0       0       0       0       0       0       0       0       0       0       0       0       0       0       
      +0       0       0       0       0       0       0       0       0
  3663 ;;Total ram usage:        0 bytes
  3664 ;; Hardware stack levels used: 1
  3665 ;; This function calls:
  3666 ;;		Nothing
  3667 ;; This function is called by:
  3668 ;;		_I2C1_MasterFsm
  3669 ;;		_I2C1_DO_TX
  3670 ;; This function uses a non-reentrant model
  3671 ;;
  3672                           
  3673                           	psect	text36
  3674   004D56                     __ptext36:
  3675                           	callstack 0
  3676   004D56                     _I2C1_MasterIsNack:
  3677                           	callstack 117
  3678   004D56                     
  3679                           ;mcc_generated_files/i2c1_master.c: 718:     return I2C1CON1bits.ACKSTAT;
  3680   004D56  0102               	movlb	2	; () banked
  3681   004D58  BB95               	btfsc	149,5,b	;volatile
  3682   004D5A  EFB1  F026         	goto	u821
  3683   004D5E  EFB4  F026         	goto	u820
  3684   004D62                     u821:
  3685   004D62  0E01               	movlw	1
  3686   004D64  EFB5  F026         	goto	u826
  3687   004D68                     u820:
  3688   004D68  0E00               	movlw	0
  3689   004D6A                     u826:
  3690   004D6A                     
  3691                           ; BSR set to: 2
  3692   004D6A  0012               	return		;funcret
  3693   004D6C                     __end_of_I2C1_MasterIsNack:
  3694                           	callstack 0
  3695                           
  3696 ;; *************** function _I2C1_MasterGetCounter *****************
  3697 ;; Defined at:
  3698 ;;		line 677 in file "mcc_generated_files/i2c1_master.c"
  3699 ;; Parameters:    Size  Location     Type
  3700 ;;		None
  3701 ;; Auto vars:     Size  Location     Type
  3702 ;;		None
  3703 ;; Return value:  Size  Location     Type
  3704 ;;                  1    wreg      unsigned char 
  3705 ;; Registers used:
  3706 ;;		wreg, status,2
  3707 ;; Tracked objects:
  3708 ;;		On entry : 0/0
  3709 ;;		On exit  : 0/0
  3710 ;;		Unchanged: 0/0
  3711 ;; Data sizes:     COMRAM   BANK5   BANK6   BANK7   BANK8   BANK9  BANK10  BANK11  BANK12  BANK13  BANK14  BANK15  BANK1
      +6  BANK17  BANK18  BANK19  BANK20  BANK21  BANK22  BANK23  BANK24  BANK25  BANK26  BANK27  BANK28  BANK29  BANK30  BANK3
      +1  BANK32  BANK33  BANK34  BANK35  BANK36  BANK37  BANK38  BANK39  BANK40  BANK41  BANK42  BANK43  BANK44  BANK45  BANK4
      +6  BANK47  BANK48  BANK49  BANK50  BANK51  BANK52  BANK53  BANK54
  3712 ;;      Params:         0       0       0       0       0       0       0       0       0       0       0       0       
      +0       0       0       0       0       0       0       0       0       0       0       0       0       0       0       
      +0       0       0       0       0       0       0       0       0       0       0       0       0       0       0       
      +0       0       0       0       0       0       0       0       0
  3713 ;;      Locals:         0       0       0       0       0       0       0       0       0       0       0       0       
      +0       0       0       0       0       0       0       0       0       0       0       0       0       0       0       
      +0       0       0       0       0       0       0       0       0       0       0       0       0       0       0       
      +0       0       0       0       0       0       0       0       0
  3714 ;;      Temps:          0       0       0       0       0       0       0       0       0       0       0       0       
      +0       0       0       0       0       0       0       0       0       0       0       0       0       0       0       
      +0       0       0       0       0       0       0       0       0       0       0       0       0       0       0       
      +0       0       0       0       0       0       0       0       0
  3715 ;;      Totals:         0       0       0       0       0       0       0       0       0       0       0       0       
      +0       0       0       0       0       0       0       0       0       0       0       0       0       0       0       
      +0       0       0       0       0       0       0       0       0       0       0       0       0       0       0       
      +0       0       0       0       0       0       0       0       0
  3716 ;;Total ram usage:        0 bytes
  3717 ;; Hardware stack levels used: 1
  3718 ;; This function calls:
  3719 ;;		Nothing
  3720 ;; This function is called by:
  3721 ;;		_I2C1_DO_SEND_STOP
  3722 ;; This function uses a non-reentrant model
  3723 ;;
  3724                           
  3725                           	psect	text37
  3726   004E92                     __ptext37:
  3727                           	callstack 0
  3728   004E92                     _I2C1_MasterGetCounter:
  3729                           	callstack 116
  3730   004E92                     
  3731                           ;mcc_generated_files/i2c1_master.c: 679:     return I2C1CNTL;
  3732   004E92  0102               	movlb	2	; () banked
  3733   004E94  518C               	movf	140,w,b	;volatile
  3734   004E96                     
  3735                           ; BSR set to: 2
  3736   004E96  0012               	return		;funcret
  3737   004E98                     __end_of_I2C1_MasterGetCounter:
  3738                           	callstack 0
  3739                           
  3740 ;; *************** function _I2C1_MasterStop *****************
  3741 ;; Defined at:
  3742 ;;		line 710 in file "mcc_generated_files/i2c1_master.c"
  3743 ;; Parameters:    Size  Location     Type
  3744 ;;		None
  3745 ;; Auto vars:     Size  Location     Type
  3746 ;;		None
  3747 ;; Return value:  Size  Location     Type
  3748 ;;                  1    wreg      void 
  3749 ;; Registers used:
  3750 ;;		None
  3751 ;; Tracked objects:
  3752 ;;		On entry : 0/0
  3753 ;;		On exit  : 0/0
  3754 ;;		Unchanged: 0/0
  3755 ;; Data sizes:     COMRAM   BANK5   BANK6   BANK7   BANK8   BANK9  BANK10  BANK11  BANK12  BANK13  BANK14  BANK15  BANK1
      +6  BANK17  BANK18  BANK19  BANK20  BANK21  BANK22  BANK23  BANK24  BANK25  BANK26  BANK27  BANK28  BANK29  BANK30  BANK3
      +1  BANK32  BANK33  BANK34  BANK35  BANK36  BANK37  BANK38  BANK39  BANK40  BANK41  BANK42  BANK43  BANK44  BANK45  BANK4
      +6  BANK47  BANK48  BANK49  BANK50  BANK51  BANK52  BANK53  BANK54
  3756 ;;      Params:         0       0       0       0       0       0       0       0       0       0       0       0       
      +0       0       0       0       0       0       0       0       0       0       0       0       0       0       0       
      +0       0       0       0       0       0       0       0       0       0       0       0       0       0       0       
      +0       0       0       0       0       0       0       0       0
  3757 ;;      Locals:         0       0       0       0       0       0       0       0       0       0       0       0       
      +0       0       0       0       0       0       0       0       0       0       0       0       0       0       0       
      +0       0       0       0       0       0       0       0       0       0       0       0       0       0       0       
      +0       0       0       0       0       0       0       0       0
  3758 ;;      Temps:          0       0       0       0       0       0       0       0       0       0       0       0       
      +0       0       0       0       0       0       0       0       0       0       0       0       0       0       0       
      +0       0       0       0       0       0       0       0       0       0       0       0       0       0       0       
      +0       0       0       0       0       0       0       0       0
  3759 ;;      Totals:         0       0       0       0       0       0       0       0       0       0       0       0       
      +0       0       0       0       0       0       0       0       0       0       0       0       0       0       0       
      +0       0       0       0       0       0       0       0       0       0       0       0       0       0       0       
      +0       0       0       0       0       0       0       0       0
  3760 ;;Total ram usage:        0 bytes
  3761 ;; Hardware stack levels used: 1
  3762 ;; This function calls:
  3763 ;;		Nothing
  3764 ;; This function is called by:
  3765 ;;		_I2C1_DO_SEND_STOP
  3766 ;;		_I2C1_DO_RX_NACK_STOP
  3767 ;; This function uses a non-reentrant model
  3768 ;;
  3769                           
  3770                           	psect	text38
  3771   004E98                     __ptext38:
  3772                           	callstack 0
  3773   004E98                     _I2C1_MasterStop:
  3774                           	callstack 116
  3775   004E98                     
  3776                           ;mcc_generated_files/i2c1_master.c: 713:     I2C1CON0bits.S = 0;
  3777   004E98  0102               	movlb	2	; () banked
  3778   004E9A  9B94               	bcf	148,5,b	;volatile
  3779   004E9C                     
  3780                           ; BSR set to: 2
  3781   004E9C  0012               	return		;funcret
  3782   004E9E                     __end_of_I2C1_MasterStop:
  3783                           	callstack 0
  3784                           
  3785 ;; *************** function _I2C1_MasterSendNack *****************
  3786 ;; Defined at:
  3787 ;;		line 726 in file "mcc_generated_files/i2c1_master.c"
  3788 ;; Parameters:    Size  Location     Type
  3789 ;;		None
  3790 ;; Auto vars:     Size  Location     Type
  3791 ;;		None
  3792 ;; Return value:  Size  Location     Type
  3793 ;;                  1    wreg      void 
  3794 ;; Registers used:
  3795 ;;		None
  3796 ;; Tracked objects:
  3797 ;;		On entry : 0/0
  3798 ;;		On exit  : 0/0
  3799 ;;		Unchanged: 0/0
  3800 ;; Data sizes:     COMRAM   BANK5   BANK6   BANK7   BANK8   BANK9  BANK10  BANK11  BANK12  BANK13  BANK14  BANK15  BANK1
      +6  BANK17  BANK18  BANK19  BANK20  BANK21  BANK22  BANK23  BANK24  BANK25  BANK26  BANK27  BANK28  BANK29  BANK30  BANK3
      +1  BANK32  BANK33  BANK34  BANK35  BANK36  BANK37  BANK38  BANK39  BANK40  BANK41  BANK42  BANK43  BANK44  BANK45  BANK4
      +6  BANK47  BANK48  BANK49  BANK50  BANK51  BANK52  BANK53  BANK54
  3801 ;;      Params:         0       0       0       0       0       0       0       0       0       0       0       0       
      +0       0       0       0       0       0       0       0       0       0       0       0       0       0       0       
      +0       0       0       0       0       0       0       0       0       0       0       0       0       0       0       
      +0       0       0       0       0       0       0       0       0
  3802 ;;      Locals:         0       0       0       0       0       0       0       0       0       0       0       0       
      +0       0       0       0       0       0       0       0       0       0       0       0       0       0       0       
      +0       0       0       0       0       0       0       0       0       0       0       0       0       0       0       
      +0       0       0       0       0       0       0       0       0
  3803 ;;      Temps:          0       0       0       0       0       0       0       0       0       0       0       0       
      +0       0       0       0       0       0       0       0       0       0       0       0       0       0       0       
      +0       0       0       0       0       0       0       0       0       0       0       0       0       0       0       
      +0       0       0       0       0       0       0       0       0
  3804 ;;      Totals:         0       0       0       0       0       0       0       0       0       0       0       0       
      +0       0       0       0       0       0       0       0       0       0       0       0       0       0       0       
      +0       0       0       0       0       0       0       0       0       0       0       0       0       0       0       
      +0       0       0       0       0       0       0       0       0
  3805 ;;Total ram usage:        0 bytes
  3806 ;; Hardware stack levels used: 1
  3807 ;; This function calls:
  3808 ;;		Nothing
  3809 ;; This function is called by:
  3810 ;;		_I2C1_DO_RX_NACK_STOP
  3811 ;;		_I2C1_DO_RX_NACK_RESTART
  3812 ;; This function uses a non-reentrant model
  3813 ;;
  3814                           
  3815                           	psect	text39
  3816   004E9E                     __ptext39:
  3817                           	callstack 0
  3818   004E9E                     _I2C1_MasterSendNack:
  3819                           	callstack 116
  3820   004E9E                     
  3821                           ;mcc_generated_files/i2c1_master.c: 728:     I2C1CON1bits.ACKDT = 1;
  3822   004E9E  0102               	movlb	2	; () banked
  3823   004EA0  8D95               	bsf	149,6,b	;volatile
  3824   004EA2                     
  3825                           ; BSR set to: 2
  3826   004EA2  0012               	return		;funcret
  3827   004EA4                     __end_of_I2C1_MasterSendNack:
  3828                           	callstack 0
  3829                           
  3830 ;; *************** function _I2C1_MasterSendAck *****************
  3831 ;; Defined at:
  3832 ;;		line 721 in file "mcc_generated_files/i2c1_master.c"
  3833 ;; Parameters:    Size  Location     Type
  3834 ;;		None
  3835 ;; Auto vars:     Size  Location     Type
  3836 ;;		None
  3837 ;; Return value:  Size  Location     Type
  3838 ;;                  1    wreg      void 
  3839 ;; Registers used:
  3840 ;;		None
  3841 ;; Tracked objects:
  3842 ;;		On entry : 0/0
  3843 ;;		On exit  : 0/0
  3844 ;;		Unchanged: 0/0
  3845 ;; Data sizes:     COMRAM   BANK5   BANK6   BANK7   BANK8   BANK9  BANK10  BANK11  BANK12  BANK13  BANK14  BANK15  BANK1
      +6  BANK17  BANK18  BANK19  BANK20  BANK21  BANK22  BANK23  BANK24  BANK25  BANK26  BANK27  BANK28  BANK29  BANK30  BANK3
      +1  BANK32  BANK33  BANK34  BANK35  BANK36  BANK37  BANK38  BANK39  BANK40  BANK41  BANK42  BANK43  BANK44  BANK45  BANK4
      +6  BANK47  BANK48  BANK49  BANK50  BANK51  BANK52  BANK53  BANK54
  3846 ;;      Params:         0       0       0       0       0       0       0       0       0       0       0       0       
      +0       0       0       0       0       0       0       0       0       0       0       0       0       0       0       
      +0       0       0       0       0       0       0       0       0       0       0       0       0       0       0       
      +0       0       0       0       0       0       0       0       0
  3847 ;;      Locals:         0       0       0       0       0       0       0       0       0       0       0       0       
      +0       0       0       0       0       0       0       0       0       0       0       0       0       0       0       
      +0       0       0       0       0       0       0       0       0       0       0       0       0       0       0       
      +0       0       0       0       0       0       0       0       0
  3848 ;;      Temps:          0       0       0       0       0       0       0       0       0       0       0       0       
      +0       0       0       0       0       0       0       0       0       0       0       0       0       0       0       
      +0       0       0       0       0       0       0       0       0       0       0       0       0       0       0       
      +0       0       0       0       0       0       0       0       0
  3849 ;;      Totals:         0       0       0       0       0       0       0       0       0       0       0       0       
      +0       0       0       0       0       0       0       0       0       0       0       0       0       0       0       
      +0       0       0       0       0       0       0       0       0       0       0       0       0       0       0       
      +0       0       0       0       0       0       0       0       0
  3850 ;;Total ram usage:        0 bytes
  3851 ;; Hardware stack levels used: 1
  3852 ;; This function calls:
  3853 ;;		Nothing
  3854 ;; This function is called by:
  3855 ;;		_I2C1_DO_RX_ACK
  3856 ;;		_I2C1_DO_TX_ACK
  3857 ;; This function uses a non-reentrant model
  3858 ;;
  3859                           
  3860                           	psect	text40
  3861   004EA4                     __ptext40:
  3862                           	callstack 0
  3863   004EA4                     _I2C1_MasterSendAck:
  3864                           	callstack 116
  3865   004EA4                     
  3866                           ;mcc_generated_files/i2c1_master.c: 723:     I2C1CON1bits.ACKDT = 0;
  3867   004EA4  0102               	movlb	2	; () banked
  3868   004EA6  9D95               	bcf	149,6,b	;volatile
  3869   004EA8                     
  3870                           ; BSR set to: 2
  3871   004EA8  0012               	return		;funcret
  3872   004EAA                     __end_of_I2C1_MasterSendAck:
  3873                           	callstack 0
  3874                           
  3875 ;; *************** function _I2C1_MasterIsRxBufFull *****************
  3876 ;; Defined at:
  3877 ;;		line 738 in file "mcc_generated_files/i2c1_master.c"
  3878 ;; Parameters:    Size  Location     Type
  3879 ;;		None
  3880 ;; Auto vars:     Size  Location     Type
  3881 ;;		None
  3882 ;; Return value:  Size  Location     Type
  3883 ;;                  1    wreg      _Bool 
  3884 ;; Registers used:
  3885 ;;		wreg
  3886 ;; Tracked objects:
  3887 ;;		On entry : 0/0
  3888 ;;		On exit  : 0/0
  3889 ;;		Unchanged: 0/0
  3890 ;; Data sizes:     COMRAM   BANK5   BANK6   BANK7   BANK8   BANK9  BANK10  BANK11  BANK12  BANK13  BANK14  BANK15  BANK1
      +6  BANK17  BANK18  BANK19  BANK20  BANK21  BANK22  BANK23  BANK24  BANK25  BANK26  BANK27  BANK28  BANK29  BANK30  BANK3
      +1  BANK32  BANK33  BANK34  BANK35  BANK36  BANK37  BANK38  BANK39  BANK40  BANK41  BANK42  BANK43  BANK44  BANK45  BANK4
      +6  BANK47  BANK48  BANK49  BANK50  BANK51  BANK52  BANK53  BANK54
  3891 ;;      Params:         0       0       0       0       0       0       0       0       0       0       0       0       
      +0       0       0       0       0       0       0       0       0       0       0       0       0       0       0       
      +0       0       0       0       0       0       0       0       0       0       0       0       0       0       0       
      +0       0       0       0       0       0       0       0       0
  3892 ;;      Locals:         0       0       0       0       0       0       0       0       0       0       0       0       
      +0       0       0       0       0       0       0       0       0       0       0       0       0       0       0       
      +0       0       0       0       0       0       0       0       0       0       0       0       0       0       0       
      +0       0       0       0       0       0       0       0       0
  3893 ;;      Temps:          0       0       0       0       0       0       0       0       0       0       0       0       
      +0       0       0       0       0       0       0       0       0       0       0       0       0       0       0       
      +0       0       0       0       0       0       0       0       0       0       0       0       0       0       0       
      +0       0       0       0       0       0       0       0       0
  3894 ;;      Totals:         0       0       0       0       0       0       0       0       0       0       0       0       
      +0       0       0       0       0       0       0       0       0       0       0       0       0       0       0       
      +0       0       0       0       0       0       0       0       0       0       0       0       0       0       0       
      +0       0       0       0       0       0       0       0       0
  3895 ;;Total ram usage:        0 bytes
  3896 ;; Hardware stack levels used: 1
  3897 ;; This function calls:
  3898 ;;		Nothing
  3899 ;; This function is called by:
  3900 ;;		_I2C1_DO_RX
  3901 ;; This function uses a non-reentrant model
  3902 ;;
  3903                           
  3904                           	psect	text41
  3905   004D6C                     __ptext41:
  3906                           	callstack 0
  3907   004D6C                     _I2C1_MasterIsRxBufFull:
  3908                           	callstack 116
  3909   004D6C                     
  3910                           ;mcc_generated_files/i2c1_master.c: 740:     return I2C1STAT1bits.RXBF;
  3911   004D6C  0102               	movlb	2	; () banked
  3912   004D6E  B199               	btfsc	153,0,b	;volatile
  3913   004D70  EFBC  F026         	goto	u121
  3914   004D74  EFBF  F026         	goto	u120
  3915   004D78                     u121:
  3916   004D78  0E01               	movlw	1
  3917   004D7A  EFC0  F026         	goto	u126
  3918   004D7E                     u120:
  3919   004D7E  0E00               	movlw	0
  3920   004D80                     u126:
  3921   004D80                     
  3922                           ; BSR set to: 2
  3923   004D80  0012               	return		;funcret
  3924   004D82                     __end_of_I2C1_MasterIsRxBufFull:
  3925                           	callstack 0
  3926                           
  3927 ;; *************** function _I2C1_MasterGetRxData *****************
  3928 ;; Defined at:
  3929 ;;		line 667 in file "mcc_generated_files/i2c1_master.c"
  3930 ;; Parameters:    Size  Location     Type
  3931 ;;		None
  3932 ;; Auto vars:     Size  Location     Type
  3933 ;;		None
  3934 ;; Return value:  Size  Location     Type
  3935 ;;                  1    wreg      unsigned char 
  3936 ;; Registers used:
  3937 ;;		wreg, status,2
  3938 ;; Tracked objects:
  3939 ;;		On entry : 0/0
  3940 ;;		On exit  : 0/0
  3941 ;;		Unchanged: 0/0
  3942 ;; Data sizes:     COMRAM   BANK5   BANK6   BANK7   BANK8   BANK9  BANK10  BANK11  BANK12  BANK13  BANK14  BANK15  BANK1
      +6  BANK17  BANK18  BANK19  BANK20  BANK21  BANK22  BANK23  BANK24  BANK25  BANK26  BANK27  BANK28  BANK29  BANK30  BANK3
      +1  BANK32  BANK33  BANK34  BANK35  BANK36  BANK37  BANK38  BANK39  BANK40  BANK41  BANK42  BANK43  BANK44  BANK45  BANK4
      +6  BANK47  BANK48  BANK49  BANK50  BANK51  BANK52  BANK53  BANK54
  3943 ;;      Params:         0       0       0       0       0       0       0       0       0       0       0       0       
      +0       0       0       0       0       0       0       0       0       0       0       0       0       0       0       
      +0       0       0       0       0       0       0       0       0       0       0       0       0       0       0       
      +0       0       0       0       0       0       0       0       0
  3944 ;;      Locals:         0       0       0       0       0       0       0       0       0       0       0       0       
      +0       0       0       0       0       0       0       0       0       0       0       0       0       0       0       
      +0       0       0       0       0       0       0       0       0       0       0       0       0       0       0       
      +0       0       0       0       0       0       0       0       0
  3945 ;;      Temps:          0       0       0       0       0       0       0       0       0       0       0       0       
      +0       0       0       0       0       0       0       0       0       0       0       0       0       0       0       
      +0       0       0       0       0       0       0       0       0       0       0       0       0       0       0       
      +0       0       0       0       0       0       0       0       0
  3946 ;;      Totals:         0       0       0       0       0       0       0       0       0       0       0       0       
      +0       0       0       0       0       0       0       0       0       0       0       0       0       0       0       
      +0       0       0       0       0       0       0       0       0       0       0       0       0       0       0       
      +0       0       0       0       0       0       0       0       0
  3947 ;;Total ram usage:        0 bytes
  3948 ;; Hardware stack levels used: 1
  3949 ;; This function calls:
  3950 ;;		Nothing
  3951 ;; This function is called by:
  3952 ;;		_I2C1_DO_RX
  3953 ;; This function uses a non-reentrant model
  3954 ;;
  3955                           
  3956                           	psect	text42
  3957   004EAA                     __ptext42:
  3958                           	callstack 0
  3959   004EAA                     _I2C1_MasterGetRxData:
  3960                           	callstack 116
  3961   004EAA                     
  3962                           ;mcc_generated_files/i2c1_master.c: 669:     return I2C1RXB;
  3963   004EAA  0102               	movlb	2	; () banked
  3964   004EAC  518A               	movf	138,w,b	;volatile
  3965   004EAE                     
  3966                           ; BSR set to: 2
  3967   004EAE  0012               	return		;funcret
  3968   004EB0                     __end_of_I2C1_MasterGetRxData:
  3969                           	callstack 0
  3970                           
  3971 ;; *************** function _I2C1_MasterSendTxData *****************
  3972 ;; Defined at:
  3973 ;;		line 672 in file "mcc_generated_files/i2c1_master.c"
  3974 ;; Parameters:    Size  Location     Type
  3975 ;;  data            1    wreg     unsigned char 
  3976 ;; Auto vars:     Size  Location     Type
  3977 ;;  data            1    0[COMRAM] unsigned char 
  3978 ;; Return value:  Size  Location     Type
  3979 ;;                  1    wreg      void 
  3980 ;; Registers used:
  3981 ;;		wreg
  3982 ;; Tracked objects:
  3983 ;;		On entry : 0/0
  3984 ;;		On exit  : 0/0
  3985 ;;		Unchanged: 0/0
  3986 ;; Data sizes:     COMRAM   BANK5   BANK6   BANK7   BANK8   BANK9  BANK10  BANK11  BANK12  BANK13  BANK14  BANK15  BANK1
      +6  BANK17  BANK18  BANK19  BANK20  BANK21  BANK22  BANK23  BANK24  BANK25  BANK26  BANK27  BANK28  BANK29  BANK30  BANK3
      +1  BANK32  BANK33  BANK34  BANK35  BANK36  BANK37  BANK38  BANK39  BANK40  BANK41  BANK42  BANK43  BANK44  BANK45  BANK4
      +6  BANK47  BANK48  BANK49  BANK50  BANK51  BANK52  BANK53  BANK54
  3987 ;;      Params:         0       0       0       0       0       0       0       0       0       0       0       0       
      +0       0       0       0       0       0       0       0       0       0       0       0       0       0       0       
      +0       0       0       0       0       0       0       0       0       0       0       0       0       0       0       
      +0       0       0       0       0       0       0       0       0
  3988 ;;      Locals:         1       0       0       0       0       0       0       0       0       0       0       0       
      +0       0       0       0       0       0       0       0       0       0       0       0       0       0       0       
      +0       0       0       0       0       0       0       0       0       0       0       0       0       0       0       
      +0       0       0       0       0       0       0       0       0
  3989 ;;      Temps:          0       0       0       0       0       0       0       0       0       0       0       0       
      +0       0       0       0       0       0       0       0       0       0       0       0       0       0       0       
      +0       0       0       0       0       0       0       0       0       0       0       0       0       0       0       
      +0       0       0       0       0       0       0       0       0
  3990 ;;      Totals:         1       0       0       0       0       0       0       0       0       0       0       0       
      +0       0       0       0       0       0       0       0       0       0       0       0       0       0       0       
      +0       0       0       0       0       0       0       0       0       0       0       0       0       0       0       
      +0       0       0       0       0       0       0       0       0
  3991 ;;Total ram usage:        1 bytes
  3992 ;; Hardware stack levels used: 1
  3993 ;; This function calls:
  3994 ;;		Nothing
  3995 ;; This function is called by:
  3996 ;;		_I2C1_DO_SEND_ADR_READ
  3997 ;;		_I2C1_DO_SEND_ADR_WRITE
  3998 ;;		_I2C1_DO_TX
  3999 ;;		_I2C1_DO_SEND_STOP
  4000 ;; This function uses a non-reentrant model
  4001 ;;
  4002                           
  4003                           	psect	text43
  4004   004E82                     __ptext43:
  4005                           	callstack 0
  4006   004E82                     _I2C1_MasterSendTxData:
  4007                           	callstack 116
  4008                           
  4009                           ; BSR set to: 2
  4010                           ;incstack = 0
  4011                           ;I2C1_MasterSendTxData@data stored from wreg
  4012   004E82  6E2C               	movwf	I2C1_MasterSendTxData@data^(0+1280),c
  4013   004E84                     
  4014                           ;mcc_generated_files/i2c1_master.c: 672: static __attribute__((inline)) void I2C1_Master
      +                          SendTxData(uint8_t data);mcc_generated_files/i2c1_master.c: 673: {;mcc_generated_files/i
      +                          2c1_master.c: 674:     I2C1TXB = data;
  4015   004E84  C52C  F28B         	movff	I2C1_MasterSendTxData@data,651	;volatile
  4016   004E88  0012               	return		;funcret
  4017   004E8A                     __end_of_I2C1_MasterSendTxData:
  4018                           	callstack 0
  4019                           
  4020 ;; *************** function _I2C1_MasterSetCounter *****************
  4021 ;; Defined at:
  4022 ;;		line 682 in file "mcc_generated_files/i2c1_master.c"
  4023 ;; Parameters:    Size  Location     Type
  4024 ;;  counter         1    wreg     unsigned char 
  4025 ;; Auto vars:     Size  Location     Type
  4026 ;;  counter         1    0[COMRAM] unsigned char 
  4027 ;; Return value:  Size  Location     Type
  4028 ;;                  1    wreg      void 
  4029 ;; Registers used:
  4030 ;;		wreg, status,2
  4031 ;; Tracked objects:
  4032 ;;		On entry : 0/0
  4033 ;;		On exit  : 0/0
  4034 ;;		Unchanged: 0/0
  4035 ;; Data sizes:     COMRAM   BANK5   BANK6   BANK7   BANK8   BANK9  BANK10  BANK11  BANK12  BANK13  BANK14  BANK15  BANK1
      +6  BANK17  BANK18  BANK19  BANK20  BANK21  BANK22  BANK23  BANK24  BANK25  BANK26  BANK27  BANK28  BANK29  BANK30  BANK3
      +1  BANK32  BANK33  BANK34  BANK35  BANK36  BANK37  BANK38  BANK39  BANK40  BANK41  BANK42  BANK43  BANK44  BANK45  BANK4
      +6  BANK47  BANK48  BANK49  BANK50  BANK51  BANK52  BANK53  BANK54
  4036 ;;      Params:         0       0       0       0       0       0       0       0       0       0       0       0       
      +0       0       0       0       0       0       0       0       0       0       0       0       0       0       0       
      +0       0       0       0       0       0       0       0       0       0       0       0       0       0       0       
      +0       0       0       0       0       0       0       0       0
  4037 ;;      Locals:         1       0       0       0       0       0       0       0       0       0       0       0       
      +0       0       0       0       0       0       0       0       0       0       0       0       0       0       0       
      +0       0       0       0       0       0       0       0       0       0       0       0       0       0       0       
      +0       0       0       0       0       0       0       0       0
  4038 ;;      Temps:          0       0       0       0       0       0       0       0       0       0       0       0       
      +0       0       0       0       0       0       0       0       0       0       0       0       0       0       0       
      +0       0       0       0       0       0       0       0       0       0       0       0       0       0       0       
      +0       0       0       0       0       0       0       0       0
  4039 ;;      Totals:         1       0       0       0       0       0       0       0       0       0       0       0       
      +0       0       0       0       0       0       0       0       0       0       0       0       0       0       0       
      +0       0       0       0       0       0       0       0       0       0       0       0       0       0       0       
      +0       0       0       0       0       0       0       0       0
  4040 ;;Total ram usage:        1 bytes
  4041 ;; Hardware stack levels used: 1
  4042 ;; This function calls:
  4043 ;;		Nothing
  4044 ;; This function is called by:
  4045 ;;		_I2C1_MasterOperation
  4046 ;;		_I2C1_DO_TX_EMPTY
  4047 ;;		_I2C1_DO_RX_EMPTY
  4048 ;;		_I2C1_DO_SEND_RESTART_READ
  4049 ;;		_I2C1_DO_SEND_STOP
  4050 ;; This function uses a non-reentrant model
  4051 ;;
  4052                           
  4053                           	psect	text44
  4054   004E28                     __ptext44:
  4055                           	callstack 0
  4056   004E28                     _I2C1_MasterSetCounter:
  4057                           	callstack 116
  4058                           
  4059                           ;incstack = 0
  4060                           ;I2C1_MasterSetCounter@counter stored from wreg
  4061   004E28  6E2C               	movwf	I2C1_MasterSetCounter@counter^(0+1280),c
  4062   004E2A                     
  4063                           ;mcc_generated_files/i2c1_master.c: 682: static __attribute__((inline)) void I2C1_Master
      +                          SetCounter(uint8_t counter);mcc_generated_files/i2c1_master.c: 683: {;mcc_generated_file
      +                          s/i2c1_master.c: 684:     I2C1CNTL = counter;
  4064   004E2A  C52C  F28C         	movff	I2C1_MasterSetCounter@counter,652	;volatile
  4065   004E2E                     
  4066                           ;mcc_generated_files/i2c1_master.c: 685:     I2C1CNTH = 0x00;
  4067   004E2E  0E00               	movlw	0
  4068   004E30  0102               	movlb	2	; () banked
  4069   004E32  6F8D               	movwf	141,b	;volatile
  4070   004E34                     
  4071                           ; BSR set to: 2
  4072   004E34  0012               	return		;funcret
  4073   004E36                     __end_of_I2C1_MasterSetCounter:
  4074                           	callstack 0
  4075                           
  4076 ;; *************** function _I2C1_MasterEnableRestart *****************
  4077 ;; Defined at:
  4078 ;;		line 698 in file "mcc_generated_files/i2c1_master.c"
  4079 ;; Parameters:    Size  Location     Type
  4080 ;;		None
  4081 ;; Auto vars:     Size  Location     Type
  4082 ;;		None
  4083 ;; Return value:  Size  Location     Type
  4084 ;;                  1    wreg      void 
  4085 ;; Registers used:
  4086 ;;		None
  4087 ;; Tracked objects:
  4088 ;;		On entry : 0/0
  4089 ;;		On exit  : 0/0
  4090 ;;		Unchanged: 0/0
  4091 ;; Data sizes:     COMRAM   BANK5   BANK6   BANK7   BANK8   BANK9  BANK10  BANK11  BANK12  BANK13  BANK14  BANK15  BANK1
      +6  BANK17  BANK18  BANK19  BANK20  BANK21  BANK22  BANK23  BANK24  BANK25  BANK26  BANK27  BANK28  BANK29  BANK30  BANK3
      +1  BANK32  BANK33  BANK34  BANK35  BANK36  BANK37  BANK38  BANK39  BANK40  BANK41  BANK42  BANK43  BANK44  BANK45  BANK4
      +6  BANK47  BANK48  BANK49  BANK50  BANK51  BANK52  BANK53  BANK54
  4092 ;;      Params:         0       0       0       0       0       0       0       0       0       0       0       0       
      +0       0       0       0       0       0       0       0       0       0       0       0       0       0       0       
      +0       0       0       0       0       0       0       0       0       0       0       0       0       0       0       
      +0       0       0       0       0       0       0       0       0
  4093 ;;      Locals:         0       0       0       0       0       0       0       0       0       0       0       0       
      +0       0       0       0       0       0       0       0       0       0       0       0       0       0       0       
      +0       0       0       0       0       0       0       0       0       0       0       0       0       0       0       
      +0       0       0       0       0       0       0       0       0
  4094 ;;      Temps:          0       0       0       0       0       0       0       0       0       0       0       0       
      +0       0       0       0       0       0       0       0       0       0       0       0       0       0       0       
      +0       0       0       0       0       0       0       0       0       0       0       0       0       0       0       
      +0       0       0       0       0       0       0       0       0
  4095 ;;      Totals:         0       0       0       0       0       0       0       0       0       0       0       0       
      +0       0       0       0       0       0       0       0       0       0       0       0       0       0       0       
      +0       0       0       0       0       0       0       0       0       0       0       0       0       0       0       
      +0       0       0       0       0       0       0       0       0
  4096 ;;Total ram usage:        0 bytes
  4097 ;; Hardware stack levels used: 1
  4098 ;; This function calls:
  4099 ;;		Nothing
  4100 ;; This function is called by:
  4101 ;;		_I2C1_DO_TX_EMPTY
  4102 ;;		_I2C1_DO_RX_EMPTY
  4103 ;; This function uses a non-reentrant model
  4104 ;;
  4105                           
  4106                           	psect	text45
  4107   004EB0                     __ptext45:
  4108                           	callstack 0
  4109   004EB0                     _I2C1_MasterEnableRestart:
  4110                           	callstack 116
  4111   004EB0                     
  4112                           ;mcc_generated_files/i2c1_master.c: 701:     I2C1CON0bits.RSEN = 1;
  4113   004EB0  0102               	movlb	2	; () banked
  4114   004EB2  8D94               	bsf	148,6,b	;volatile
  4115   004EB4                     
  4116                           ; BSR set to: 2
  4117   004EB4  0012               	return		;funcret
  4118   004EB6                     __end_of_I2C1_MasterEnableRestart:
  4119                           	callstack 0
  4120                           
  4121 ;; *************** function _I2C1_MasterDisableRestart *****************
  4122 ;; Defined at:
  4123 ;;		line 704 in file "mcc_generated_files/i2c1_master.c"
  4124 ;; Parameters:    Size  Location     Type
  4125 ;;		None
  4126 ;; Auto vars:     Size  Location     Type
  4127 ;;		None
  4128 ;; Return value:  Size  Location     Type
  4129 ;;                  1    wreg      void 
  4130 ;; Registers used:
  4131 ;;		None
  4132 ;; Tracked objects:
  4133 ;;		On entry : 0/0
  4134 ;;		On exit  : 0/0
  4135 ;;		Unchanged: 0/0
  4136 ;; Data sizes:     COMRAM   BANK5   BANK6   BANK7   BANK8   BANK9  BANK10  BANK11  BANK12  BANK13  BANK14  BANK15  BANK1
      +6  BANK17  BANK18  BANK19  BANK20  BANK21  BANK22  BANK23  BANK24  BANK25  BANK26  BANK27  BANK28  BANK29  BANK30  BANK3
      +1  BANK32  BANK33  BANK34  BANK35  BANK36  BANK37  BANK38  BANK39  BANK40  BANK41  BANK42  BANK43  BANK44  BANK45  BANK4
      +6  BANK47  BANK48  BANK49  BANK50  BANK51  BANK52  BANK53  BANK54
  4137 ;;      Params:         0       0       0       0       0       0       0       0       0       0       0       0       
      +0       0       0       0       0       0       0       0       0       0       0       0       0       0       0       
      +0       0       0       0       0       0       0       0       0       0       0       0       0       0       0       
      +0       0       0       0       0       0       0       0       0
  4138 ;;      Locals:         0       0       0       0       0       0       0       0       0       0       0       0       
      +0       0       0       0       0       0       0       0       0       0       0       0       0       0       0       
      +0       0       0       0       0       0       0       0       0       0       0       0       0       0       0       
      +0       0       0       0       0       0       0       0       0
  4139 ;;      Temps:          0       0       0       0       0       0       0       0       0       0       0       0       
      +0       0       0       0       0       0       0       0       0       0       0       0       0       0       0       
      +0       0       0       0       0       0       0       0       0       0       0       0       0       0       0       
      +0       0       0       0       0       0       0       0       0
  4140 ;;      Totals:         0       0       0       0       0       0       0       0       0       0       0       0       
      +0       0       0       0       0       0       0       0       0       0       0       0       0       0       0       
      +0       0       0       0       0       0       0       0       0       0       0       0       0       0       0       
      +0       0       0       0       0       0       0       0       0
  4141 ;;Total ram usage:        0 bytes
  4142 ;; Hardware stack levels used: 1
  4143 ;; This function calls:
  4144 ;;		Nothing
  4145 ;; This function is called by:
  4146 ;;		_I2C1_DO_TX_EMPTY
  4147 ;;		_I2C1_DO_RX_EMPTY
  4148 ;; This function uses a non-reentrant model
  4149 ;;
  4150                           
  4151                           	psect	text46
  4152   004EB6                     __ptext46:
  4153                           	callstack 0
  4154   004EB6                     _I2C1_MasterDisableRestart:
  4155                           	callstack 116
  4156   004EB6                     
  4157                           ;mcc_generated_files/i2c1_master.c: 707:     I2C1CON0bits.RSEN = 0;
  4158   004EB6  0102               	movlb	2	; () banked
  4159   004EB8  9D94               	bcf	148,6,b	;volatile
  4160   004EBA                     
  4161                           ; BSR set to: 2
  4162   004EBA  0012               	return		;funcret
  4163   004EBC                     __end_of_I2C1_MasterDisableRestart:
  4164                           	callstack 0
  4165                           
  4166 ;; *************** function _I2C1_MasterResetBus *****************
  4167 ;; Defined at:
  4168 ;;		line 688 in file "mcc_generated_files/i2c1_master.c"
  4169 ;; Parameters:    Size  Location     Type
  4170 ;;		None
  4171 ;; Auto vars:     Size  Location     Type
  4172 ;;		None
  4173 ;; Return value:  Size  Location     Type
  4174 ;;                  1    wreg      void 
  4175 ;; Registers used:
  4176 ;;		None
  4177 ;; Tracked objects:
  4178 ;;		On entry : 0/0
  4179 ;;		On exit  : 0/0
  4180 ;;		Unchanged: 0/0
  4181 ;; Data sizes:     COMRAM   BANK5   BANK6   BANK7   BANK8   BANK9  BANK10  BANK11  BANK12  BANK13  BANK14  BANK15  BANK1
      +6  BANK17  BANK18  BANK19  BANK20  BANK21  BANK22  BANK23  BANK24  BANK25  BANK26  BANK27  BANK28  BANK29  BANK30  BANK3
      +1  BANK32  BANK33  BANK34  BANK35  BANK36  BANK37  BANK38  BANK39  BANK40  BANK41  BANK42  BANK43  BANK44  BANK45  BANK4
      +6  BANK47  BANK48  BANK49  BANK50  BANK51  BANK52  BANK53  BANK54
  4182 ;;      Params:         0       0       0       0       0       0       0       0       0       0       0       0       
      +0       0       0       0       0       0       0       0       0       0       0       0       0       0       0       
      +0       0       0       0       0       0       0       0       0       0       0       0       0       0       0       
      +0       0       0       0       0       0       0       0       0
  4183 ;;      Locals:         0       0       0       0       0       0       0       0       0       0       0       0       
      +0       0       0       0       0       0       0       0       0       0       0       0       0       0       0       
      +0       0       0       0       0       0       0       0       0       0       0       0       0       0       0       
      +0       0       0       0       0       0       0       0       0
  4184 ;;      Temps:          0       0       0       0       0       0       0       0       0       0       0       0       
      +0       0       0       0       0       0       0       0       0       0       0       0       0       0       0       
      +0       0       0       0       0       0       0       0       0       0       0       0       0       0       0       
      +0       0       0       0       0       0       0       0       0
  4185 ;;      Totals:         0       0       0       0       0       0       0       0       0       0       0       0       
      +0       0       0       0       0       0       0       0       0       0       0       0       0       0       0       
      +0       0       0       0       0       0       0       0       0       0       0       0       0       0       0       
      +0       0       0       0       0       0       0       0       0
  4186 ;;Total ram usage:        0 bytes
  4187 ;; Hardware stack levels used: 1
  4188 ;; This function calls:
  4189 ;;		Nothing
  4190 ;; This function is called by:
  4191 ;;		_I2C1_DO_RESET
  4192 ;;		_I2C1_DO_BUS_ERROR
  4193 ;; This function uses a non-reentrant model
  4194 ;;
  4195                           
  4196                           	psect	text47
  4197   004E58                     __ptext47:
  4198                           	callstack 0
  4199   004E58                     _I2C1_MasterResetBus:
  4200                           	callstack 116
  4201   004E58                     
  4202                           ;mcc_generated_files/i2c1_master.c: 691:     I2C1CON0bits.EN = 0;
  4203   004E58  0102               	movlb	2	; () banked
  4204   004E5A  9F94               	bcf	148,7,b	;volatile
  4205                           
  4206                           ;mcc_generated_files/i2c1_master.c: 693:     I2C1STAT1bits.CLRBF = 1;
  4207   004E5C  8599               	bsf	153,2,b	;volatile
  4208                           
  4209                           ;mcc_generated_files/i2c1_master.c: 695:     I2C1CON0bits.EN = 1;
  4210   004E5E  8F94               	bsf	148,7,b	;volatile
  4211   004E60                     
  4212                           ; BSR set to: 2
  4213   004E60  0012               	return		;funcret
  4214   004E62                     __end_of_I2C1_MasterResetBus:
  4215                           	callstack 0
  4216                           
  4217 ;; *************** function _I2C1_CallbackReturnReset *****************
  4218 ;; Defined at:
  4219 ;;		line 617 in file "mcc_generated_files/i2c1_master.c"
  4220 ;; Parameters:    Size  Location     Type
  4221 ;;  funPtr          2   11[COMRAM] PTR void 
  4222 ;;		 -> I2C1_ReadDataBlock@bufferBlock(4), I2C1_Write2ByteRegister@data(2), I2C1_Write1ByteRegister@data(1), I2C1_Read2B
      +yteRegister@returnValue(2), 
  4223 ;;		 -> I2C1_Read1ByteRegister@returnValue(1), i2c_readDataBlock@d(4), i2c_write2ByteRegister@data(2), i2c_read2ByteRegi
      +ster@result(2), 
  4224 ;;		 -> i2c_read1ByteRegister@d2(1), i2c_write1ByteRegister@data(1), NULL(0), 
  4225 ;; Auto vars:     Size  Location     Type
  4226 ;;		None
  4227 ;; Return value:  Size  Location     Type
  4228 ;;                  1    wreg      enum E360
  4229 ;; Registers used:
  4230 ;;		wreg
  4231 ;; Tracked objects:
  4232 ;;		On entry : 0/0
  4233 ;;		On exit  : 0/0
  4234 ;;		Unchanged: 0/0
  4235 ;; Data sizes:     COMRAM   BANK5   BANK6   BANK7   BANK8   BANK9  BANK10  BANK11  BANK12  BANK13  BANK14  BANK15  BANK1
      +6  BANK17  BANK18  BANK19  BANK20  BANK21  BANK22  BANK23  BANK24  BANK25  BANK26  BANK27  BANK28  BANK29  BANK30  BANK3
      +1  BANK32  BANK33  BANK34  BANK35  BANK36  BANK37  BANK38  BANK39  BANK40  BANK41  BANK42  BANK43  BANK44  BANK45  BANK4
      +6  BANK47  BANK48  BANK49  BANK50  BANK51  BANK52  BANK53  BANK54
  4236 ;;      Params:         2       0       0       0       0       0       0       0       0       0       0       0       
      +0       0       0       0       0       0       0       0       0       0       0       0       0       0       0       
      +0       0       0       0       0       0       0       0       0       0       0       0       0       0       0       
      +0       0       0       0       0       0       0       0       0
  4237 ;;      Locals:         0       0       0       0       0       0       0       0       0       0       0       0       
      +0       0       0       0       0       0       0       0       0       0       0       0       0       0       0       
      +0       0       0       0       0       0       0       0       0       0       0       0       0       0       0       
      +0       0       0       0       0       0       0       0       0
  4238 ;;      Temps:          0       0       0       0       0       0       0       0       0       0       0       0       
      +0       0       0       0       0       0       0       0       0       0       0       0       0       0       0       
      +0       0       0       0       0       0       0       0       0       0       0       0       0       0       0       
      +0       0       0       0       0       0       0       0       0
  4239 ;;      Totals:         2       0       0       0       0       0       0       0       0       0       0       0       
      +0       0       0       0       0       0       0       0       0       0       0       0       0       0       0       
      +0       0       0       0       0       0       0       0       0       0       0       0       0       0       0       
      +0       0       0       0       0       0       0       0       0
  4240 ;;Total ram usage:        2 bytes
  4241 ;; Hardware stack levels used: 1
  4242 ;; This function calls:
  4243 ;;		Nothing
  4244 ;; This function is called by:
  4245 ;;		_I2C1_Open
  4246 ;;		_I2C1_DO_RX_EMPTY
  4247 ;;		_I2C1_DO_TX_EMPTY
  4248 ;;		_I2C1_DO_TX
  4249 ;;		_I2C1_DO_ADDRESS_NACK
  4250 ;;		_I2C1_DO_BUS_COLLISION
  4251 ;; This function uses a non-reentrant model
  4252 ;;
  4253                           
  4254                           	psect	text48
  4255   004ED6                     __ptext48:
  4256                           	callstack 0
  4257   004ED6                     _I2C1_CallbackReturnReset:
  4258                           	callstack 116
  4259   004ED6                     
  4260                           ;mcc_generated_files/i2c1_master.c: 617: i2c1_operations_t I2C1_CallbackReturnReset(void
      +                           *funPtr);mcc_generated_files/i2c1_master.c: 618: {;mcc_generated_files/i2c1_master.c: 6
      +                          19:     return I2C1_RESET_LINK;
  4261   004ED6  0E05               	movlw	5
  4262   004ED8  0012               	return		;funcret
  4263   004EDA                     __end_of_I2C1_CallbackReturnReset:
  4264                           	callstack 0
  4265                           
  4266 ;; *************** function _I2C1_CallbackReturnStop *****************
  4267 ;; Defined at:
  4268 ;;		line 612 in file "mcc_generated_files/i2c1_master.c"
  4269 ;; Parameters:    Size  Location     Type
  4270 ;;  funPtr          2   11[COMRAM] PTR void 
  4271 ;;		 -> I2C1_ReadDataBlock@bufferBlock(4), I2C1_Write2ByteRegister@data(2), I2C1_Write1ByteRegister@data(1), I2C1_Read2B
      +yteRegister@returnValue(2), 
  4272 ;;		 -> I2C1_Read1ByteRegister@returnValue(1), i2c_readDataBlock@d(4), i2c_write2ByteRegister@data(2), i2c_read2ByteRegi
      +ster@result(2), 
  4273 ;;		 -> i2c_read1ByteRegister@d2(1), i2c_write1ByteRegister@data(1), NULL(0), 
  4274 ;; Auto vars:     Size  Location     Type
  4275 ;;		None
  4276 ;; Return value:  Size  Location     Type
  4277 ;;                  1    wreg      enum E360
  4278 ;; Registers used:
  4279 ;;		wreg
  4280 ;; Tracked objects:
  4281 ;;		On entry : 0/0
  4282 ;;		On exit  : 0/0
  4283 ;;		Unchanged: 0/0
  4284 ;; Data sizes:     COMRAM   BANK5   BANK6   BANK7   BANK8   BANK9  BANK10  BANK11  BANK12  BANK13  BANK14  BANK15  BANK1
      +6  BANK17  BANK18  BANK19  BANK20  BANK21  BANK22  BANK23  BANK24  BANK25  BANK26  BANK27  BANK28  BANK29  BANK30  BANK3
      +1  BANK32  BANK33  BANK34  BANK35  BANK36  BANK37  BANK38  BANK39  BANK40  BANK41  BANK42  BANK43  BANK44  BANK45  BANK4
      +6  BANK47  BANK48  BANK49  BANK50  BANK51  BANK52  BANK53  BANK54
  4285 ;;      Params:         2       0       0       0       0       0       0       0       0       0       0       0       
      +0       0       0       0       0       0       0       0       0       0       0       0       0       0       0       
      +0       0       0       0       0       0       0       0       0       0       0       0       0       0       0       
      +0       0       0       0       0       0       0       0       0
  4286 ;;      Locals:         0       0       0       0       0       0       0       0       0       0       0       0       
      +0       0       0       0       0       0       0       0       0       0       0       0       0       0       0       
      +0       0       0       0       0       0       0       0       0       0       0       0       0       0       0       
      +0       0       0       0       0       0       0       0       0
  4287 ;;      Temps:          0       0       0       0       0       0       0       0       0       0       0       0       
      +0       0       0       0       0       0       0       0       0       0       0       0       0       0       0       
      +0       0       0       0       0       0       0       0       0       0       0       0       0       0       0       
      +0       0       0       0       0       0       0       0       0
  4288 ;;      Totals:         2       0       0       0       0       0       0       0       0       0       0       0       
      +0       0       0       0       0       0       0       0       0       0       0       0       0       0       0       
      +0       0       0       0       0       0       0       0       0       0       0       0       0       0       0       
      +0       0       0       0       0       0       0       0       0
  4289 ;;Total ram usage:        2 bytes
  4290 ;; Hardware stack levels used: 1
  4291 ;; This function calls:
  4292 ;;		Nothing
  4293 ;; This function is called by:
  4294 ;;		_I2C1_Open
  4295 ;;		_I2C1_SetCallback
  4296 ;;		_I2C1_DO_RX_EMPTY
  4297 ;;		_I2C1_DO_TX_EMPTY
  4298 ;;		_I2C1_DO_TX
  4299 ;;		_I2C1_DO_ADDRESS_NACK
  4300 ;;		_I2C1_DO_BUS_COLLISION
  4301 ;; This function uses a non-reentrant model
  4302 ;;
  4303                           
  4304                           	psect	text49
  4305   004EDA                     __ptext49:
  4306                           	callstack 0
  4307   004EDA                     _I2C1_CallbackReturnStop:
  4308                           	callstack 116
  4309   004EDA                     
  4310                           ;mcc_generated_files/i2c1_master.c: 612: i2c1_operations_t I2C1_CallbackReturnStop(void 
      +                          *funPtr);mcc_generated_files/i2c1_master.c: 613: {;mcc_generated_files/i2c1_master.c: 61
      +                          4:     return I2C1_STOP;
  4311   004EDA  0E01               	movlw	1
  4312   004EDC  0012               	return		;funcret
  4313   004EDE                     __end_of_I2C1_CallbackReturnStop:
  4314                           	callstack 0
  4315                           
  4316 ;; *************** function _rdBlkRegCompleteHandler@i2c1_master_example$F179 *****************
  4317 ;; Defined at:
  4318 ;;		line 170 in file "mcc_generated_files/examples/i2c1_master_example.c"
  4319 ;; Parameters:    Size  Location     Type
  4320 ;;  ptr             2   11[COMRAM] PTR void 
  4321 ;;		 -> I2C1_ReadDataBlock@bufferBlock(4), I2C1_Write2ByteRegister@data(2), I2C1_Write1ByteRegister@data(1), I2C1_Read2B
      +yteRegister@returnValue(2), 
  4322 ;;		 -> I2C1_Read1ByteRegister@returnValue(1), i2c_readDataBlock@d(4), i2c_write2ByteRegister@data(2), i2c_read2ByteRegi
      +ster@result(2), 
  4323 ;;		 -> i2c_read1ByteRegister@d2(1), i2c_write1ByteRegister@data(1), NULL(0), 
  4324 ;; Auto vars:     Size  Location     Type
  4325 ;;		None
  4326 ;; Return value:  Size  Location     Type
  4327 ;;                  1    wreg      enum E360
  4328 ;; Registers used:
  4329 ;;		wreg, fsr2l, fsr2h, status,2, status,0, prodl, prodh, cstack
  4330 ;; Tracked objects:
  4331 ;;		On entry : 0/0
  4332 ;;		On exit  : 0/0
  4333 ;;		Unchanged: 0/0
  4334 ;; Data sizes:     COMRAM   BANK5   BANK6   BANK7   BANK8   BANK9  BANK10  BANK11  BANK12  BANK13  BANK14  BANK15  BANK1
      +6  BANK17  BANK18  BANK19  BANK20  BANK21  BANK22  BANK23  BANK24  BANK25  BANK26  BANK27  BANK28  BANK29  BANK30  BANK3
      +1  BANK32  BANK33  BANK34  BANK35  BANK36  BANK37  BANK38  BANK39  BANK40  BANK41  BANK42  BANK43  BANK44  BANK45  BANK4
      +6  BANK47  BANK48  BANK49  BANK50  BANK51  BANK52  BANK53  BANK54
  4335 ;;      Params:         2       0       0       0       0       0       0       0       0       0       0       0       
      +0       0       0       0       0       0       0       0       0       0       0       0       0       0       0       
      +0       0       0       0       0       0       0       0       0       0       0       0       0       0       0       
      +0       0       0       0       0       0       0       0       0
  4336 ;;      Locals:         0       0       0       0       0       0       0       0       0       0       0       0       
      +0       0       0       0       0       0       0       0       0       0       0       0       0       0       0       
      +0       0       0       0       0       0       0       0       0       0       0       0       0       0       0       
      +0       0       0       0       0       0       0       0       0
  4337 ;;      Temps:          0       0       0       0       0       0       0       0       0       0       0       0       
      +0       0       0       0       0       0       0       0       0       0       0       0       0       0       0       
      +0       0       0       0       0       0       0       0       0       0       0       0       0       0       0       
      +0       0       0       0       0       0       0       0       0
  4338 ;;      Totals:         2       0       0       0       0       0       0       0       0       0       0       0       
      +0       0       0       0       0       0       0       0       0       0       0       0       0       0       0       
      +0       0       0       0       0       0       0       0       0       0       0       0       0       0       0       
      +0       0       0       0       0       0       0       0       0
  4339 ;;Total ram usage:        2 bytes
  4340 ;; Hardware stack levels used: 1
  4341 ;; Hardware stack levels required when called: 2
  4342 ;; This function calls:
  4343 ;;		_I2C1_SetBuffer
  4344 ;;		_I2C1_SetDataCompleteCallback
  4345 ;; This function is called by:
  4346 ;;		_I2C1_ReadDataBlock
  4347 ;;		_I2C1_DO_RX_EMPTY
  4348 ;;		_I2C1_DO_TX_EMPTY
  4349 ;;		_I2C1_DO_TX
  4350 ;;		_I2C1_DO_ADDRESS_NACK
  4351 ;;		_I2C1_DO_BUS_COLLISION
  4352 ;; This function uses a non-reentrant model
  4353 ;;
  4354                           
  4355                           	psect	text50
  4356   0048D8                     __ptext50:
  4357                           	callstack 0
  4358   0048D8                     _rdBlkRegCompleteHandler@i2c1_master_example$F179:
  4359                           	callstack 114
  4360   0048D8                     
  4361                           ;mcc_generated_files/examples/i2c1_master_example.c: 170: static i2c1_operations_t rdBlk
      +                          RegCompleteHandler(void *ptr);mcc_generated_files/examples/i2c1_master_example.c: 171: {
      +                          ;mcc_generated_files/examples/i2c1_master_example.c: 172:     I2C1_SetBuffer(((i2c1_buff
      +                          er_t *)ptr)->data,((i2c1_buffer_t*)ptr)->len);
  4362   0048D8  EE20 F002          	lfsr	2,2
  4363   0048DC  5037               	movf	rdBlkRegCompleteHandler@i2c1_master_example$F179@ptr^(0+1280),w,c
  4364   0048DE  26D9               	addwf	fsr2l,f,c
  4365   0048E0  5038               	movf	(rdBlkRegCompleteHandler@i2c1_master_example$F179@ptr+1)^(0+1280),w,c
  4366   0048E2  22DA               	addwfc	fsr2h,f,c
  4367   0048E4  C4DE F52C          	movff	postinc2,I2C1_SetBuffer@buffer
  4368   0048E8  C4DD F52D          	movff	postdec2,I2C1_SetBuffer@buffer+1
  4369   0048EC  C537  F4D9         	movff	rdBlkRegCompleteHandler@i2c1_master_example$F179@ptr,fsr2l
  4370   0048F0  C538  F4DA         	movff	rdBlkRegCompleteHandler@i2c1_master_example$F179@ptr+1,fsr2h
  4371   0048F4  C4DE F52E          	movff	postinc2,I2C1_SetBuffer@bufferSize
  4372   0048F8  C4DD F52F          	movff	postdec2,I2C1_SetBuffer@bufferSize+1
  4373   0048FC  EC4B  F026         	call	_I2C1_SetBuffer	;wreg free
  4374   004900                     
  4375                           ;mcc_generated_files/examples/i2c1_master_example.c: 173:     I2C1_SetDataCompleteCallba
      +                          ck(((void*)0),((void*)0));
  4376   004900  0E00               	movlw	0
  4377   004902  6E32               	movwf	I2C1_SetDataCompleteCallback@cb^(0+1280),c
  4378   004904  0E00               	movlw	0
  4379   004906  6E33               	movwf	(I2C1_SetDataCompleteCallback@cb+1)^(0+1280),c
  4380   004908  0E00               	movlw	0
  4381   00490A  6E34               	movwf	(I2C1_SetDataCompleteCallback@cb+2)^(0+1280),c
  4382   00490C  0E00               	movlw	0
  4383   00490E  6E35               	movwf	I2C1_SetDataCompleteCallback@ptr^(0+1280),c
  4384   004910  0E00               	movlw	0
  4385   004912  6E36               	movwf	(I2C1_SetDataCompleteCallback@ptr+1)^(0+1280),c
  4386   004914  EC78  F026         	call	_I2C1_SetDataCompleteCallback	;wreg free
  4387   004918                     
  4388                           ;mcc_generated_files/examples/i2c1_master_example.c: 174:     return I2C1_RESTART_READ;
  4389   004918  0E02               	movlw	2
  4390   00491A  0012               	return		;funcret
  4391   00491C                     __end_of_rdBlkRegCompleteHandler@i2c1_master_example$F179:
  4392                           	callstack 0
  4393                           
  4394 ;; *************** function _wr1RegCompleteHandler@i2c1_master_example$F162 *****************
  4395 ;; Defined at:
  4396 ;;		line 156 in file "mcc_generated_files/examples/i2c1_master_example.c"
  4397 ;; Parameters:    Size  Location     Type
  4398 ;;  ptr             2   11[COMRAM] PTR void 
  4399 ;;		 -> I2C1_ReadDataBlock@bufferBlock(4), I2C1_Write2ByteRegister@data(2), I2C1_Write1ByteRegister@data(1), I2C1_Read2B
      +yteRegister@returnValue(2), 
  4400 ;;		 -> I2C1_Read1ByteRegister@returnValue(1), i2c_readDataBlock@d(4), i2c_write2ByteRegister@data(2), i2c_read2ByteRegi
      +ster@result(2), 
  4401 ;;		 -> i2c_read1ByteRegister@d2(1), i2c_write1ByteRegister@data(1), NULL(0), 
  4402 ;; Auto vars:     Size  Location     Type
  4403 ;;		None
  4404 ;; Return value:  Size  Location     Type
  4405 ;;                  1    wreg      enum E360
  4406 ;; Registers used:
  4407 ;;		wreg, fsr2l, fsr2h, status,2, status,0, prodl, prodh, cstack
  4408 ;; Tracked objects:
  4409 ;;		On entry : 0/0
  4410 ;;		On exit  : 0/0
  4411 ;;		Unchanged: 0/0
  4412 ;; Data sizes:     COMRAM   BANK5   BANK6   BANK7   BANK8   BANK9  BANK10  BANK11  BANK12  BANK13  BANK14  BANK15  BANK1
      +6  BANK17  BANK18  BANK19  BANK20  BANK21  BANK22  BANK23  BANK24  BANK25  BANK26  BANK27  BANK28  BANK29  BANK30  BANK3
      +1  BANK32  BANK33  BANK34  BANK35  BANK36  BANK37  BANK38  BANK39  BANK40  BANK41  BANK42  BANK43  BANK44  BANK45  BANK4
      +6  BANK47  BANK48  BANK49  BANK50  BANK51  BANK52  BANK53  BANK54
  4413 ;;      Params:         2       0       0       0       0       0       0       0       0       0       0       0       
      +0       0       0       0       0       0       0       0       0       0       0       0       0       0       0       
      +0       0       0       0       0       0       0       0       0       0       0       0       0       0       0       
      +0       0       0       0       0       0       0       0       0
  4414 ;;      Locals:         0       0       0       0       0       0       0       0       0       0       0       0       
      +0       0       0       0       0       0       0       0       0       0       0       0       0       0       0       
      +0       0       0       0       0       0       0       0       0       0       0       0       0       0       0       
      +0       0       0       0       0       0       0       0       0
  4415 ;;      Temps:          0       0       0       0       0       0       0       0       0       0       0       0       
      +0       0       0       0       0       0       0       0       0       0       0       0       0       0       0       
      +0       0       0       0       0       0       0       0       0       0       0       0       0       0       0       
      +0       0       0       0       0       0       0       0       0
  4416 ;;      Totals:         2       0       0       0       0       0       0       0       0       0       0       0       
      +0       0       0       0       0       0       0       0       0       0       0       0       0       0       0       
      +0       0       0       0       0       0       0       0       0       0       0       0       0       0       0       
      +0       0       0       0       0       0       0       0       0
  4417 ;;Total ram usage:        2 bytes
  4418 ;; Hardware stack levels used: 1
  4419 ;; Hardware stack levels required when called: 2
  4420 ;; This function calls:
  4421 ;;		_I2C1_SetBuffer
  4422 ;;		_I2C1_SetDataCompleteCallback
  4423 ;; This function is called by:
  4424 ;;		_I2C1_Write1ByteRegister
  4425 ;;		_I2C1_DO_RX_EMPTY
  4426 ;;		_I2C1_DO_TX_EMPTY
  4427 ;;		_I2C1_DO_TX
  4428 ;;		_I2C1_DO_ADDRESS_NACK
  4429 ;;		_I2C1_DO_BUS_COLLISION
  4430 ;; This function uses a non-reentrant model
  4431 ;;
  4432                           
  4433                           	psect	text51
  4434   00499E                     __ptext51:
  4435                           	callstack 0
  4436   00499E                     _wr1RegCompleteHandler@i2c1_master_example$F162:
  4437                           	callstack 114
  4438   00499E                     
  4439                           ;mcc_generated_files/examples/i2c1_master_example.c: 156: static i2c1_operations_t wr1Re
      +                          gCompleteHandler(void *ptr);mcc_generated_files/examples/i2c1_master_example.c: 157: {;m
      +                          cc_generated_files/examples/i2c1_master_example.c: 158:     I2C1_SetBuffer(ptr,1);
  4440   00499E  C537  F52C         	movff	wr1RegCompleteHandler@i2c1_master_example$F162@ptr,I2C1_SetBuffer@buffer
  4441   0049A2  C538  F52D         	movff	wr1RegCompleteHandler@i2c1_master_example$F162@ptr+1,I2C1_SetBuffer@buffer+1
  4442   0049A6  0E00               	movlw	0
  4443   0049A8  6E2F               	movwf	(I2C1_SetBuffer@bufferSize+1)^(0+1280),c
  4444   0049AA  0E01               	movlw	1
  4445   0049AC  6E2E               	movwf	I2C1_SetBuffer@bufferSize^(0+1280),c
  4446   0049AE  EC4B  F026         	call	_I2C1_SetBuffer	;wreg free
  4447   0049B2                     
  4448                           ;mcc_generated_files/examples/i2c1_master_example.c: 159:     I2C1_SetDataCompleteCallba
      +                          ck(((void*)0),((void*)0));
  4449   0049B2  0E00               	movlw	0
  4450   0049B4  6E32               	movwf	I2C1_SetDataCompleteCallback@cb^(0+1280),c
  4451   0049B6  0E00               	movlw	0
  4452   0049B8  6E33               	movwf	(I2C1_SetDataCompleteCallback@cb+1)^(0+1280),c
  4453   0049BA  0E00               	movlw	0
  4454   0049BC  6E34               	movwf	(I2C1_SetDataCompleteCallback@cb+2)^(0+1280),c
  4455   0049BE  0E00               	movlw	0
  4456   0049C0  6E35               	movwf	I2C1_SetDataCompleteCallback@ptr^(0+1280),c
  4457   0049C2  0E00               	movlw	0
  4458   0049C4  6E36               	movwf	(I2C1_SetDataCompleteCallback@ptr+1)^(0+1280),c
  4459   0049C6  EC78  F026         	call	_I2C1_SetDataCompleteCallback	;wreg free
  4460   0049CA                     
  4461                           ;mcc_generated_files/examples/i2c1_master_example.c: 160:     return I2C1_CONTINUE;
  4462   0049CA  0E04               	movlw	4
  4463   0049CC  0012               	return		;funcret
  4464   0049CE                     __end_of_wr1RegCompleteHandler@i2c1_master_example$F162:
  4465                           	callstack 0
  4466                           
  4467 ;; *************** function _rd2RegCompleteHandler@i2c1_master_example$F156 *****************
  4468 ;; Defined at:
  4469 ;;		line 149 in file "mcc_generated_files/examples/i2c1_master_example.c"
  4470 ;; Parameters:    Size  Location     Type
  4471 ;;  ptr             2   11[COMRAM] PTR void 
  4472 ;;		 -> I2C1_ReadDataBlock@bufferBlock(4), I2C1_Write2ByteRegister@data(2), I2C1_Write1ByteRegister@data(1), I2C1_Read2B
      +yteRegister@returnValue(2), 
  4473 ;;		 -> I2C1_Read1ByteRegister@returnValue(1), i2c_readDataBlock@d(4), i2c_write2ByteRegister@data(2), i2c_read2ByteRegi
      +ster@result(2), 
  4474 ;;		 -> i2c_read1ByteRegister@d2(1), i2c_write1ByteRegister@data(1), NULL(0), 
  4475 ;; Auto vars:     Size  Location     Type
  4476 ;;		None
  4477 ;; Return value:  Size  Location     Type
  4478 ;;                  1    wreg      enum E360
  4479 ;; Registers used:
  4480 ;;		wreg, fsr2l, fsr2h, status,2, status,0, prodl, prodh, cstack
  4481 ;; Tracked objects:
  4482 ;;		On entry : 0/0
  4483 ;;		On exit  : 0/0
  4484 ;;		Unchanged: 0/0
  4485 ;; Data sizes:     COMRAM   BANK5   BANK6   BANK7   BANK8   BANK9  BANK10  BANK11  BANK12  BANK13  BANK14  BANK15  BANK1
      +6  BANK17  BANK18  BANK19  BANK20  BANK21  BANK22  BANK23  BANK24  BANK25  BANK26  BANK27  BANK28  BANK29  BANK30  BANK3
      +1  BANK32  BANK33  BANK34  BANK35  BANK36  BANK37  BANK38  BANK39  BANK40  BANK41  BANK42  BANK43  BANK44  BANK45  BANK4
      +6  BANK47  BANK48  BANK49  BANK50  BANK51  BANK52  BANK53  BANK54
  4486 ;;      Params:         2       0       0       0       0       0       0       0       0       0       0       0       
      +0       0       0       0       0       0       0       0       0       0       0       0       0       0       0       
      +0       0       0       0       0       0       0       0       0       0       0       0       0       0       0       
      +0       0       0       0       0       0       0       0       0
  4487 ;;      Locals:         0       0       0       0       0       0       0       0       0       0       0       0       
      +0       0       0       0       0       0       0       0       0       0       0       0       0       0       0       
      +0       0       0       0       0       0       0       0       0       0       0       0       0       0       0       
      +0       0       0       0       0       0       0       0       0
  4488 ;;      Temps:          0       0       0       0       0       0       0       0       0       0       0       0       
      +0       0       0       0       0       0       0       0       0       0       0       0       0       0       0       
      +0       0       0       0       0       0       0       0       0       0       0       0       0       0       0       
      +0       0       0       0       0       0       0       0       0
  4489 ;;      Totals:         2       0       0       0       0       0       0       0       0       0       0       0       
      +0       0       0       0       0       0       0       0       0       0       0       0       0       0       0       
      +0       0       0       0       0       0       0       0       0       0       0       0       0       0       0       
      +0       0       0       0       0       0       0       0       0
  4490 ;;Total ram usage:        2 bytes
  4491 ;; Hardware stack levels used: 1
  4492 ;; Hardware stack levels required when called: 2
  4493 ;; This function calls:
  4494 ;;		_I2C1_SetBuffer
  4495 ;;		_I2C1_SetDataCompleteCallback
  4496 ;; This function is called by:
  4497 ;;		_I2C1_Read2ByteRegister
  4498 ;;		_I2C1_DO_RX_EMPTY
  4499 ;;		_I2C1_DO_TX_EMPTY
  4500 ;;		_I2C1_DO_TX
  4501 ;;		_I2C1_DO_ADDRESS_NACK
  4502 ;;		_I2C1_DO_BUS_COLLISION
  4503 ;; This function uses a non-reentrant model
  4504 ;;
  4505                           
  4506                           	psect	text52
  4507   0049CE                     __ptext52:
  4508                           	callstack 0
  4509   0049CE                     _rd2RegCompleteHandler@i2c1_master_example$F156:
  4510                           	callstack 114
  4511   0049CE                     
  4512                           ;mcc_generated_files/examples/i2c1_master_example.c: 149: static i2c1_operations_t rd2Re
      +                          gCompleteHandler(void *ptr);mcc_generated_files/examples/i2c1_master_example.c: 150: {;m
      +                          cc_generated_files/examples/i2c1_master_example.c: 151:     I2C1_SetBuffer(ptr,2);
  4513   0049CE  C537  F52C         	movff	rd2RegCompleteHandler@i2c1_master_example$F156@ptr,I2C1_SetBuffer@buffer
  4514   0049D2  C538  F52D         	movff	rd2RegCompleteHandler@i2c1_master_example$F156@ptr+1,I2C1_SetBuffer@buffer+1
  4515   0049D6  0E00               	movlw	0
  4516   0049D8  6E2F               	movwf	(I2C1_SetBuffer@bufferSize+1)^(0+1280),c
  4517   0049DA  0E02               	movlw	2
  4518   0049DC  6E2E               	movwf	I2C1_SetBuffer@bufferSize^(0+1280),c
  4519   0049DE  EC4B  F026         	call	_I2C1_SetBuffer	;wreg free
  4520   0049E2                     
  4521                           ;mcc_generated_files/examples/i2c1_master_example.c: 152:     I2C1_SetDataCompleteCallba
      +                          ck(((void*)0),((void*)0));
  4522   0049E2  0E00               	movlw	0
  4523   0049E4  6E32               	movwf	I2C1_SetDataCompleteCallback@cb^(0+1280),c
  4524   0049E6  0E00               	movlw	0
  4525   0049E8  6E33               	movwf	(I2C1_SetDataCompleteCallback@cb+1)^(0+1280),c
  4526   0049EA  0E00               	movlw	0
  4527   0049EC  6E34               	movwf	(I2C1_SetDataCompleteCallback@cb+2)^(0+1280),c
  4528   0049EE  0E00               	movlw	0
  4529   0049F0  6E35               	movwf	I2C1_SetDataCompleteCallback@ptr^(0+1280),c
  4530   0049F2  0E00               	movlw	0
  4531   0049F4  6E36               	movwf	(I2C1_SetDataCompleteCallback@ptr+1)^(0+1280),c
  4532   0049F6  EC78  F026         	call	_I2C1_SetDataCompleteCallback	;wreg free
  4533   0049FA                     
  4534                           ;mcc_generated_files/examples/i2c1_master_example.c: 153:     return I2C1_RESTART_READ;
  4535   0049FA  0E02               	movlw	2
  4536   0049FC  0012               	return		;funcret
  4537   0049FE                     __end_of_rd2RegCompleteHandler@i2c1_master_example$F156:
  4538                           	callstack 0
  4539                           
  4540 ;; *************** function _rd1RegCompleteHandler@i2c1_master_example$F145 *****************
  4541 ;; Defined at:
  4542 ;;		line 142 in file "mcc_generated_files/examples/i2c1_master_example.c"
  4543 ;; Parameters:    Size  Location     Type
  4544 ;;  ptr             2   11[COMRAM] PTR void 
  4545 ;;		 -> I2C1_ReadDataBlock@bufferBlock(4), I2C1_Write2ByteRegister@data(2), I2C1_Write1ByteRegister@data(1), I2C1_Read2B
      +yteRegister@returnValue(2), 
  4546 ;;		 -> I2C1_Read1ByteRegister@returnValue(1), i2c_readDataBlock@d(4), i2c_write2ByteRegister@data(2), i2c_read2ByteRegi
      +ster@result(2), 
  4547 ;;		 -> i2c_read1ByteRegister@d2(1), i2c_write1ByteRegister@data(1), NULL(0), 
  4548 ;; Auto vars:     Size  Location     Type
  4549 ;;		None
  4550 ;; Return value:  Size  Location     Type
  4551 ;;                  1    wreg      enum E360
  4552 ;; Registers used:
  4553 ;;		wreg, fsr2l, fsr2h, status,2, status,0, prodl, prodh, cstack
  4554 ;; Tracked objects:
  4555 ;;		On entry : 0/0
  4556 ;;		On exit  : 0/0
  4557 ;;		Unchanged: 0/0
  4558 ;; Data sizes:     COMRAM   BANK5   BANK6   BANK7   BANK8   BANK9  BANK10  BANK11  BANK12  BANK13  BANK14  BANK15  BANK1
      +6  BANK17  BANK18  BANK19  BANK20  BANK21  BANK22  BANK23  BANK24  BANK25  BANK26  BANK27  BANK28  BANK29  BANK30  BANK3
      +1  BANK32  BANK33  BANK34  BANK35  BANK36  BANK37  BANK38  BANK39  BANK40  BANK41  BANK42  BANK43  BANK44  BANK45  BANK4
      +6  BANK47  BANK48  BANK49  BANK50  BANK51  BANK52  BANK53  BANK54
  4559 ;;      Params:         2       0       0       0       0       0       0       0       0       0       0       0       
      +0       0       0       0       0       0       0       0       0       0       0       0       0       0       0       
      +0       0       0       0       0       0       0       0       0       0       0       0       0       0       0       
      +0       0       0       0       0       0       0       0       0
  4560 ;;      Locals:         0       0       0       0       0       0       0       0       0       0       0       0       
      +0       0       0       0       0       0       0       0       0       0       0       0       0       0       0       
      +0       0       0       0       0       0       0       0       0       0       0       0       0       0       0       
      +0       0       0       0       0       0       0       0       0
  4561 ;;      Temps:          0       0       0       0       0       0       0       0       0       0       0       0       
      +0       0       0       0       0       0       0       0       0       0       0       0       0       0       0       
      +0       0       0       0       0       0       0       0       0       0       0       0       0       0       0       
      +0       0       0       0       0       0       0       0       0
  4562 ;;      Totals:         2       0       0       0       0       0       0       0       0       0       0       0       
      +0       0       0       0       0       0       0       0       0       0       0       0       0       0       0       
      +0       0       0       0       0       0       0       0       0       0       0       0       0       0       0       
      +0       0       0       0       0       0       0       0       0
  4563 ;;Total ram usage:        2 bytes
  4564 ;; Hardware stack levels used: 1
  4565 ;; Hardware stack levels required when called: 2
  4566 ;; This function calls:
  4567 ;;		_I2C1_SetBuffer
  4568 ;;		_I2C1_SetDataCompleteCallback
  4569 ;; This function is called by:
  4570 ;;		_I2C1_Read1ByteRegister
  4571 ;;		_I2C1_DO_RX_EMPTY
  4572 ;;		_I2C1_DO_TX_EMPTY
  4573 ;;		_I2C1_DO_TX
  4574 ;;		_I2C1_DO_ADDRESS_NACK
  4575 ;;		_I2C1_DO_BUS_COLLISION
  4576 ;; This function uses a non-reentrant model
  4577 ;;
  4578                           
  4579                           	psect	text53
  4580   0049FE                     __ptext53:
  4581                           	callstack 0
  4582   0049FE                     _rd1RegCompleteHandler@i2c1_master_example$F145:
  4583                           	callstack 114
  4584   0049FE                     
  4585                           ;mcc_generated_files/examples/i2c1_master_example.c: 142: static i2c1_operations_t rd1Re
      +                          gCompleteHandler(void *ptr);mcc_generated_files/examples/i2c1_master_example.c: 143: {;m
      +                          cc_generated_files/examples/i2c1_master_example.c: 144:     I2C1_SetBuffer(ptr,1);
  4586   0049FE  C537  F52C         	movff	rd1RegCompleteHandler@i2c1_master_example$F145@ptr,I2C1_SetBuffer@buffer
  4587   004A02  C538  F52D         	movff	rd1RegCompleteHandler@i2c1_master_example$F145@ptr+1,I2C1_SetBuffer@buffer+1
  4588   004A06  0E00               	movlw	0
  4589   004A08  6E2F               	movwf	(I2C1_SetBuffer@bufferSize+1)^(0+1280),c
  4590   004A0A  0E01               	movlw	1
  4591   004A0C  6E2E               	movwf	I2C1_SetBuffer@bufferSize^(0+1280),c
  4592   004A0E  EC4B  F026         	call	_I2C1_SetBuffer	;wreg free
  4593   004A12                     
  4594                           ;mcc_generated_files/examples/i2c1_master_example.c: 145:     I2C1_SetDataCompleteCallba
      +                          ck(((void*)0),((void*)0));
  4595   004A12  0E00               	movlw	0
  4596   004A14  6E32               	movwf	I2C1_SetDataCompleteCallback@cb^(0+1280),c
  4597   004A16  0E00               	movlw	0
  4598   004A18  6E33               	movwf	(I2C1_SetDataCompleteCallback@cb+1)^(0+1280),c
  4599   004A1A  0E00               	movlw	0
  4600   004A1C  6E34               	movwf	(I2C1_SetDataCompleteCallback@cb+2)^(0+1280),c
  4601   004A1E  0E00               	movlw	0
  4602   004A20  6E35               	movwf	I2C1_SetDataCompleteCallback@ptr^(0+1280),c
  4603   004A22  0E00               	movlw	0
  4604   004A24  6E36               	movwf	(I2C1_SetDataCompleteCallback@ptr+1)^(0+1280),c
  4605   004A26  EC78  F026         	call	_I2C1_SetDataCompleteCallback	;wreg free
  4606   004A2A                     
  4607                           ;mcc_generated_files/examples/i2c1_master_example.c: 146:     return I2C1_RESTART_READ;
  4608   004A2A  0E02               	movlw	2
  4609   004A2C  0012               	return		;funcret
  4610   004A2E                     __end_of_rd1RegCompleteHandler@i2c1_master_example$F145:
  4611                           	callstack 0
  4612                           
  4613 ;; *************** function _rdBlkRegCompleteHandler *****************
  4614 ;; Defined at:
  4615 ;;		line 185 in file "mcc_generated_files/drivers/i2c_simple_master.c"
  4616 ;; Parameters:    Size  Location     Type
  4617 ;;  p               2   11[COMRAM] PTR void 
  4618 ;;		 -> I2C1_ReadDataBlock@bufferBlock(4), I2C1_Write2ByteRegister@data(2), I2C1_Write1ByteRegister@data(1), I2C1_Read2B
      +yteRegister@returnValue(2), 
  4619 ;;		 -> I2C1_Read1ByteRegister@returnValue(1), i2c_readDataBlock@d(4), i2c_write2ByteRegister@data(2), i2c_read2ByteRegi
      +ster@result(2), 
  4620 ;;		 -> i2c_read1ByteRegister@d2(1), i2c_write1ByteRegister@data(1), NULL(0), 
  4621 ;; Auto vars:     Size  Location     Type
  4622 ;;		None
  4623 ;; Return value:  Size  Location     Type
  4624 ;;                  1    wreg      enum E360
  4625 ;; Registers used:
  4626 ;;		wreg, fsr2l, fsr2h, status,2, status,0, prodl, prodh, cstack
  4627 ;; Tracked objects:
  4628 ;;		On entry : 0/0
  4629 ;;		On exit  : 0/0
  4630 ;;		Unchanged: 0/0
  4631 ;; Data sizes:     COMRAM   BANK5   BANK6   BANK7   BANK8   BANK9  BANK10  BANK11  BANK12  BANK13  BANK14  BANK15  BANK1
      +6  BANK17  BANK18  BANK19  BANK20  BANK21  BANK22  BANK23  BANK24  BANK25  BANK26  BANK27  BANK28  BANK29  BANK30  BANK3
      +1  BANK32  BANK33  BANK34  BANK35  BANK36  BANK37  BANK38  BANK39  BANK40  BANK41  BANK42  BANK43  BANK44  BANK45  BANK4
      +6  BANK47  BANK48  BANK49  BANK50  BANK51  BANK52  BANK53  BANK54
  4632 ;;      Params:         2       0       0       0       0       0       0       0       0       0       0       0       
      +0       0       0       0       0       0       0       0       0       0       0       0       0       0       0       
      +0       0       0       0       0       0       0       0       0       0       0       0       0       0       0       
      +0       0       0       0       0       0       0       0       0
  4633 ;;      Locals:         0       0       0       0       0       0       0       0       0       0       0       0       
      +0       0       0       0       0       0       0       0       0       0       0       0       0       0       0       
      +0       0       0       0       0       0       0       0       0       0       0       0       0       0       0       
      +0       0       0       0       0       0       0       0       0
  4634 ;;      Temps:          0       0       0       0       0       0       0       0       0       0       0       0       
      +0       0       0       0       0       0       0       0       0       0       0       0       0       0       0       
      +0       0       0       0       0       0       0       0       0       0       0       0       0       0       0       
      +0       0       0       0       0       0       0       0       0
  4635 ;;      Totals:         2       0       0       0       0       0       0       0       0       0       0       0       
      +0       0       0       0       0       0       0       0       0       0       0       0       0       0       0       
      +0       0       0       0       0       0       0       0       0       0       0       0       0       0       0       
      +0       0       0       0       0       0       0       0       0
  4636 ;;Total ram usage:        2 bytes
  4637 ;; Hardware stack levels used: 1
  4638 ;; Hardware stack levels required when called: 2
  4639 ;; This function calls:
  4640 ;;		_I2C1_SetBuffer
  4641 ;;		_I2C1_SetDataCompleteCallback
  4642 ;; This function is called by:
  4643 ;;		_i2c_readDataBlock
  4644 ;;		_I2C1_DO_RX_EMPTY
  4645 ;;		_I2C1_DO_TX_EMPTY
  4646 ;;		_I2C1_DO_TX
  4647 ;;		_I2C1_DO_ADDRESS_NACK
  4648 ;;		_I2C1_DO_BUS_COLLISION
  4649 ;; This function uses a non-reentrant model
  4650 ;;
  4651                           
  4652                           	psect	text54
  4653   00491C                     __ptext54:
  4654                           	callstack 0
  4655   00491C                     _rdBlkRegCompleteHandler:
  4656                           	callstack 114
  4657   00491C                     
  4658                           ;mcc_generated_files/drivers/i2c_simple_master.c: 185: static i2c1_operations_t rdBlkReg
      +                          CompleteHandler(void *p);mcc_generated_files/drivers/i2c_simple_master.c: 186: {;mcc_gen
      +                          erated_files/drivers/i2c_simple_master.c: 187:     I2C1_SetBuffer(((buf_t *)p)->data,((b
      +                          uf_t*)p)->len);
  4659   00491C  EE20 F002          	lfsr	2,2
  4660   004920  5037               	movf	rdBlkRegCompleteHandler@p^(0+1280),w,c
  4661   004922  26D9               	addwf	fsr2l,f,c
  4662   004924  5038               	movf	(rdBlkRegCompleteHandler@p+1)^(0+1280),w,c
  4663   004926  22DA               	addwfc	fsr2h,f,c
  4664   004928  C4DE F52C          	movff	postinc2,I2C1_SetBuffer@buffer
  4665   00492C  C4DD F52D          	movff	postdec2,I2C1_SetBuffer@buffer+1
  4666   004930  C537  F4D9         	movff	rdBlkRegCompleteHandler@p,fsr2l
  4667   004934  C538  F4DA         	movff	rdBlkRegCompleteHandler@p+1,fsr2h
  4668   004938  C4DE F52E          	movff	postinc2,I2C1_SetBuffer@bufferSize
  4669   00493C  C4DD F52F          	movff	postdec2,I2C1_SetBuffer@bufferSize+1
  4670   004940  EC4B  F026         	call	_I2C1_SetBuffer	;wreg free
  4671   004944                     
  4672                           ;mcc_generated_files/drivers/i2c_simple_master.c: 188:     I2C1_SetDataCompleteCallback(
      +                          ((void*)0),((void*)0));
  4673   004944  0E00               	movlw	0
  4674   004946  6E32               	movwf	I2C1_SetDataCompleteCallback@cb^(0+1280),c
  4675   004948  0E00               	movlw	0
  4676   00494A  6E33               	movwf	(I2C1_SetDataCompleteCallback@cb+1)^(0+1280),c
  4677   00494C  0E00               	movlw	0
  4678   00494E  6E34               	movwf	(I2C1_SetDataCompleteCallback@cb+2)^(0+1280),c
  4679   004950  0E00               	movlw	0
  4680   004952  6E35               	movwf	I2C1_SetDataCompleteCallback@ptr^(0+1280),c
  4681   004954  0E00               	movlw	0
  4682   004956  6E36               	movwf	(I2C1_SetDataCompleteCallback@ptr+1)^(0+1280),c
  4683   004958  EC78  F026         	call	_I2C1_SetDataCompleteCallback	;wreg free
  4684   00495C                     
  4685                           ;mcc_generated_files/drivers/i2c_simple_master.c: 189:     return I2C1_RESTART_READ;
  4686   00495C  0E02               	movlw	2
  4687   00495E  0012               	return		;funcret
  4688   004960                     __end_of_rdBlkRegCompleteHandler:
  4689                           	callstack 0
  4690                           
  4691 ;; *************** function _wr2RegCompleteHandler *****************
  4692 ;; Defined at:
  4693 ;;		line 151 in file "mcc_generated_files/drivers/i2c_simple_master.c"
  4694 ;; Parameters:    Size  Location     Type
  4695 ;;  p               2   11[COMRAM] PTR void 
  4696 ;;		 -> I2C1_ReadDataBlock@bufferBlock(4), I2C1_Write2ByteRegister@data(2), I2C1_Write1ByteRegister@data(1), I2C1_Read2B
      +yteRegister@returnValue(2), 
  4697 ;;		 -> I2C1_Read1ByteRegister@returnValue(1), i2c_readDataBlock@d(4), i2c_write2ByteRegister@data(2), i2c_read2ByteRegi
      +ster@result(2), 
  4698 ;;		 -> i2c_read1ByteRegister@d2(1), i2c_write1ByteRegister@data(1), NULL(0), 
  4699 ;; Auto vars:     Size  Location     Type
  4700 ;;		None
  4701 ;; Return value:  Size  Location     Type
  4702 ;;                  1    wreg      enum E360
  4703 ;; Registers used:
  4704 ;;		wreg, fsr2l, fsr2h, status,2, status,0, prodl, prodh, cstack
  4705 ;; Tracked objects:
  4706 ;;		On entry : 0/0
  4707 ;;		On exit  : 0/0
  4708 ;;		Unchanged: 0/0
  4709 ;; Data sizes:     COMRAM   BANK5   BANK6   BANK7   BANK8   BANK9  BANK10  BANK11  BANK12  BANK13  BANK14  BANK15  BANK1
      +6  BANK17  BANK18  BANK19  BANK20  BANK21  BANK22  BANK23  BANK24  BANK25  BANK26  BANK27  BANK28  BANK29  BANK30  BANK3
      +1  BANK32  BANK33  BANK34  BANK35  BANK36  BANK37  BANK38  BANK39  BANK40  BANK41  BANK42  BANK43  BANK44  BANK45  BANK4
      +6  BANK47  BANK48  BANK49  BANK50  BANK51  BANK52  BANK53  BANK54
  4710 ;;      Params:         2       0       0       0       0       0       0       0       0       0       0       0       
      +0       0       0       0       0       0       0       0       0       0       0       0       0       0       0       
      +0       0       0       0       0       0       0       0       0       0       0       0       0       0       0       
      +0       0       0       0       0       0       0       0       0
  4711 ;;      Locals:         0       0       0       0       0       0       0       0       0       0       0       0       
      +0       0       0       0       0       0       0       0       0       0       0       0       0       0       0       
      +0       0       0       0       0       0       0       0       0       0       0       0       0       0       0       
      +0       0       0       0       0       0       0       0       0
  4712 ;;      Temps:          0       0       0       0       0       0       0       0       0       0       0       0       
      +0       0       0       0       0       0       0       0       0       0       0       0       0       0       0       
      +0       0       0       0       0       0       0       0       0       0       0       0       0       0       0       
      +0       0       0       0       0       0       0       0       0
  4713 ;;      Totals:         2       0       0       0       0       0       0       0       0       0       0       0       
      +0       0       0       0       0       0       0       0       0       0       0       0       0       0       0       
      +0       0       0       0       0       0       0       0       0       0       0       0       0       0       0       
      +0       0       0       0       0       0       0       0       0
  4714 ;;Total ram usage:        2 bytes
  4715 ;; Hardware stack levels used: 1
  4716 ;; Hardware stack levels required when called: 2
  4717 ;; This function calls:
  4718 ;;		_I2C1_SetBuffer
  4719 ;;		_I2C1_SetDataCompleteCallback
  4720 ;; This function is called by:
  4721 ;;		_i2c_write2ByteRegister
  4722 ;;		_I2C1_DO_RX_EMPTY
  4723 ;;		_I2C1_DO_TX_EMPTY
  4724 ;;		_I2C1_DO_TX
  4725 ;;		_I2C1_DO_ADDRESS_NACK
  4726 ;;		_I2C1_DO_BUS_COLLISION
  4727 ;; This function uses a non-reentrant model
  4728 ;;
  4729                           
  4730                           	psect	text55
  4731   004A2E                     __ptext55:
  4732                           	callstack 0
  4733   004A2E                     _wr2RegCompleteHandler:
  4734                           	callstack 114
  4735   004A2E                     
  4736                           ;mcc_generated_files/drivers/i2c_simple_master.c: 151: static i2c1_operations_t wr2RegCo
      +                          mpleteHandler(void *p);mcc_generated_files/drivers/i2c_simple_master.c: 152: {;mcc_gener
      +                          ated_files/drivers/i2c_simple_master.c: 153:     I2C1_SetBuffer(p,2);
  4737   004A2E  C537  F52C         	movff	wr2RegCompleteHandler@p,I2C1_SetBuffer@buffer
  4738   004A32  C538  F52D         	movff	wr2RegCompleteHandler@p+1,I2C1_SetBuffer@buffer+1
  4739   004A36  0E00               	movlw	0
  4740   004A38  6E2F               	movwf	(I2C1_SetBuffer@bufferSize+1)^(0+1280),c
  4741   004A3A  0E02               	movlw	2
  4742   004A3C  6E2E               	movwf	I2C1_SetBuffer@bufferSize^(0+1280),c
  4743   004A3E  EC4B  F026         	call	_I2C1_SetBuffer	;wreg free
  4744   004A42                     
  4745                           ;mcc_generated_files/drivers/i2c_simple_master.c: 154:     I2C1_SetDataCompleteCallback(
      +                          ((void*)0),((void*)0));
  4746   004A42  0E00               	movlw	0
  4747   004A44  6E32               	movwf	I2C1_SetDataCompleteCallback@cb^(0+1280),c
  4748   004A46  0E00               	movlw	0
  4749   004A48  6E33               	movwf	(I2C1_SetDataCompleteCallback@cb+1)^(0+1280),c
  4750   004A4A  0E00               	movlw	0
  4751   004A4C  6E34               	movwf	(I2C1_SetDataCompleteCallback@cb+2)^(0+1280),c
  4752   004A4E  0E00               	movlw	0
  4753   004A50  6E35               	movwf	I2C1_SetDataCompleteCallback@ptr^(0+1280),c
  4754   004A52  0E00               	movlw	0
  4755   004A54  6E36               	movwf	(I2C1_SetDataCompleteCallback@ptr+1)^(0+1280),c
  4756   004A56  EC78  F026         	call	_I2C1_SetDataCompleteCallback	;wreg free
  4757   004A5A                     
  4758                           ;mcc_generated_files/drivers/i2c_simple_master.c: 155:     return I2C1_CONTINUE;
  4759   004A5A  0E04               	movlw	4
  4760   004A5C  0012               	return		;funcret
  4761   004A5E                     __end_of_wr2RegCompleteHandler:
  4762                           	callstack 0
  4763                           
  4764 ;; *************** function _rd2RegCompleteHandler *****************
  4765 ;; Defined at:
  4766 ;;		line 119 in file "mcc_generated_files/drivers/i2c_simple_master.c"
  4767 ;; Parameters:    Size  Location     Type
  4768 ;;  p               2   11[COMRAM] PTR void 
  4769 ;;		 -> I2C1_ReadDataBlock@bufferBlock(4), I2C1_Write2ByteRegister@data(2), I2C1_Write1ByteRegister@data(1), I2C1_Read2B
      +yteRegister@returnValue(2), 
  4770 ;;		 -> I2C1_Read1ByteRegister@returnValue(1), i2c_readDataBlock@d(4), i2c_write2ByteRegister@data(2), i2c_read2ByteRegi
      +ster@result(2), 
  4771 ;;		 -> i2c_read1ByteRegister@d2(1), i2c_write1ByteRegister@data(1), NULL(0), 
  4772 ;; Auto vars:     Size  Location     Type
  4773 ;;		None
  4774 ;; Return value:  Size  Location     Type
  4775 ;;                  1    wreg      enum E360
  4776 ;; Registers used:
  4777 ;;		wreg, fsr2l, fsr2h, status,2, status,0, prodl, prodh, cstack
  4778 ;; Tracked objects:
  4779 ;;		On entry : 0/0
  4780 ;;		On exit  : 0/0
  4781 ;;		Unchanged: 0/0
  4782 ;; Data sizes:     COMRAM   BANK5   BANK6   BANK7   BANK8   BANK9  BANK10  BANK11  BANK12  BANK13  BANK14  BANK15  BANK1
      +6  BANK17  BANK18  BANK19  BANK20  BANK21  BANK22  BANK23  BANK24  BANK25  BANK26  BANK27  BANK28  BANK29  BANK30  BANK3
      +1  BANK32  BANK33  BANK34  BANK35  BANK36  BANK37  BANK38  BANK39  BANK40  BANK41  BANK42  BANK43  BANK44  BANK45  BANK4
      +6  BANK47  BANK48  BANK49  BANK50  BANK51  BANK52  BANK53  BANK54
  4783 ;;      Params:         2       0       0       0       0       0       0       0       0       0       0       0       
      +0       0       0       0       0       0       0       0       0       0       0       0       0       0       0       
      +0       0       0       0       0       0       0       0       0       0       0       0       0       0       0       
      +0       0       0       0       0       0       0       0       0
  4784 ;;      Locals:         0       0       0       0       0       0       0       0       0       0       0       0       
      +0       0       0       0       0       0       0       0       0       0       0       0       0       0       0       
      +0       0       0       0       0       0       0       0       0       0       0       0       0       0       0       
      +0       0       0       0       0       0       0       0       0
  4785 ;;      Temps:          0       0       0       0       0       0       0       0       0       0       0       0       
      +0       0       0       0       0       0       0       0       0       0       0       0       0       0       0       
      +0       0       0       0       0       0       0       0       0       0       0       0       0       0       0       
      +0       0       0       0       0       0       0       0       0
  4786 ;;      Totals:         2       0       0       0       0       0       0       0       0       0       0       0       
      +0       0       0       0       0       0       0       0       0       0       0       0       0       0       0       
      +0       0       0       0       0       0       0       0       0       0       0       0       0       0       0       
      +0       0       0       0       0       0       0       0       0
  4787 ;;Total ram usage:        2 bytes
  4788 ;; Hardware stack levels used: 1
  4789 ;; Hardware stack levels required when called: 2
  4790 ;; This function calls:
  4791 ;;		_I2C1_SetBuffer
  4792 ;;		_I2C1_SetDataCompleteCallback
  4793 ;; This function is called by:
  4794 ;;		_i2c_read2ByteRegister
  4795 ;;		_I2C1_DO_RX_EMPTY
  4796 ;;		_I2C1_DO_TX_EMPTY
  4797 ;;		_I2C1_DO_TX
  4798 ;;		_I2C1_DO_ADDRESS_NACK
  4799 ;;		_I2C1_DO_BUS_COLLISION
  4800 ;; This function uses a non-reentrant model
  4801 ;;
  4802                           
  4803                           	psect	text56
  4804   004A5E                     __ptext56:
  4805                           	callstack 0
  4806   004A5E                     _rd2RegCompleteHandler:
  4807                           	callstack 114
  4808   004A5E                     
  4809                           ;mcc_generated_files/drivers/i2c_simple_master.c: 119: static i2c1_operations_t rd2RegCo
      +                          mpleteHandler(void *p);mcc_generated_files/drivers/i2c_simple_master.c: 120: {;mcc_gener
      +                          ated_files/drivers/i2c_simple_master.c: 121:     I2C1_SetBuffer(p,2);
  4810   004A5E  C537  F52C         	movff	rd2RegCompleteHandler@p,I2C1_SetBuffer@buffer
  4811   004A62  C538  F52D         	movff	rd2RegCompleteHandler@p+1,I2C1_SetBuffer@buffer+1
  4812   004A66  0E00               	movlw	0
  4813   004A68  6E2F               	movwf	(I2C1_SetBuffer@bufferSize+1)^(0+1280),c
  4814   004A6A  0E02               	movlw	2
  4815   004A6C  6E2E               	movwf	I2C1_SetBuffer@bufferSize^(0+1280),c
  4816   004A6E  EC4B  F026         	call	_I2C1_SetBuffer	;wreg free
  4817   004A72                     
  4818                           ;mcc_generated_files/drivers/i2c_simple_master.c: 122:     I2C1_SetDataCompleteCallback(
      +                          ((void*)0),((void*)0));
  4819   004A72  0E00               	movlw	0
  4820   004A74  6E32               	movwf	I2C1_SetDataCompleteCallback@cb^(0+1280),c
  4821   004A76  0E00               	movlw	0
  4822   004A78  6E33               	movwf	(I2C1_SetDataCompleteCallback@cb+1)^(0+1280),c
  4823   004A7A  0E00               	movlw	0
  4824   004A7C  6E34               	movwf	(I2C1_SetDataCompleteCallback@cb+2)^(0+1280),c
  4825   004A7E  0E00               	movlw	0
  4826   004A80  6E35               	movwf	I2C1_SetDataCompleteCallback@ptr^(0+1280),c
  4827   004A82  0E00               	movlw	0
  4828   004A84  6E36               	movwf	(I2C1_SetDataCompleteCallback@ptr+1)^(0+1280),c
  4829   004A86  EC78  F026         	call	_I2C1_SetDataCompleteCallback	;wreg free
  4830   004A8A                     
  4831                           ;mcc_generated_files/drivers/i2c_simple_master.c: 123:     return I2C1_RESTART_READ;
  4832   004A8A  0E02               	movlw	2
  4833   004A8C  0012               	return		;funcret
  4834   004A8E                     __end_of_rd2RegCompleteHandler:
  4835                           	callstack 0
  4836                           
  4837 ;; *************** function _rd1RegCompleteHandler *****************
  4838 ;; Defined at:
  4839 ;;		line 81 in file "mcc_generated_files/drivers/i2c_simple_master.c"
  4840 ;; Parameters:    Size  Location     Type
  4841 ;;  p               2   11[COMRAM] PTR void 
  4842 ;;		 -> I2C1_ReadDataBlock@bufferBlock(4), I2C1_Write2ByteRegister@data(2), I2C1_Write1ByteRegister@data(1), I2C1_Read2B
      +yteRegister@returnValue(2), 
  4843 ;;		 -> I2C1_Read1ByteRegister@returnValue(1), i2c_readDataBlock@d(4), i2c_write2ByteRegister@data(2), i2c_read2ByteRegi
      +ster@result(2), 
  4844 ;;		 -> i2c_read1ByteRegister@d2(1), i2c_write1ByteRegister@data(1), NULL(0), 
  4845 ;; Auto vars:     Size  Location     Type
  4846 ;;		None
  4847 ;; Return value:  Size  Location     Type
  4848 ;;                  1    wreg      enum E360
  4849 ;; Registers used:
  4850 ;;		wreg, fsr2l, fsr2h, status,2, status,0, prodl, prodh, cstack
  4851 ;; Tracked objects:
  4852 ;;		On entry : 0/0
  4853 ;;		On exit  : 0/0
  4854 ;;		Unchanged: 0/0
  4855 ;; Data sizes:     COMRAM   BANK5   BANK6   BANK7   BANK8   BANK9  BANK10  BANK11  BANK12  BANK13  BANK14  BANK15  BANK1
      +6  BANK17  BANK18  BANK19  BANK20  BANK21  BANK22  BANK23  BANK24  BANK25  BANK26  BANK27  BANK28  BANK29  BANK30  BANK3
      +1  BANK32  BANK33  BANK34  BANK35  BANK36  BANK37  BANK38  BANK39  BANK40  BANK41  BANK42  BANK43  BANK44  BANK45  BANK4
      +6  BANK47  BANK48  BANK49  BANK50  BANK51  BANK52  BANK53  BANK54
  4856 ;;      Params:         2       0       0       0       0       0       0       0       0       0       0       0       
      +0       0       0       0       0       0       0       0       0       0       0       0       0       0       0       
      +0       0       0       0       0       0       0       0       0       0       0       0       0       0       0       
      +0       0       0       0       0       0       0       0       0
  4857 ;;      Locals:         0       0       0       0       0       0       0       0       0       0       0       0       
      +0       0       0       0       0       0       0       0       0       0       0       0       0       0       0       
      +0       0       0       0       0       0       0       0       0       0       0       0       0       0       0       
      +0       0       0       0       0       0       0       0       0
  4858 ;;      Temps:          0       0       0       0       0       0       0       0       0       0       0       0       
      +0       0       0       0       0       0       0       0       0       0       0       0       0       0       0       
      +0       0       0       0       0       0       0       0       0       0       0       0       0       0       0       
      +0       0       0       0       0       0       0       0       0
  4859 ;;      Totals:         2       0       0       0       0       0       0       0       0       0       0       0       
      +0       0       0       0       0       0       0       0       0       0       0       0       0       0       0       
      +0       0       0       0       0       0       0       0       0       0       0       0       0       0       0       
      +0       0       0       0       0       0       0       0       0
  4860 ;;Total ram usage:        2 bytes
  4861 ;; Hardware stack levels used: 1
  4862 ;; Hardware stack levels required when called: 2
  4863 ;; This function calls:
  4864 ;;		_I2C1_SetBuffer
  4865 ;;		_I2C1_SetDataCompleteCallback
  4866 ;; This function is called by:
  4867 ;;		_i2c_read1ByteRegister
  4868 ;;		_I2C1_DO_RX_EMPTY
  4869 ;;		_I2C1_DO_TX_EMPTY
  4870 ;;		_I2C1_DO_TX
  4871 ;;		_I2C1_DO_ADDRESS_NACK
  4872 ;;		_I2C1_DO_BUS_COLLISION
  4873 ;; This function uses a non-reentrant model
  4874 ;;
  4875                           
  4876                           	psect	text57
  4877   004A8E                     __ptext57:
  4878                           	callstack 0
  4879   004A8E                     _rd1RegCompleteHandler:
  4880                           	callstack 114
  4881   004A8E                     
  4882                           ;mcc_generated_files/drivers/i2c_simple_master.c: 81: static i2c1_operations_t rd1RegCom
      +                          pleteHandler(void *p);mcc_generated_files/drivers/i2c_simple_master.c: 82: {;mcc_generat
      +                          ed_files/drivers/i2c_simple_master.c: 83:     I2C1_SetBuffer(p,1);
  4883   004A8E  C537  F52C         	movff	rd1RegCompleteHandler@p,I2C1_SetBuffer@buffer
  4884   004A92  C538  F52D         	movff	rd1RegCompleteHandler@p+1,I2C1_SetBuffer@buffer+1
  4885   004A96  0E00               	movlw	0
  4886   004A98  6E2F               	movwf	(I2C1_SetBuffer@bufferSize+1)^(0+1280),c
  4887   004A9A  0E01               	movlw	1
  4888   004A9C  6E2E               	movwf	I2C1_SetBuffer@bufferSize^(0+1280),c
  4889   004A9E  EC4B  F026         	call	_I2C1_SetBuffer	;wreg free
  4890   004AA2                     
  4891                           ;mcc_generated_files/drivers/i2c_simple_master.c: 84:     I2C1_SetDataCompleteCallback((
      +                          (void*)0),((void*)0));
  4892   004AA2  0E00               	movlw	0
  4893   004AA4  6E32               	movwf	I2C1_SetDataCompleteCallback@cb^(0+1280),c
  4894   004AA6  0E00               	movlw	0
  4895   004AA8  6E33               	movwf	(I2C1_SetDataCompleteCallback@cb+1)^(0+1280),c
  4896   004AAA  0E00               	movlw	0
  4897   004AAC  6E34               	movwf	(I2C1_SetDataCompleteCallback@cb+2)^(0+1280),c
  4898   004AAE  0E00               	movlw	0
  4899   004AB0  6E35               	movwf	I2C1_SetDataCompleteCallback@ptr^(0+1280),c
  4900   004AB2  0E00               	movlw	0
  4901   004AB4  6E36               	movwf	(I2C1_SetDataCompleteCallback@ptr+1)^(0+1280),c
  4902   004AB6  EC78  F026         	call	_I2C1_SetDataCompleteCallback	;wreg free
  4903   004ABA                     
  4904                           ;mcc_generated_files/drivers/i2c_simple_master.c: 85:     return I2C1_RESTART_READ;
  4905   004ABA  0E02               	movlw	2
  4906   004ABC  0012               	return		;funcret
  4907   004ABE                     __end_of_rd1RegCompleteHandler:
  4908                           	callstack 0
  4909                           
  4910 ;; *************** function _wr1RegCompleteHandler *****************
  4911 ;; Defined at:
  4912 ;;		line 34 in file "mcc_generated_files/drivers/i2c_simple_master.c"
  4913 ;; Parameters:    Size  Location     Type
  4914 ;;  p               2   11[COMRAM] PTR void 
  4915 ;;		 -> I2C1_ReadDataBlock@bufferBlock(4), I2C1_Write2ByteRegister@data(2), I2C1_Write1ByteRegister@data(1), I2C1_Read2B
      +yteRegister@returnValue(2), 
  4916 ;;		 -> I2C1_Read1ByteRegister@returnValue(1), i2c_readDataBlock@d(4), i2c_write2ByteRegister@data(2), i2c_read2ByteRegi
      +ster@result(2), 
  4917 ;;		 -> i2c_read1ByteRegister@d2(1), i2c_write1ByteRegister@data(1), NULL(0), 
  4918 ;; Auto vars:     Size  Location     Type
  4919 ;;		None
  4920 ;; Return value:  Size  Location     Type
  4921 ;;                  1    wreg      enum E360
  4922 ;; Registers used:
  4923 ;;		wreg, fsr2l, fsr2h, status,2, status,0, prodl, prodh, cstack
  4924 ;; Tracked objects:
  4925 ;;		On entry : 0/0
  4926 ;;		On exit  : 0/0
  4927 ;;		Unchanged: 0/0
  4928 ;; Data sizes:     COMRAM   BANK5   BANK6   BANK7   BANK8   BANK9  BANK10  BANK11  BANK12  BANK13  BANK14  BANK15  BANK1
      +6  BANK17  BANK18  BANK19  BANK20  BANK21  BANK22  BANK23  BANK24  BANK25  BANK26  BANK27  BANK28  BANK29  BANK30  BANK3
      +1  BANK32  BANK33  BANK34  BANK35  BANK36  BANK37  BANK38  BANK39  BANK40  BANK41  BANK42  BANK43  BANK44  BANK45  BANK4
      +6  BANK47  BANK48  BANK49  BANK50  BANK51  BANK52  BANK53  BANK54
  4929 ;;      Params:         2       0       0       0       0       0       0       0       0       0       0       0       
      +0       0       0       0       0       0       0       0       0       0       0       0       0       0       0       
      +0       0       0       0       0       0       0       0       0       0       0       0       0       0       0       
      +0       0       0       0       0       0       0       0       0
  4930 ;;      Locals:         0       0       0       0       0       0       0       0       0       0       0       0       
      +0       0       0       0       0       0       0       0       0       0       0       0       0       0       0       
      +0       0       0       0       0       0       0       0       0       0       0       0       0       0       0       
      +0       0       0       0       0       0       0       0       0
  4931 ;;      Temps:          0       0       0       0       0       0       0       0       0       0       0       0       
      +0       0       0       0       0       0       0       0       0       0       0       0       0       0       0       
      +0       0       0       0       0       0       0       0       0       0       0       0       0       0       0       
      +0       0       0       0       0       0       0       0       0
  4932 ;;      Totals:         2       0       0       0       0       0       0       0       0       0       0       0       
      +0       0       0       0       0       0       0       0       0       0       0       0       0       0       0       
      +0       0       0       0       0       0       0       0       0       0       0       0       0       0       0       
      +0       0       0       0       0       0       0       0       0
  4933 ;;Total ram usage:        2 bytes
  4934 ;; Hardware stack levels used: 1
  4935 ;; Hardware stack levels required when called: 2
  4936 ;; This function calls:
  4937 ;;		_I2C1_SetBuffer
  4938 ;;		_I2C1_SetDataCompleteCallback
  4939 ;; This function is called by:
  4940 ;;		_i2c_write1ByteRegister
  4941 ;;		_I2C1_DO_RX_EMPTY
  4942 ;;		_I2C1_DO_TX_EMPTY
  4943 ;;		_I2C1_DO_TX
  4944 ;;		_I2C1_DO_ADDRESS_NACK
  4945 ;;		_I2C1_DO_BUS_COLLISION
  4946 ;; This function uses a non-reentrant model
  4947 ;;
  4948                           
  4949                           	psect	text58
  4950   004ABE                     __ptext58:
  4951                           	callstack 0
  4952   004ABE                     _wr1RegCompleteHandler:
  4953                           	callstack 114
  4954   004ABE                     
  4955                           ;mcc_generated_files/drivers/i2c_simple_master.c: 34: static i2c1_operations_t wr1RegCom
      +                          pleteHandler(void *p);mcc_generated_files/drivers/i2c_simple_master.c: 35: {;mcc_generat
      +                          ed_files/drivers/i2c_simple_master.c: 36:     I2C1_SetBuffer(p,1);
  4956   004ABE  C537  F52C         	movff	wr1RegCompleteHandler@p,I2C1_SetBuffer@buffer
  4957   004AC2  C538  F52D         	movff	wr1RegCompleteHandler@p+1,I2C1_SetBuffer@buffer+1
  4958   004AC6  0E00               	movlw	0
  4959   004AC8  6E2F               	movwf	(I2C1_SetBuffer@bufferSize+1)^(0+1280),c
  4960   004ACA  0E01               	movlw	1
  4961   004ACC  6E2E               	movwf	I2C1_SetBuffer@bufferSize^(0+1280),c
  4962   004ACE  EC4B  F026         	call	_I2C1_SetBuffer	;wreg free
  4963   004AD2                     
  4964                           ;mcc_generated_files/drivers/i2c_simple_master.c: 37:     I2C1_SetDataCompleteCallback((
      +                          (void*)0),((void*)0));
  4965   004AD2  0E00               	movlw	0
  4966   004AD4  6E32               	movwf	I2C1_SetDataCompleteCallback@cb^(0+1280),c
  4967   004AD6  0E00               	movlw	0
  4968   004AD8  6E33               	movwf	(I2C1_SetDataCompleteCallback@cb+1)^(0+1280),c
  4969   004ADA  0E00               	movlw	0
  4970   004ADC  6E34               	movwf	(I2C1_SetDataCompleteCallback@cb+2)^(0+1280),c
  4971   004ADE  0E00               	movlw	0
  4972   004AE0  6E35               	movwf	I2C1_SetDataCompleteCallback@ptr^(0+1280),c
  4973   004AE2  0E00               	movlw	0
  4974   004AE4  6E36               	movwf	(I2C1_SetDataCompleteCallback@ptr+1)^(0+1280),c
  4975   004AE6  EC78  F026         	call	_I2C1_SetDataCompleteCallback	;wreg free
  4976   004AEA                     
  4977                           ;mcc_generated_files/drivers/i2c_simple_master.c: 38:     return I2C1_CONTINUE;
  4978   004AEA  0E04               	movlw	4
  4979   004AEC  0012               	return		;funcret
  4980   004AEE                     __end_of_wr1RegCompleteHandler:
  4981                           	callstack 0
  4982                           
  4983 ;; *************** function _wr2RegCompleteHandler@i2c1_master_example$F168 *****************
  4984 ;; Defined at:
  4985 ;;		line 163 in file "mcc_generated_files/examples/i2c1_master_example.c"
  4986 ;; Parameters:    Size  Location     Type
  4987 ;;  ptr             2   11[COMRAM] PTR void 
  4988 ;;		 -> I2C1_ReadDataBlock@bufferBlock(4), I2C1_Write2ByteRegister@data(2), I2C1_Write1ByteRegister@data(1), I2C1_Read2B
      +yteRegister@returnValue(2), 
  4989 ;;		 -> I2C1_Read1ByteRegister@returnValue(1), i2c_readDataBlock@d(4), i2c_write2ByteRegister@data(2), i2c_read2ByteRegi
      +ster@result(2), 
  4990 ;;		 -> i2c_read1ByteRegister@d2(1), i2c_write1ByteRegister@data(1), NULL(0), 
  4991 ;; Auto vars:     Size  Location     Type
  4992 ;;		None
  4993 ;; Return value:  Size  Location     Type
  4994 ;;                  1    wreg      enum E360
  4995 ;; Registers used:
  4996 ;;		wreg, fsr2l, fsr2h, status,2, status,0, prodl, prodh, cstack
  4997 ;; Tracked objects:
  4998 ;;		On entry : 0/0
  4999 ;;		On exit  : 0/0
  5000 ;;		Unchanged: 0/0
  5001 ;; Data sizes:     COMRAM   BANK5   BANK6   BANK7   BANK8   BANK9  BANK10  BANK11  BANK12  BANK13  BANK14  BANK15  BANK1
      +6  BANK17  BANK18  BANK19  BANK20  BANK21  BANK22  BANK23  BANK24  BANK25  BANK26  BANK27  BANK28  BANK29  BANK30  BANK3
      +1  BANK32  BANK33  BANK34  BANK35  BANK36  BANK37  BANK38  BANK39  BANK40  BANK41  BANK42  BANK43  BANK44  BANK45  BANK4
      +6  BANK47  BANK48  BANK49  BANK50  BANK51  BANK52  BANK53  BANK54
  5002 ;;      Params:         2       0       0       0       0       0       0       0       0       0       0       0       
      +0       0       0       0       0       0       0       0       0       0       0       0       0       0       0       
      +0       0       0       0       0       0       0       0       0       0       0       0       0       0       0       
      +0       0       0       0       0       0       0       0       0
  5003 ;;      Locals:         0       0       0       0       0       0       0       0       0       0       0       0       
      +0       0       0       0       0       0       0       0       0       0       0       0       0       0       0       
      +0       0       0       0       0       0       0       0       0       0       0       0       0       0       0       
      +0       0       0       0       0       0       0       0       0
  5004 ;;      Temps:          0       0       0       0       0       0       0       0       0       0       0       0       
      +0       0       0       0       0       0       0       0       0       0       0       0       0       0       0       
      +0       0       0       0       0       0       0       0       0       0       0       0       0       0       0       
      +0       0       0       0       0       0       0       0       0
  5005 ;;      Totals:         2       0       0       0       0       0       0       0       0       0       0       0       
      +0       0       0       0       0       0       0       0       0       0       0       0       0       0       0       
      +0       0       0       0       0       0       0       0       0       0       0       0       0       0       0       
      +0       0       0       0       0       0       0       0       0
  5006 ;;Total ram usage:        2 bytes
  5007 ;; Hardware stack levels used: 1
  5008 ;; Hardware stack levels required when called: 2
  5009 ;; This function calls:
  5010 ;;		_I2C1_SetBuffer
  5011 ;;		_I2C1_SetDataCompleteCallback
  5012 ;; This function is called by:
  5013 ;;		_I2C1_Write2ByteRegister
  5014 ;;		_I2C1_DO_RX_EMPTY
  5015 ;;		_I2C1_DO_TX_EMPTY
  5016 ;;		_I2C1_DO_TX
  5017 ;;		_I2C1_DO_ADDRESS_NACK
  5018 ;;		_I2C1_DO_BUS_COLLISION
  5019 ;; This function uses a non-reentrant model
  5020 ;;
  5021                           
  5022                           	psect	text59
  5023   004AEE                     __ptext59:
  5024                           	callstack 0
  5025   004AEE                     _wr2RegCompleteHandler@i2c1_master_example$F168:
  5026                           	callstack 114
  5027   004AEE                     
  5028                           ;mcc_generated_files/examples/i2c1_master_example.c: 163: static i2c1_operations_t wr2Re
      +                          gCompleteHandler(void *ptr);mcc_generated_files/examples/i2c1_master_example.c: 164: {;m
      +                          cc_generated_files/examples/i2c1_master_example.c: 165:     I2C1_SetBuffer(ptr,2);
  5029   004AEE  C537  F52C         	movff	wr2RegCompleteHandler@i2c1_master_example$F168@ptr,I2C1_SetBuffer@buffer
  5030   004AF2  C538  F52D         	movff	wr2RegCompleteHandler@i2c1_master_example$F168@ptr+1,I2C1_SetBuffer@buffer+1
  5031   004AF6  0E00               	movlw	0
  5032   004AF8  6E2F               	movwf	(I2C1_SetBuffer@bufferSize+1)^(0+1280),c
  5033   004AFA  0E02               	movlw	2
  5034   004AFC  6E2E               	movwf	I2C1_SetBuffer@bufferSize^(0+1280),c
  5035   004AFE  EC4B  F026         	call	_I2C1_SetBuffer	;wreg free
  5036   004B02                     
  5037                           ;mcc_generated_files/examples/i2c1_master_example.c: 166:     I2C1_SetDataCompleteCallba
      +                          ck(((void*)0),((void*)0));
  5038   004B02  0E00               	movlw	0
  5039   004B04  6E32               	movwf	I2C1_SetDataCompleteCallback@cb^(0+1280),c
  5040   004B06  0E00               	movlw	0
  5041   004B08  6E33               	movwf	(I2C1_SetDataCompleteCallback@cb+1)^(0+1280),c
  5042   004B0A  0E00               	movlw	0
  5043   004B0C  6E34               	movwf	(I2C1_SetDataCompleteCallback@cb+2)^(0+1280),c
  5044   004B0E  0E00               	movlw	0
  5045   004B10  6E35               	movwf	I2C1_SetDataCompleteCallback@ptr^(0+1280),c
  5046   004B12  0E00               	movlw	0
  5047   004B14  6E36               	movwf	(I2C1_SetDataCompleteCallback@ptr+1)^(0+1280),c
  5048   004B16  EC78  F026         	call	_I2C1_SetDataCompleteCallback	;wreg free
  5049   004B1A                     
  5050                           ;mcc_generated_files/examples/i2c1_master_example.c: 167:     return I2C1_CONTINUE;
  5051   004B1A  0E04               	movlw	4
  5052   004B1C  0012               	return		;funcret
  5053   004B1E                     __end_of_wr2RegCompleteHandler@i2c1_master_example$F168:
  5054                           	callstack 0
  5055                           
  5056 ;; *************** function _I2C1_SetDataCompleteCallback *****************
  5057 ;; Defined at:
  5058 ;;		line 306 in file "mcc_generated_files/i2c1_master.c"
  5059 ;; Parameters:    Size  Location     Type
  5060 ;;  cb              3    6[COMRAM] PTR FTN(PTR void ,)enum 
  5061 ;;		 -> Absolute function(1), rdBlkRegCompleteHandler@i2c1_master_example$F179(1), wr2RegCompleteHandler@i2c1_master_exa
      +mple$F168(1), wr1RegCompleteHandler@i2c1_master_example$F162(1), 
  5062 ;;		 -> rd2RegCompleteHandler@i2c1_master_example$F156(1), rd1RegCompleteHandler@i2c1_master_example$F145(1), rdBlkRegCo
      +mpleteHandler(1), wr2RegCompleteHandler(1), 
  5063 ;;		 -> rd2RegCompleteHandler(1), rd1RegCompleteHandler(1), wr1RegCompleteHandler(1), 
  5064 ;;  ptr             2    9[COMRAM] PTR void 
  5065 ;;		 -> I2C1_ReadDataBlock@bufferBlock(4), I2C1_Write2ByteRegister@data(2), I2C1_Write1ByteRegister@data(1), I2C1_Read2B
      +yteRegister@returnValue(2), 
  5066 ;;		 -> I2C1_Read1ByteRegister@returnValue(1), i2c_readDataBlock@d(4), i2c_write2ByteRegister@data(2), i2c_read2ByteRegi
      +ster@result(2), 
  5067 ;;		 -> i2c_read1ByteRegister@d2(1), i2c_write1ByteRegister@data(1), NULL(0), 
  5068 ;; Auto vars:     Size  Location     Type
  5069 ;;		None
  5070 ;; Return value:  Size  Location     Type
  5071 ;;                  1    wreg      void 
  5072 ;; Registers used:
  5073 ;;		wreg, fsr2l, fsr2h, status,2, status,0, prodl, prodh, cstack
  5074 ;; Tracked objects:
  5075 ;;		On entry : 0/0
  5076 ;;		On exit  : 0/0
  5077 ;;		Unchanged: 0/0
  5078 ;; Data sizes:     COMRAM   BANK5   BANK6   BANK7   BANK8   BANK9  BANK10  BANK11  BANK12  BANK13  BANK14  BANK15  BANK1
      +6  BANK17  BANK18  BANK19  BANK20  BANK21  BANK22  BANK23  BANK24  BANK25  BANK26  BANK27  BANK28  BANK29  BANK30  BANK3
      +1  BANK32  BANK33  BANK34  BANK35  BANK36  BANK37  BANK38  BANK39  BANK40  BANK41  BANK42  BANK43  BANK44  BANK45  BANK4
      +6  BANK47  BANK48  BANK49  BANK50  BANK51  BANK52  BANK53  BANK54
  5079 ;;      Params:         5       0       0       0       0       0       0       0       0       0       0       0       
      +0       0       0       0       0       0       0       0       0       0       0       0       0       0       0       
      +0       0       0       0       0       0       0       0       0       0       0       0       0       0       0       
      +0       0       0       0       0       0       0       0       0
  5080 ;;      Locals:         0       0       0       0       0       0       0       0       0       0       0       0       
      +0       0       0       0       0       0       0       0       0       0       0       0       0       0       0       
      +0       0       0       0       0       0       0       0       0       0       0       0       0       0       0       
      +0       0       0       0       0       0       0       0       0
  5081 ;;      Temps:          0       0       0       0       0       0       0       0       0       0       0       0       
      +0       0       0       0       0       0       0       0       0       0       0       0       0       0       0       
      +0       0       0       0       0       0       0       0       0       0       0       0       0       0       0       
      +0       0       0       0       0       0       0       0       0
  5082 ;;      Totals:         5       0       0       0       0       0       0       0       0       0       0       0       
      +0       0       0       0       0       0       0       0       0       0       0       0       0       0       0       
      +0       0       0       0       0       0       0       0       0       0       0       0       0       0       0       
      +0       0       0       0       0       0       0       0       0
  5083 ;;Total ram usage:        5 bytes
  5084 ;; Hardware stack levels used: 1
  5085 ;; Hardware stack levels required when called: 1
  5086 ;; This function calls:
  5087 ;;		_I2C1_SetCallback
  5088 ;; This function is called by:
  5089 ;;		_wr1RegCompleteHandler
  5090 ;;		_rd1RegCompleteHandler
  5091 ;;		_rd2RegCompleteHandler
  5092 ;;		_wr2RegCompleteHandler
  5093 ;;		_rdBlkRegCompleteHandler
  5094 ;;		_I2C1_Write1ByteRegister
  5095 ;;		_rd1RegCompleteHandler@i2c1_master_example$F145
  5096 ;;		_rd2RegCompleteHandler@i2c1_master_example$F156
  5097 ;;		_wr1RegCompleteHandler@i2c1_master_example$F162
  5098 ;;		_wr2RegCompleteHandler@i2c1_master_example$F168
  5099 ;;		_rdBlkRegCompleteHandler@i2c1_master_example$F179
  5100 ;;		_i2c_write1ByteRegister
  5101 ;;		_i2c_read1ByteRegister
  5102 ;;		_i2c_read2ByteRegister
  5103 ;;		_i2c_write2ByteRegister
  5104 ;;		_i2c_readDataBlock
  5105 ;;		_I2C1_Read1ByteRegister
  5106 ;;		_I2C1_Read2ByteRegister
  5107 ;;		_I2C1_Write2ByteRegister
  5108 ;;		_I2C1_ReadDataBlock
  5109 ;; This function uses a non-reentrant model
  5110 ;;
  5111                           
  5112                           	psect	text60
  5113   004CF0                     __ptext60:
  5114                           	callstack 0
  5115   004CF0                     _I2C1_SetDataCompleteCallback:
  5116                           	callstack 120
  5117   004CF0                     
  5118                           ;mcc_generated_files/i2c1_master.c: 306: void I2C1_SetDataCompleteCallback(i2c1_callback
      +                          _t cb, void *ptr);mcc_generated_files/i2c1_master.c: 307: {;mcc_generated_files/i2c1_mas
      +                          ter.c: 308:     I2C1_SetCallback(I2C1_DATA_COMPLETE, cb, ptr);
  5119   004CF0  C532  F52C         	movff	I2C1_SetDataCompleteCallback@cb,I2C1_SetCallback@cb
  5120   004CF4  C533  F52D         	movff	I2C1_SetDataCompleteCallback@cb+1,I2C1_SetCallback@cb+1
  5121   004CF8  C534  F52E         	movff	I2C1_SetDataCompleteCallback@cb+2,I2C1_SetCallback@cb+2
  5122   004CFC  C535  F52F         	movff	I2C1_SetDataCompleteCallback@ptr,I2C1_SetCallback@ptr
  5123   004D00  C536  F530         	movff	I2C1_SetDataCompleteCallback@ptr+1,I2C1_SetCallback@ptr+1
  5124   004D04  0E00               	movlw	0
  5125   004D06  ECE7  F021         	call	_I2C1_SetCallback
  5126   004D0A  0012               	return		;funcret
  5127   004D0C                     __end_of_I2C1_SetDataCompleteCallback:
  5128                           	callstack 0
  5129                           
  5130 ;; *************** function _I2C1_SetCallback *****************
  5131 ;; Defined at:
  5132 ;;		line 331 in file "mcc_generated_files/i2c1_master.c"
  5133 ;; Parameters:    Size  Location     Type
  5134 ;;  idx             1    wreg     enum E23282
  5135 ;;  cb              3    0[COMRAM] PTR FTN(PTR void ,)enum 
  5136 ;;		 -> Absolute function(1), rdBlkRegCompleteHandler@i2c1_master_example$F179(1), wr2RegCompleteHandler@i2c1_master_exa
      +mple$F168(1), wr1RegCompleteHandler@i2c1_master_example$F162(1), 
  5137 ;;		 -> rd2RegCompleteHandler@i2c1_master_example$F156(1), rd1RegCompleteHandler@i2c1_master_example$F145(1), rdBlkRegCo
      +mpleteHandler(1), wr2RegCompleteHandler(1), 
  5138 ;;		 -> rd2RegCompleteHandler(1), rd1RegCompleteHandler(1), wr1RegCompleteHandler(1), 
  5139 ;;  ptr             2    3[COMRAM] PTR void 
  5140 ;;		 -> I2C1_ReadDataBlock@bufferBlock(4), I2C1_Write2ByteRegister@data(2), I2C1_Write1ByteRegister@data(1), I2C1_Read2B
      +yteRegister@returnValue(2), 
  5141 ;;		 -> I2C1_Read1ByteRegister@returnValue(1), i2c_readDataBlock@d(4), i2c_write2ByteRegister@data(2), i2c_read2ByteRegi
      +ster@result(2), 
  5142 ;;		 -> i2c_read1ByteRegister@d2(1), i2c_write1ByteRegister@data(1), NULL(0), 
  5143 ;; Auto vars:     Size  Location     Type
  5144 ;;  idx             1    5[COMRAM] enum E23282
  5145 ;; Return value:  Size  Location     Type
  5146 ;;                  1    wreg      void 
  5147 ;; Registers used:
  5148 ;;		wreg, fsr2l, fsr2h, status,2, status,0, prodl, prodh
  5149 ;; Tracked objects:
  5150 ;;		On entry : 0/0
  5151 ;;		On exit  : 0/0
  5152 ;;		Unchanged: 0/0
  5153 ;; Data sizes:     COMRAM   BANK5   BANK6   BANK7   BANK8   BANK9  BANK10  BANK11  BANK12  BANK13  BANK14  BANK15  BANK1
      +6  BANK17  BANK18  BANK19  BANK20  BANK21  BANK22  BANK23  BANK24  BANK25  BANK26  BANK27  BANK28  BANK29  BANK30  BANK3
      +1  BANK32  BANK33  BANK34  BANK35  BANK36  BANK37  BANK38  BANK39  BANK40  BANK41  BANK42  BANK43  BANK44  BANK45  BANK4
      +6  BANK47  BANK48  BANK49  BANK50  BANK51  BANK52  BANK53  BANK54
  5154 ;;      Params:         5       0       0       0       0       0       0       0       0       0       0       0       
      +0       0       0       0       0       0       0       0       0       0       0       0       0       0       0       
      +0       0       0       0       0       0       0       0       0       0       0       0       0       0       0       
      +0       0       0       0       0       0       0       0       0
  5155 ;;      Locals:         1       0       0       0       0       0       0       0       0       0       0       0       
      +0       0       0       0       0       0       0       0       0       0       0       0       0       0       0       
      +0       0       0       0       0       0       0       0       0       0       0       0       0       0       0       
      +0       0       0       0       0       0       0       0       0
  5156 ;;      Temps:          0       0       0       0       0       0       0       0       0       0       0       0       
      +0       0       0       0       0       0       0       0       0       0       0       0       0       0       0       
      +0       0       0       0       0       0       0       0       0       0       0       0       0       0       0       
      +0       0       0       0       0       0       0       0       0
  5157 ;;      Totals:         6       0       0       0       0       0       0       0       0       0       0       0       
      +0       0       0       0       0       0       0       0       0       0       0       0       0       0       0       
      +0       0       0       0       0       0       0       0       0       0       0       0       0       0       0       
      +0       0       0       0       0       0       0       0       0
  5158 ;;Total ram usage:        6 bytes
  5159 ;; Hardware stack levels used: 1
  5160 ;; This function calls:
  5161 ;;		Nothing
  5162 ;; This function is called by:
  5163 ;;		_I2C1_SetDataCompleteCallback
  5164 ;;		_I2C1_SetAddressNackCallback
  5165 ;;		_I2C1_SetWriteCollisionCallback
  5166 ;;		_I2C1_SetDataNackCallback
  5167 ;;		_I2C1_SetTimeoutCallback
  5168 ;; This function uses a non-reentrant model
  5169 ;;
  5170                           
  5171                           	psect	text61
  5172   0043CE                     __ptext61:
  5173                           	callstack 0
  5174   0043CE                     _I2C1_SetCallback:
  5175                           	callstack 120
  5176                           
  5177                           ;incstack = 0
  5178                           ;I2C1_SetCallback@idx stored from wreg
  5179   0043CE  6E31               	movwf	I2C1_SetCallback@idx^(0+1280),c
  5180   0043D0                     
  5181                           ;mcc_generated_files/i2c1_master.c: 331: static void I2C1_SetCallback(i2c1_callbackIndex
      +                          _t idx, i2c1_callback_t cb, void *ptr);mcc_generated_files/i2c1_master.c: 332: {;mcc_gen
      +                          erated_files/i2c1_master.c: 333:     if(cb)
  5182   0043D0  502C               	movf	I2C1_SetCallback@cb^(0+1280),w,c
  5183   0043D2  102D               	iorwf	(I2C1_SetCallback@cb+1)^(0+1280),w,c
  5184   0043D4  102E               	iorwf	(I2C1_SetCallback@cb+2)^(0+1280),w,c
  5185   0043D6  B4D8               	btfsc	status,2,c
  5186   0043D8  EFF0  F021         	goto	u771
  5187   0043DC  EFF2  F021         	goto	u770
  5188   0043E0                     u771:
  5189   0043E0  EF0E  F022         	goto	l2594
  5190   0043E4                     u770:
  5191   0043E4                     
  5192                           ;mcc_generated_files/i2c1_master.c: 334:     {;mcc_generated_files/i2c1_master.c: 335:  
      +                                 I2C1_Status.callbackTable[idx] = cb;
  5193   0043E4  5031               	movf	I2C1_SetCallback@idx^(0+1280),w,c
  5194   0043E6  0D03               	mullw	3
  5195   0043E8  0E01               	movlw	low _I2C1_Status
  5196   0043EA  24F3               	addwf	243,w,c
  5197   0043EC  6ED9               	movwf	fsr2l,c
  5198   0043EE  0E05               	movlw	high _I2C1_Status
  5199   0043F0  20F4               	addwfc	prodh,w,c
  5200   0043F2  6EDA               	movwf	fsr2h,c
  5201   0043F4  C52C  F4DE         	movff	I2C1_SetCallback@cb,postinc2
  5202   0043F8  C52D  F4DE         	movff	I2C1_SetCallback@cb+1,postinc2
  5203   0043FC  C52E  F4DE         	movff	I2C1_SetCallback@cb+2,postinc2
  5204                           
  5205                           ;mcc_generated_files/i2c1_master.c: 336:         I2C1_Status.callbackPayload[idx] = ptr;
  5206   004400  5031               	movf	I2C1_SetCallback@idx^(0+1280),w,c
  5207   004402  0D02               	mullw	2
  5208   004404  0E13               	movlw	low (_I2C1_Status+18)
  5209   004406  24F3               	addwf	243,w,c
  5210   004408  6ED9               	movwf	fsr2l,c
  5211   00440A  0E05               	movlw	high (_I2C1_Status+18)
  5212   00440C  20F4               	addwfc	prodh,w,c
  5213   00440E  6EDA               	movwf	fsr2h,c
  5214   004410  C52F  F4DE         	movff	I2C1_SetCallback@ptr,postinc2
  5215   004414  C530  F4DD         	movff	I2C1_SetCallback@ptr+1,postdec2
  5216                           
  5217                           ;mcc_generated_files/i2c1_master.c: 337:     }
  5218   004418  EF28  F022         	goto	l393
  5219   00441C                     l2594:
  5220                           
  5221                           ;mcc_generated_files/i2c1_master.c: 339:     {;mcc_generated_files/i2c1_master.c: 340:  
      +                                 I2C1_Status.callbackTable[idx] = I2C1_CallbackReturnStop;
  5222   00441C  5031               	movf	I2C1_SetCallback@idx^(0+1280),w,c
  5223   00441E  0D03               	mullw	3
  5224   004420  0E01               	movlw	low _I2C1_Status
  5225   004422  24F3               	addwf	243,w,c
  5226   004424  6ED9               	movwf	fsr2l,c
  5227   004426  0E05               	movlw	high _I2C1_Status
  5228   004428  20F4               	addwfc	prodh,w,c
  5229   00442A  6EDA               	movwf	fsr2h,c
  5230   00442C  0EDA               	movlw	low _I2C1_CallbackReturnStop
  5231   00442E  6EDE               	movwf	postinc2,c
  5232   004430  0E4E               	movlw	high _I2C1_CallbackReturnStop
  5233   004432  6EDE               	movwf	postinc2,c
  5234   004434  0E00               	movlw	low (_I2C1_CallbackReturnStop shr (0+16))
  5235   004436  6EDE               	movwf	postinc2,c
  5236                           
  5237                           ;mcc_generated_files/i2c1_master.c: 341:         I2C1_Status.callbackPayload[idx] = ((vo
      +                          id*)0);
  5238   004438  5031               	movf	I2C1_SetCallback@idx^(0+1280),w,c
  5239   00443A  0D02               	mullw	2
  5240   00443C  0E13               	movlw	low (_I2C1_Status+18)
  5241   00443E  24F3               	addwf	243,w,c
  5242   004440  6ED9               	movwf	fsr2l,c
  5243   004442  0E05               	movlw	high (_I2C1_Status+18)
  5244   004444  20F4               	addwfc	prodh,w,c
  5245   004446  6EDA               	movwf	fsr2h,c
  5246   004448  0E00               	movlw	0
  5247   00444A  6EDE               	movwf	postinc2,c
  5248   00444C  0E00               	movlw	0
  5249   00444E  6EDD               	movwf	postdec2,c
  5250   004450                     l393:
  5251   004450  0012               	return		;funcret
  5252   004452                     __end_of_I2C1_SetCallback:
  5253                           	callstack 0
  5254                           
  5255 ;; *************** function _I2C1_SetBuffer *****************
  5256 ;; Defined at:
  5257 ;;		line 296 in file "mcc_generated_files/i2c1_master.c"
  5258 ;; Parameters:    Size  Location     Type
  5259 ;;  buffer          2    0[COMRAM] PTR void 
  5260 ;;		 -> i2c_write1ByteRegister@data.data(3), i2c_read1ByteRegister@d2.data(3), i2c_read2ByteRegister@result.data(3), i2c
      +_write2ByteRegister@data.data(3), 
  5261 ;;		 -> I2C1_Read1ByteRegister@returnValue.data(3), I2C1_Read2ByteRegister@returnValue.data(3), I2C1_Write1ByteRegister@
      +data.data(3), I2C1_Write2ByteRegister@data.data(3), 
  5262 ;;		 -> I2C1_ReadDataBlock@reg(1), I2C1_ReadDataBlock@bufferBlock(4), bufferBlock.data(3), I2C1_Write2ByteRegister@reg(1
      +), 
  5263 ;;		 -> I2C1_Write2ByteRegister@data(2), I2C1_Write1ByteRegister@reg(1), I2C1_Write1ByteRegister@data(1), I2C1_Read2Byte
      +Register@reg(1), 
  5264 ;;		 -> I2C1_Read2ByteRegister@returnValue(2), I2C1_Read1ByteRegister@reg(1), I2C1_Read1ByteRegister@returnValue(1), i2c
      +_readDataBlock@reg(1), 
  5265 ;;		 -> i2c_readDataBlock@d(4), d.data(3), i2c_write2ByteRegister@reg(1), i2c_write2ByteRegister@data(2), 
  5266 ;;		 -> i2c_read2ByteRegister@reg(1), i2c_read2ByteRegister@result(2), i2c_read1ByteRegister@reg(1), i2c_read1ByteRegist
      +er@d2(1), 
  5267 ;;		 -> i2c_write1ByteRegister@reg(1), i2c_write1ByteRegister@data(1), NULL(0), 
  5268 ;;  bufferSize      2    2[COMRAM] unsigned int 
  5269 ;; Auto vars:     Size  Location     Type
  5270 ;;		None
  5271 ;; Return value:  Size  Location     Type
  5272 ;;                  1    wreg      void 
  5273 ;; Registers used:
  5274 ;;		wreg, status,2, status,0
  5275 ;; Tracked objects:
  5276 ;;		On entry : 0/0
  5277 ;;		On exit  : 0/0
  5278 ;;		Unchanged: 0/0
  5279 ;; Data sizes:     COMRAM   BANK5   BANK6   BANK7   BANK8   BANK9  BANK10  BANK11  BANK12  BANK13  BANK14  BANK15  BANK1
      +6  BANK17  BANK18  BANK19  BANK20  BANK21  BANK22  BANK23  BANK24  BANK25  BANK26  BANK27  BANK28  BANK29  BANK30  BANK3
      +1  BANK32  BANK33  BANK34  BANK35  BANK36  BANK37  BANK38  BANK39  BANK40  BANK41  BANK42  BANK43  BANK44  BANK45  BANK4
      +6  BANK47  BANK48  BANK49  BANK50  BANK51  BANK52  BANK53  BANK54
  5280 ;;      Params:         4       0       0       0       0       0       0       0       0       0       0       0       
      +0       0       0       0       0       0       0       0       0       0       0       0       0       0       0       
      +0       0       0       0       0       0       0       0       0       0       0       0       0       0       0       
      +0       0       0       0       0       0       0       0       0
  5281 ;;      Locals:         0       0       0       0       0       0       0       0       0       0       0       0       
      +0       0       0       0       0       0       0       0       0       0       0       0       0       0       0       
      +0       0       0       0       0       0       0       0       0       0       0       0       0       0       0       
      +0       0       0       0       0       0       0       0       0
  5282 ;;      Temps:          0       0       0       0       0       0       0       0       0       0       0       0       
      +0       0       0       0       0       0       0       0       0       0       0       0       0       0       0       
      +0       0       0       0       0       0       0       0       0       0       0       0       0       0       0       
      +0       0       0       0       0       0       0       0       0
  5283 ;;      Totals:         4       0       0       0       0       0       0       0       0       0       0       0       
      +0       0       0       0       0       0       0       0       0       0       0       0       0       0       0       
      +0       0       0       0       0       0       0       0       0       0       0       0       0       0       0       
      +0       0       0       0       0       0       0       0       0
  5284 ;;Total ram usage:        4 bytes
  5285 ;; Hardware stack levels used: 1
  5286 ;; This function calls:
  5287 ;;		Nothing
  5288 ;; This function is called by:
  5289 ;;		_wr1RegCompleteHandler
  5290 ;;		_rd1RegCompleteHandler
  5291 ;;		_rd2RegCompleteHandler
  5292 ;;		_wr2RegCompleteHandler
  5293 ;;		_rdBlkRegCompleteHandler
  5294 ;;		_I2C1_Write1ByteRegister
  5295 ;;		_rd1RegCompleteHandler@i2c1_master_example$F145
  5296 ;;		_rd2RegCompleteHandler@i2c1_master_example$F156
  5297 ;;		_wr1RegCompleteHandler@i2c1_master_example$F162
  5298 ;;		_wr2RegCompleteHandler@i2c1_master_example$F168
  5299 ;;		_rdBlkRegCompleteHandler@i2c1_master_example$F179
  5300 ;;		_i2c_write1ByteRegister
  5301 ;;		_i2c_writeNBytes
  5302 ;;		_i2c_read1ByteRegister
  5303 ;;		_i2c_read2ByteRegister
  5304 ;;		_i2c_write2ByteRegister
  5305 ;;		_i2c_readDataBlock
  5306 ;;		_i2c_readNBytes
  5307 ;;		_I2C1_Read1ByteRegister
  5308 ;;		_I2C1_Read2ByteRegister
  5309 ;;		_I2C1_Write2ByteRegister
  5310 ;;		_I2C1_WriteNBytes
  5311 ;;		_I2C1_ReadNBytes
  5312 ;;		_I2C1_ReadDataBlock
  5313 ;; This function uses a non-reentrant model
  5314 ;;
  5315                           
  5316                           	psect	text62
  5317   004C96                     __ptext62:
  5318                           	callstack 0
  5319   004C96                     _I2C1_SetBuffer:
  5320                           	callstack 121
  5321   004C96                     
  5322                           ;mcc_generated_files/i2c1_master.c: 296: void I2C1_SetBuffer(void *buffer, size_t buffer
      +                          Size);mcc_generated_files/i2c1_master.c: 297: {;mcc_generated_files/i2c1_master.c: 298: 
      +                              if(I2C1_Status.bufferFree)
  5323   004C96  A82A               	btfss	(_I2C1_Status+41)^(0+1280),4,c
  5324   004C98  EF50  F026         	goto	u781
  5325   004C9C  EF52  F026         	goto	u780
  5326   004CA0                     u781:
  5327   004CA0  EF5B  F026         	goto	l373
  5328   004CA4                     u780:
  5329   004CA4                     
  5330                           ;mcc_generated_files/i2c1_master.c: 299:     {;mcc_generated_files/i2c1_master.c: 300:  
      +                                 I2C1_Status.data_ptr = buffer;
  5331   004CA4  C52C  F524         	movff	I2C1_SetBuffer@buffer,_I2C1_Status+35
  5332   004CA8  C52D  F525         	movff	I2C1_SetBuffer@buffer+1,_I2C1_Status+36
  5333   004CAC                     
  5334                           ;mcc_generated_files/i2c1_master.c: 301:         I2C1_Status.data_length = bufferSize;
  5335   004CAC  C52E  F526         	movff	I2C1_SetBuffer@bufferSize,_I2C1_Status+37
  5336   004CB0  C52F  F527         	movff	I2C1_SetBuffer@bufferSize+1,_I2C1_Status+38
  5337   004CB4                     
  5338                           ;mcc_generated_files/i2c1_master.c: 302:         I2C1_Status.bufferFree = 0;
  5339   004CB4  982A               	bcf	(_I2C1_Status+41)^(0+1280),4,c
  5340   004CB6                     l373:
  5341   004CB6  0012               	return		;funcret
  5342   004CB8                     __end_of_I2C1_SetBuffer:
  5343                           	callstack 0
  5344                           
  5345 ;; *************** function _I2C1_ClearInterruptFlags *****************
  5346 ;; Defined at:
  5347 ;;		line 365 in file "mcc_generated_files/i2c1_master.c"
  5348 ;; Parameters:    Size  Location     Type
  5349 ;;		None
  5350 ;; Auto vars:     Size  Location     Type
  5351 ;;		None
  5352 ;; Return value:  Size  Location     Type
  5353 ;;                  1    wreg      void 
  5354 ;; Registers used:
  5355 ;;		wreg, status,2, cstack
  5356 ;; Tracked objects:
  5357 ;;		On entry : 0/0
  5358 ;;		On exit  : 0/0
  5359 ;;		Unchanged: 0/0
  5360 ;; Data sizes:     COMRAM   BANK5   BANK6   BANK7   BANK8   BANK9  BANK10  BANK11  BANK12  BANK13  BANK14  BANK15  BANK1
      +6  BANK17  BANK18  BANK19  BANK20  BANK21  BANK22  BANK23  BANK24  BANK25  BANK26  BANK27  BANK28  BANK29  BANK30  BANK3
      +1  BANK32  BANK33  BANK34  BANK35  BANK36  BANK37  BANK38  BANK39  BANK40  BANK41  BANK42  BANK43  BANK44  BANK45  BANK4
      +6  BANK47  BANK48  BANK49  BANK50  BANK51  BANK52  BANK53  BANK54
  5361 ;;      Params:         0       0       0       0       0       0       0       0       0       0       0       0       
      +0       0       0       0       0       0       0       0       0       0       0       0       0       0       0       
      +0       0       0       0       0       0       0       0       0       0       0       0       0       0       0       
      +0       0       0       0       0       0       0       0       0
  5362 ;;      Locals:         0       0       0       0       0       0       0       0       0       0       0       0       
      +0       0       0       0       0       0       0       0       0       0       0       0       0       0       0       
      +0       0       0       0       0       0       0       0       0       0       0       0       0       0       0       
      +0       0       0       0       0       0       0       0       0
  5363 ;;      Temps:          0       0       0       0       0       0       0       0       0       0       0       0       
      +0       0       0       0       0       0       0       0       0       0       0       0       0       0       0       
      +0       0       0       0       0       0       0       0       0       0       0       0       0       0       0       
      +0       0       0       0       0       0       0       0       0
  5364 ;;      Totals:         0       0       0       0       0       0       0       0       0       0       0       0       
      +0       0       0       0       0       0       0       0       0       0       0       0       0       0       0       
      +0       0       0       0       0       0       0       0       0       0       0       0       0       0       0       
      +0       0       0       0       0       0       0       0       0
  5365 ;;Total ram usage:        0 bytes
  5366 ;; Hardware stack levels used: 1
  5367 ;; Hardware stack levels required when called: 1
  5368 ;; This function calls:
  5369 ;;		_I2C1_MasterClearCountFlag
  5370 ;;		_I2C1_MasterClearNackFlag
  5371 ;;		_I2C1_MasterClearStopFlag
  5372 ;;		_I2C1_MasterIsCountFlagSet
  5373 ;;		_I2C1_MasterIsNackFlagSet
  5374 ;;		_I2C1_MasterIsStopFlagSet
  5375 ;; This function is called by:
  5376 ;;		_I2C1_MasterFsm
  5377 ;; This function uses a non-reentrant model
  5378 ;;
  5379                           
  5380                           	psect	text63
  5381   00483A                     __ptext63:
  5382                           	callstack 0
  5383   00483A                     _I2C1_ClearInterruptFlags:
  5384                           	callstack 116
  5385   00483A                     
  5386                           ;mcc_generated_files/i2c1_master.c: 367:     if(I2C1_MasterIsCountFlagSet())
  5387   00483A  ECD7  F026         	call	_I2C1_MasterIsCountFlagSet	;wreg free
  5388   00483E  0900               	iorlw	0
  5389   004840  B4D8               	btfsc	status,2,c
  5390   004842  EF25  F024         	goto	u131
  5391   004846  EF27  F024         	goto	u130
  5392   00484A                     u131:
  5393   00484A  EF2B  F024         	goto	l1784
  5394   00484E                     u130:
  5395   00484E                     
  5396                           ;mcc_generated_files/i2c1_master.c: 368:     {;mcc_generated_files/i2c1_master.c: 369:  
      +                                 I2C1_MasterClearCountFlag();
  5397   00484E  EC64  F027         	call	_I2C1_MasterClearCountFlag	;wreg free
  5398                           
  5399                           ;mcc_generated_files/i2c1_master.c: 370:     }
  5400   004852  EF45  F024         	goto	l411
  5401   004856                     l1784:
  5402   004856  ECC1  F026         	call	_I2C1_MasterIsStopFlagSet	;wreg free
  5403   00485A  0900               	iorlw	0
  5404   00485C  B4D8               	btfsc	status,2,c
  5405   00485E  EF33  F024         	goto	u141
  5406   004862  EF35  F024         	goto	u140
  5407   004866                     u141:
  5408   004866  EF39  F024         	goto	l1788
  5409   00486A                     u140:
  5410   00486A                     
  5411                           ;mcc_generated_files/i2c1_master.c: 372:     {;mcc_generated_files/i2c1_master.c: 373:  
      +                                 I2C1_MasterClearStopFlag();
  5412   00486A  EC5E  F027         	call	_I2C1_MasterClearStopFlag	;wreg free
  5413                           
  5414                           ;mcc_generated_files/i2c1_master.c: 374:     }
  5415   00486E  EF45  F024         	goto	l411
  5416   004872                     l1788:
  5417   004872  ECCC  F026         	call	_I2C1_MasterIsNackFlagSet	;wreg free
  5418   004876  0900               	iorlw	0
  5419   004878  B4D8               	btfsc	status,2,c
  5420   00487A  EF41  F024         	goto	u151
  5421   00487E  EF43  F024         	goto	u150
  5422   004882                     u151:
  5423   004882  EF45  F024         	goto	l411
  5424   004886                     u150:
  5425   004886                     
  5426                           ;mcc_generated_files/i2c1_master.c: 376:     {;mcc_generated_files/i2c1_master.c: 377:  
      +                                 I2C1_MasterClearNackFlag();
  5427   004886  EC61  F027         	call	_I2C1_MasterClearNackFlag	;wreg free
  5428   00488A                     l411:
  5429   00488A  0012               	return		;funcret
  5430   00488C                     __end_of_I2C1_ClearInterruptFlags:
  5431                           	callstack 0
  5432                           
  5433 ;; *************** function _I2C1_MasterIsStopFlagSet *****************
  5434 ;; Defined at:
  5435 ;;		line 748 in file "mcc_generated_files/i2c1_master.c"
  5436 ;; Parameters:    Size  Location     Type
  5437 ;;		None
  5438 ;; Auto vars:     Size  Location     Type
  5439 ;;		None
  5440 ;; Return value:  Size  Location     Type
  5441 ;;                  1    wreg      _Bool 
  5442 ;; Registers used:
  5443 ;;		wreg
  5444 ;; Tracked objects:
  5445 ;;		On entry : 0/0
  5446 ;;		On exit  : 0/0
  5447 ;;		Unchanged: 0/0
  5448 ;; Data sizes:     COMRAM   BANK5   BANK6   BANK7   BANK8   BANK9  BANK10  BANK11  BANK12  BANK13  BANK14  BANK15  BANK1
      +6  BANK17  BANK18  BANK19  BANK20  BANK21  BANK22  BANK23  BANK24  BANK25  BANK26  BANK27  BANK28  BANK29  BANK30  BANK3
      +1  BANK32  BANK33  BANK34  BANK35  BANK36  BANK37  BANK38  BANK39  BANK40  BANK41  BANK42  BANK43  BANK44  BANK45  BANK4
      +6  BANK47  BANK48  BANK49  BANK50  BANK51  BANK52  BANK53  BANK54
  5449 ;;      Params:         0       0       0       0       0       0       0       0       0       0       0       0       
      +0       0       0       0       0       0       0       0       0       0       0       0       0       0       0       
      +0       0       0       0       0       0       0       0       0       0       0       0       0       0       0       
      +0       0       0       0       0       0       0       0       0
  5450 ;;      Locals:         0       0       0       0       0       0       0       0       0       0       0       0       
      +0       0       0       0       0       0       0       0       0       0       0       0       0       0       0       
      +0       0       0       0       0       0       0       0       0       0       0       0       0       0       0       
      +0       0       0       0       0       0       0       0       0
  5451 ;;      Temps:          0       0       0       0       0       0       0       0       0       0       0       0       
      +0       0       0       0       0       0       0       0       0       0       0       0       0       0       0       
      +0       0       0       0       0       0       0       0       0       0       0       0       0       0       0       
      +0       0       0       0       0       0       0       0       0
  5452 ;;      Totals:         0       0       0       0       0       0       0       0       0       0       0       0       
      +0       0       0       0       0       0       0       0       0       0       0       0       0       0       0       
      +0       0       0       0       0       0       0       0       0       0       0       0       0       0       0       
      +0       0       0       0       0       0       0       0       0
  5453 ;;Total ram usage:        0 bytes
  5454 ;; Hardware stack levels used: 1
  5455 ;; This function calls:
  5456 ;;		Nothing
  5457 ;; This function is called by:
  5458 ;;		_I2C1_ClearInterruptFlags
  5459 ;; This function uses a non-reentrant model
  5460 ;;
  5461                           
  5462                           	psect	text64
  5463   004D82                     __ptext64:
  5464                           	callstack 0
  5465   004D82                     _I2C1_MasterIsStopFlagSet:
  5466                           	callstack 116
  5467   004D82                     
  5468                           ;mcc_generated_files/i2c1_master.c: 750:     return I2C1PIRbits.PCIF;
  5469   004D82  0102               	movlb	2	; () banked
  5470   004D84  B59A               	btfsc	154,2,b	;volatile
  5471   004D86  EFC7  F026         	goto	u81
  5472   004D8A  EFCA  F026         	goto	u80
  5473   004D8E                     u81:
  5474   004D8E  0E01               	movlw	1
  5475   004D90  EFCB  F026         	goto	u86
  5476   004D94                     u80:
  5477   004D94  0E00               	movlw	0
  5478   004D96                     u86:
  5479   004D96                     
  5480                           ; BSR set to: 2
  5481   004D96  0012               	return		;funcret
  5482   004D98                     __end_of_I2C1_MasterIsStopFlagSet:
  5483                           	callstack 0
  5484                           
  5485 ;; *************** function _I2C1_MasterIsNackFlagSet *****************
  5486 ;; Defined at:
  5487 ;;		line 758 in file "mcc_generated_files/i2c1_master.c"
  5488 ;; Parameters:    Size  Location     Type
  5489 ;;		None
  5490 ;; Auto vars:     Size  Location     Type
  5491 ;;		None
  5492 ;; Return value:  Size  Location     Type
  5493 ;;                  1    wreg      _Bool 
  5494 ;; Registers used:
  5495 ;;		wreg
  5496 ;; Tracked objects:
  5497 ;;		On entry : 0/0
  5498 ;;		On exit  : 0/0
  5499 ;;		Unchanged: 0/0
  5500 ;; Data sizes:     COMRAM   BANK5   BANK6   BANK7   BANK8   BANK9  BANK10  BANK11  BANK12  BANK13  BANK14  BANK15  BANK1
      +6  BANK17  BANK18  BANK19  BANK20  BANK21  BANK22  BANK23  BANK24  BANK25  BANK26  BANK27  BANK28  BANK29  BANK30  BANK3
      +1  BANK32  BANK33  BANK34  BANK35  BANK36  BANK37  BANK38  BANK39  BANK40  BANK41  BANK42  BANK43  BANK44  BANK45  BANK4
      +6  BANK47  BANK48  BANK49  BANK50  BANK51  BANK52  BANK53  BANK54
  5501 ;;      Params:         0       0       0       0       0       0       0       0       0       0       0       0       
      +0       0       0       0       0       0       0       0       0       0       0       0       0       0       0       
      +0       0       0       0       0       0       0       0       0       0       0       0       0       0       0       
      +0       0       0       0       0       0       0       0       0
  5502 ;;      Locals:         0       0       0       0       0       0       0       0       0       0       0       0       
      +0       0       0       0       0       0       0       0       0       0       0       0       0       0       0       
      +0       0       0       0       0       0       0       0       0       0       0       0       0       0       0       
      +0       0       0       0       0       0       0       0       0
  5503 ;;      Temps:          0       0       0       0       0       0       0       0       0       0       0       0       
      +0       0       0       0       0       0       0       0       0       0       0       0       0       0       0       
      +0       0       0       0       0       0       0       0       0       0       0       0       0       0       0       
      +0       0       0       0       0       0       0       0       0
  5504 ;;      Totals:         0       0       0       0       0       0       0       0       0       0       0       0       
      +0       0       0       0       0       0       0       0       0       0       0       0       0       0       0       
      +0       0       0       0       0       0       0       0       0       0       0       0       0       0       0       
      +0       0       0       0       0       0       0       0       0
  5505 ;;Total ram usage:        0 bytes
  5506 ;; Hardware stack levels used: 1
  5507 ;; This function calls:
  5508 ;;		Nothing
  5509 ;; This function is called by:
  5510 ;;		_I2C1_ClearInterruptFlags
  5511 ;; This function uses a non-reentrant model
  5512 ;;
  5513                           
  5514                           	psect	text65
  5515   004D98                     __ptext65:
  5516                           	callstack 0
  5517   004D98                     _I2C1_MasterIsNackFlagSet:
  5518                           	callstack 116
  5519   004D98                     
  5520                           ;mcc_generated_files/i2c1_master.c: 760:     return I2C1ERRbits.NACKIF;
  5521   004D98  0102               	movlb	2	; () banked
  5522   004D9A  B997               	btfsc	151,4,b	;volatile
  5523   004D9C  EFD2  F026         	goto	u91
  5524   004DA0  EFD5  F026         	goto	u90
  5525   004DA4                     u91:
  5526   004DA4  0E01               	movlw	1
  5527   004DA6  EFD6  F026         	goto	u96
  5528   004DAA                     u90:
  5529   004DAA  0E00               	movlw	0
  5530   004DAC                     u96:
  5531   004DAC                     
  5532                           ; BSR set to: 2
  5533   004DAC  0012               	return		;funcret
  5534   004DAE                     __end_of_I2C1_MasterIsNackFlagSet:
  5535                           	callstack 0
  5536                           
  5537 ;; *************** function _I2C1_MasterIsCountFlagSet *****************
  5538 ;; Defined at:
  5539 ;;		line 753 in file "mcc_generated_files/i2c1_master.c"
  5540 ;; Parameters:    Size  Location     Type
  5541 ;;		None
  5542 ;; Auto vars:     Size  Location     Type
  5543 ;;		None
  5544 ;; Return value:  Size  Location     Type
  5545 ;;                  1    wreg      _Bool 
  5546 ;; Registers used:
  5547 ;;		wreg
  5548 ;; Tracked objects:
  5549 ;;		On entry : 0/0
  5550 ;;		On exit  : 0/0
  5551 ;;		Unchanged: 0/0
  5552 ;; Data sizes:     COMRAM   BANK5   BANK6   BANK7   BANK8   BANK9  BANK10  BANK11  BANK12  BANK13  BANK14  BANK15  BANK1
      +6  BANK17  BANK18  BANK19  BANK20  BANK21  BANK22  BANK23  BANK24  BANK25  BANK26  BANK27  BANK28  BANK29  BANK30  BANK3
      +1  BANK32  BANK33  BANK34  BANK35  BANK36  BANK37  BANK38  BANK39  BANK40  BANK41  BANK42  BANK43  BANK44  BANK45  BANK4
      +6  BANK47  BANK48  BANK49  BANK50  BANK51  BANK52  BANK53  BANK54
  5553 ;;      Params:         0       0       0       0       0       0       0       0       0       0       0       0       
      +0       0       0       0       0       0       0       0       0       0       0       0       0       0       0       
      +0       0       0       0       0       0       0       0       0       0       0       0       0       0       0       
      +0       0       0       0       0       0       0       0       0
  5554 ;;      Locals:         0       0       0       0       0       0       0       0       0       0       0       0       
      +0       0       0       0       0       0       0       0       0       0       0       0       0       0       0       
      +0       0       0       0       0       0       0       0       0       0       0       0       0       0       0       
      +0       0       0       0       0       0       0       0       0
  5555 ;;      Temps:          0       0       0       0       0       0       0       0       0       0       0       0       
      +0       0       0       0       0       0       0       0       0       0       0       0       0       0       0       
      +0       0       0       0       0       0       0       0       0       0       0       0       0       0       0       
      +0       0       0       0       0       0       0       0       0
  5556 ;;      Totals:         0       0       0       0       0       0       0       0       0       0       0       0       
      +0       0       0       0       0       0       0       0       0       0       0       0       0       0       0       
      +0       0       0       0       0       0       0       0       0       0       0       0       0       0       0       
      +0       0       0       0       0       0       0       0       0
  5557 ;;Total ram usage:        0 bytes
  5558 ;; Hardware stack levels used: 1
  5559 ;; This function calls:
  5560 ;;		Nothing
  5561 ;; This function is called by:
  5562 ;;		_I2C1_ClearInterruptFlags
  5563 ;; This function uses a non-reentrant model
  5564 ;;
  5565                           
  5566                           	psect	text66
  5567   004DAE                     __ptext66:
  5568                           	callstack 0
  5569   004DAE                     _I2C1_MasterIsCountFlagSet:
  5570                           	callstack 116
  5571   004DAE                     
  5572                           ;mcc_generated_files/i2c1_master.c: 755:     return I2C1PIRbits.CNTIF;
  5573   004DAE  0102               	movlb	2	; () banked
  5574   004DB0  BF9A               	btfsc	154,7,b	;volatile
  5575   004DB2  EFDD  F026         	goto	u71
  5576   004DB6  EFE0  F026         	goto	u70
  5577   004DBA                     u71:
  5578   004DBA  0E01               	movlw	1
  5579   004DBC  EFE1  F026         	goto	u76
  5580   004DC0                     u70:
  5581   004DC0  0E00               	movlw	0
  5582   004DC2                     u76:
  5583   004DC2                     
  5584                           ; BSR set to: 2
  5585   004DC2  0012               	return		;funcret
  5586   004DC4                     __end_of_I2C1_MasterIsCountFlagSet:
  5587                           	callstack 0
  5588                           
  5589 ;; *************** function _I2C1_MasterClearStopFlag *****************
  5590 ;; Defined at:
  5591 ;;		line 763 in file "mcc_generated_files/i2c1_master.c"
  5592 ;; Parameters:    Size  Location     Type
  5593 ;;		None
  5594 ;; Auto vars:     Size  Location     Type
  5595 ;;		None
  5596 ;; Return value:  Size  Location     Type
  5597 ;;                  1    wreg      void 
  5598 ;; Registers used:
  5599 ;;		None
  5600 ;; Tracked objects:
  5601 ;;		On entry : 0/0
  5602 ;;		On exit  : 0/0
  5603 ;;		Unchanged: 0/0
  5604 ;; Data sizes:     COMRAM   BANK5   BANK6   BANK7   BANK8   BANK9  BANK10  BANK11  BANK12  BANK13  BANK14  BANK15  BANK1
      +6  BANK17  BANK18  BANK19  BANK20  BANK21  BANK22  BANK23  BANK24  BANK25  BANK26  BANK27  BANK28  BANK29  BANK30  BANK3
      +1  BANK32  BANK33  BANK34  BANK35  BANK36  BANK37  BANK38  BANK39  BANK40  BANK41  BANK42  BANK43  BANK44  BANK45  BANK4
      +6  BANK47  BANK48  BANK49  BANK50  BANK51  BANK52  BANK53  BANK54
  5605 ;;      Params:         0       0       0       0       0       0       0       0       0       0       0       0       
      +0       0       0       0       0       0       0       0       0       0       0       0       0       0       0       
      +0       0       0       0       0       0       0       0       0       0       0       0       0       0       0       
      +0       0       0       0       0       0       0       0       0
  5606 ;;      Locals:         0       0       0       0       0       0       0       0       0       0       0       0       
      +0       0       0       0       0       0       0       0       0       0       0       0       0       0       0       
      +0       0       0       0       0       0       0       0       0       0       0       0       0       0       0       
      +0       0       0       0       0       0       0       0       0
  5607 ;;      Temps:          0       0       0       0       0       0       0       0       0       0       0       0       
      +0       0       0       0       0       0       0       0       0       0       0       0       0       0       0       
      +0       0       0       0       0       0       0       0       0       0       0       0       0       0       0       
      +0       0       0       0       0       0       0       0       0
  5608 ;;      Totals:         0       0       0       0       0       0       0       0       0       0       0       0       
      +0       0       0       0       0       0       0       0       0       0       0       0       0       0       0       
      +0       0       0       0       0       0       0       0       0       0       0       0       0       0       0       
      +0       0       0       0       0       0       0       0       0
  5609 ;;Total ram usage:        0 bytes
  5610 ;; Hardware stack levels used: 1
  5611 ;; This function calls:
  5612 ;;		Nothing
  5613 ;; This function is called by:
  5614 ;;		_I2C1_ClearInterruptFlags
  5615 ;; This function uses a non-reentrant model
  5616 ;;
  5617                           
  5618                           	psect	text67
  5619   004EBC                     __ptext67:
  5620                           	callstack 0
  5621   004EBC                     _I2C1_MasterClearStopFlag:
  5622                           	callstack 116
  5623   004EBC                     
  5624                           ;mcc_generated_files/i2c1_master.c: 765:     I2C1PIRbits.PCIF = 0;
  5625   004EBC  0102               	movlb	2	; () banked
  5626   004EBE  959A               	bcf	154,2,b	;volatile
  5627   004EC0                     
  5628                           ; BSR set to: 2
  5629   004EC0  0012               	return		;funcret
  5630   004EC2                     __end_of_I2C1_MasterClearStopFlag:
  5631                           	callstack 0
  5632                           
  5633 ;; *************** function _I2C1_MasterClearNackFlag *****************
  5634 ;; Defined at:
  5635 ;;		line 773 in file "mcc_generated_files/i2c1_master.c"
  5636 ;; Parameters:    Size  Location     Type
  5637 ;;		None
  5638 ;; Auto vars:     Size  Location     Type
  5639 ;;		None
  5640 ;; Return value:  Size  Location     Type
  5641 ;;                  1    wreg      void 
  5642 ;; Registers used:
  5643 ;;		None
  5644 ;; Tracked objects:
  5645 ;;		On entry : 0/0
  5646 ;;		On exit  : 0/0
  5647 ;;		Unchanged: 0/0
  5648 ;; Data sizes:     COMRAM   BANK5   BANK6   BANK7   BANK8   BANK9  BANK10  BANK11  BANK12  BANK13  BANK14  BANK15  BANK1
      +6  BANK17  BANK18  BANK19  BANK20  BANK21  BANK22  BANK23  BANK24  BANK25  BANK26  BANK27  BANK28  BANK29  BANK30  BANK3
      +1  BANK32  BANK33  BANK34  BANK35  BANK36  BANK37  BANK38  BANK39  BANK40  BANK41  BANK42  BANK43  BANK44  BANK45  BANK4
      +6  BANK47  BANK48  BANK49  BANK50  BANK51  BANK52  BANK53  BANK54
  5649 ;;      Params:         0       0       0       0       0       0       0       0       0       0       0       0       
      +0       0       0       0       0       0       0       0       0       0       0       0       0       0       0       
      +0       0       0       0       0       0       0       0       0       0       0       0       0       0       0       
      +0       0       0       0       0       0       0       0       0
  5650 ;;      Locals:         0       0       0       0       0       0       0       0       0       0       0       0       
      +0       0       0       0       0       0       0       0       0       0       0       0       0       0       0       
      +0       0       0       0       0       0       0       0       0       0       0       0       0       0       0       
      +0       0       0       0       0       0       0       0       0
  5651 ;;      Temps:          0       0       0       0       0       0       0       0       0       0       0       0       
      +0       0       0       0       0       0       0       0       0       0       0       0       0       0       0       
      +0       0       0       0       0       0       0       0       0       0       0       0       0       0       0       
      +0       0       0       0       0       0       0       0       0
  5652 ;;      Totals:         0       0       0       0       0       0       0       0       0       0       0       0       
      +0       0       0       0       0       0       0       0       0       0       0       0       0       0       0       
      +0       0       0       0       0       0       0       0       0       0       0       0       0       0       0       
      +0       0       0       0       0       0       0       0       0
  5653 ;;Total ram usage:        0 bytes
  5654 ;; Hardware stack levels used: 1
  5655 ;; This function calls:
  5656 ;;		Nothing
  5657 ;; This function is called by:
  5658 ;;		_I2C1_ClearInterruptFlags
  5659 ;; This function uses a non-reentrant model
  5660 ;;
  5661                           
  5662                           	psect	text68
  5663   004EC2                     __ptext68:
  5664                           	callstack 0
  5665   004EC2                     _I2C1_MasterClearNackFlag:
  5666                           	callstack 116
  5667   004EC2                     
  5668                           ;mcc_generated_files/i2c1_master.c: 775:     I2C1ERRbits.NACKIF = 0;
  5669   004EC2  0102               	movlb	2	; () banked
  5670   004EC4  9997               	bcf	151,4,b	;volatile
  5671   004EC6                     
  5672                           ; BSR set to: 2
  5673   004EC6  0012               	return		;funcret
  5674   004EC8                     __end_of_I2C1_MasterClearNackFlag:
  5675                           	callstack 0
  5676                           
  5677 ;; *************** function _I2C1_MasterClearCountFlag *****************
  5678 ;; Defined at:
  5679 ;;		line 768 in file "mcc_generated_files/i2c1_master.c"
  5680 ;; Parameters:    Size  Location     Type
  5681 ;;		None
  5682 ;; Auto vars:     Size  Location     Type
  5683 ;;		None
  5684 ;; Return value:  Size  Location     Type
  5685 ;;                  1    wreg      void 
  5686 ;; Registers used:
  5687 ;;		None
  5688 ;; Tracked objects:
  5689 ;;		On entry : 0/0
  5690 ;;		On exit  : 0/0
  5691 ;;		Unchanged: 0/0
  5692 ;; Data sizes:     COMRAM   BANK5   BANK6   BANK7   BANK8   BANK9  BANK10  BANK11  BANK12  BANK13  BANK14  BANK15  BANK1
      +6  BANK17  BANK18  BANK19  BANK20  BANK21  BANK22  BANK23  BANK24  BANK25  BANK26  BANK27  BANK28  BANK29  BANK30  BANK3
      +1  BANK32  BANK33  BANK34  BANK35  BANK36  BANK37  BANK38  BANK39  BANK40  BANK41  BANK42  BANK43  BANK44  BANK45  BANK4
      +6  BANK47  BANK48  BANK49  BANK50  BANK51  BANK52  BANK53  BANK54
  5693 ;;      Params:         0       0       0       0       0       0       0       0       0       0       0       0       
      +0       0       0       0       0       0       0       0       0       0       0       0       0       0       0       
      +0       0       0       0       0       0       0       0       0       0       0       0       0       0       0       
      +0       0       0       0       0       0       0       0       0
  5694 ;;      Locals:         0       0       0       0       0       0       0       0       0       0       0       0       
      +0       0       0       0       0       0       0       0       0       0       0       0       0       0       0       
      +0       0       0       0       0       0       0       0       0       0       0       0       0       0       0       
      +0       0       0       0       0       0       0       0       0
  5695 ;;      Temps:          0       0       0       0       0       0       0       0       0       0       0       0       
      +0       0       0       0       0       0       0       0       0       0       0       0       0       0       0       
      +0       0       0       0       0       0       0       0       0       0       0       0       0       0       0       
      +0       0       0       0       0       0       0       0       0
  5696 ;;      Totals:         0       0       0       0       0       0       0       0       0       0       0       0       
      +0       0       0       0       0       0       0       0       0       0       0       0       0       0       0       
      +0       0       0       0       0       0       0       0       0       0       0       0       0       0       0       
      +0       0       0       0       0       0       0       0       0
  5697 ;;Total ram usage:        0 bytes
  5698 ;; Hardware stack levels used: 1
  5699 ;; This function calls:
  5700 ;;		Nothing
  5701 ;; This function is called by:
  5702 ;;		_I2C1_ClearInterruptFlags
  5703 ;; This function uses a non-reentrant model
  5704 ;;
  5705                           
  5706                           	psect	text69
  5707   004EC8                     __ptext69:
  5708                           	callstack 0
  5709   004EC8                     _I2C1_MasterClearCountFlag:
  5710                           	callstack 116
  5711   004EC8                     
  5712                           ;mcc_generated_files/i2c1_master.c: 770:     I2C1PIRbits.CNTIF = 0;
  5713   004EC8  0102               	movlb	2	; () banked
  5714   004ECA  9F9A               	bcf	154,7,b	;volatile
  5715   004ECC                     
  5716                           ; BSR set to: 2
  5717   004ECC  0012               	return		;funcret
  5718   004ECE                     __end_of_I2C1_MasterClearCountFlag:
  5719                           	callstack 0
  5720                           
  5721 ;; *************** function _I2C1_Close *****************
  5722 ;; Defined at:
  5723 ;;		line 240 in file "mcc_generated_files/i2c1_master.c"
  5724 ;; Parameters:    Size  Location     Type
  5725 ;;		None
  5726 ;; Auto vars:     Size  Location     Type
  5727 ;;  returnValue     1    0[COMRAM] enum E355
  5728 ;; Return value:  Size  Location     Type
  5729 ;;                  1    wreg      enum E355
  5730 ;; Registers used:
  5731 ;;		wreg, status,2, cstack
  5732 ;; Tracked objects:
  5733 ;;		On entry : 0/0
  5734 ;;		On exit  : 0/0
  5735 ;;		Unchanged: 0/0
  5736 ;; Data sizes:     COMRAM   BANK5   BANK6   BANK7   BANK8   BANK9  BANK10  BANK11  BANK12  BANK13  BANK14  BANK15  BANK1
      +6  BANK17  BANK18  BANK19  BANK20  BANK21  BANK22  BANK23  BANK24  BANK25  BANK26  BANK27  BANK28  BANK29  BANK30  BANK3
      +1  BANK32  BANK33  BANK34  BANK35  BANK36  BANK37  BANK38  BANK39  BANK40  BANK41  BANK42  BANK43  BANK44  BANK45  BANK4
      +6  BANK47  BANK48  BANK49  BANK50  BANK51  BANK52  BANK53  BANK54
  5737 ;;      Params:         0       0       0       0       0       0       0       0       0       0       0       0       
      +0       0       0       0       0       0       0       0       0       0       0       0       0       0       0       
      +0       0       0       0       0       0       0       0       0       0       0       0       0       0       0       
      +0       0       0       0       0       0       0       0       0
  5738 ;;      Locals:         1       0       0       0       0       0       0       0       0       0       0       0       
      +0       0       0       0       0       0       0       0       0       0       0       0       0       0       0       
      +0       0       0       0       0       0       0       0       0       0       0       0       0       0       0       
      +0       0       0       0       0       0       0       0       0
  5739 ;;      Temps:          0       0       0       0       0       0       0       0       0       0       0       0       
      +0       0       0       0       0       0       0       0       0       0       0       0       0       0       0       
      +0       0       0       0       0       0       0       0       0       0       0       0       0       0       0       
      +0       0       0       0       0       0       0       0       0
  5740 ;;      Totals:         1       0       0       0       0       0       0       0       0       0       0       0       
      +0       0       0       0       0       0       0       0       0       0       0       0       0       0       0       
      +0       0       0       0       0       0       0       0       0       0       0       0       0       0       0       
      +0       0       0       0       0       0       0       0       0
  5741 ;;Total ram usage:        1 bytes
  5742 ;; Hardware stack levels used: 1
  5743 ;; Hardware stack levels required when called: 1
  5744 ;; This function calls:
  5745 ;;		_I2C1_MasterClearIrq
  5746 ;;		_I2C1_MasterClose
  5747 ;;		_I2C1_MasterDisableIrq
  5748 ;; This function is called by:
  5749 ;;		_I2C1_Write1ByteRegister
  5750 ;;		_i2c_write1ByteRegister
  5751 ;;		_i2c_writeNBytes
  5752 ;;		_i2c_read1ByteRegister
  5753 ;;		_i2c_read2ByteRegister
  5754 ;;		_i2c_write2ByteRegister
  5755 ;;		_i2c_readDataBlock
  5756 ;;		_i2c_readNBytes
  5757 ;;		_I2C1_Read1ByteRegister
  5758 ;;		_I2C1_Read2ByteRegister
  5759 ;;		_I2C1_Write2ByteRegister
  5760 ;;		_I2C1_WriteNBytes
  5761 ;;		_I2C1_ReadNBytes
  5762 ;;		_I2C1_ReadDataBlock
  5763 ;; This function uses a non-reentrant model
  5764 ;;
  5765                           
  5766                           	psect	text70
  5767   004BF8                     __ptext70:
  5768                           	callstack 0
  5769   004BF8                     _I2C1_Close:
  5770                           	callstack 120
  5771   004BF8                     
  5772                           ;mcc_generated_files/i2c1_master.c: 242:     i2c1_error_t returnValue = I2C1_BUSY;
  5773   004BF8  0E01               	movlw	1
  5774   004BFA  6E2C               	movwf	I2C1_Close@returnValue^(0+1280),c
  5775   004BFC                     
  5776                           ;mcc_generated_files/i2c1_master.c: 243:     if(!I2C1_Status.busy)
  5777   004BFC  B42A               	btfsc	(_I2C1_Status+41)^(0+1280),2,c
  5778   004BFE  EF03  F026         	goto	u401
  5779   004C02  EF05  F026         	goto	u400
  5780   004C06                     u401:
  5781   004C06  EF0F  F026         	goto	l2104
  5782   004C0A                     u400:
  5783   004C0A                     
  5784                           ;mcc_generated_files/i2c1_master.c: 244:     {;mcc_generated_files/i2c1_master.c: 245:  
      +                                 I2C1_Status.inUse = 0;
  5785   004C0A  962A               	bcf	(_I2C1_Status+41)^(0+1280),3,c
  5786                           
  5787                           ;mcc_generated_files/i2c1_master.c: 246:         I2C1_Status.address = 0xff;
  5788   004C0C  6823               	setf	(_I2C1_Status+34)^(0+1280),c
  5789   004C0E                     
  5790                           ;mcc_generated_files/i2c1_master.c: 247:         I2C1_MasterClearIrq();
  5791   004C0E  EC45  F027         	call	_I2C1_MasterClearIrq	;wreg free
  5792   004C12                     
  5793                           ;mcc_generated_files/i2c1_master.c: 248:         I2C1_MasterDisableIrq();
  5794   004C12  EC86  F026         	call	_I2C1_MasterDisableIrq	;wreg free
  5795   004C16                     
  5796                           ;mcc_generated_files/i2c1_master.c: 249:         I2C1_MasterClose();
  5797   004C16  EC21  F027         	call	_I2C1_MasterClose	;wreg free
  5798   004C1A                     
  5799                           ;mcc_generated_files/i2c1_master.c: 250:         returnValue = I2C1_Status.error;
  5800   004C1A  C529  F52C         	movff	_I2C1_Status+40,I2C1_Close@returnValue
  5801   004C1E                     l2104:
  5802                           
  5803                           ;mcc_generated_files/i2c1_master.c: 252:     return returnValue;
  5804   004C1E  502C               	movf	I2C1_Close@returnValue^(0+1280),w,c
  5805   004C20  0012               	return		;funcret
  5806   004C22                     __end_of_I2C1_Close:
  5807                           	callstack 0
  5808                           
  5809 ;; *************** function _I2C1_MasterDisableIrq *****************
  5810 ;; Defined at:
  5811 ;;		line 795 in file "mcc_generated_files/i2c1_master.c"
  5812 ;; Parameters:    Size  Location     Type
  5813 ;;		None
  5814 ;; Auto vars:     Size  Location     Type
  5815 ;;		None
  5816 ;; Return value:  Size  Location     Type
  5817 ;;                  1    wreg      void 
  5818 ;; Registers used:
  5819 ;;		None
  5820 ;; Tracked objects:
  5821 ;;		On entry : 0/0
  5822 ;;		On exit  : 0/0
  5823 ;;		Unchanged: 0/0
  5824 ;; Data sizes:     COMRAM   BANK5   BANK6   BANK7   BANK8   BANK9  BANK10  BANK11  BANK12  BANK13  BANK14  BANK15  BANK1
      +6  BANK17  BANK18  BANK19  BANK20  BANK21  BANK22  BANK23  BANK24  BANK25  BANK26  BANK27  BANK28  BANK29  BANK30  BANK3
      +1  BANK32  BANK33  BANK34  BANK35  BANK36  BANK37  BANK38  BANK39  BANK40  BANK41  BANK42  BANK43  BANK44  BANK45  BANK4
      +6  BANK47  BANK48  BANK49  BANK50  BANK51  BANK52  BANK53  BANK54
  5825 ;;      Params:         0       0       0       0       0       0       0       0       0       0       0       0       
      +0       0       0       0       0       0       0       0       0       0       0       0       0       0       0       
      +0       0       0       0       0       0       0       0       0       0       0       0       0       0       0       
      +0       0       0       0       0       0       0       0       0
  5826 ;;      Locals:         0       0       0       0       0       0       0       0       0       0       0       0       
      +0       0       0       0       0       0       0       0       0       0       0       0       0       0       0       
      +0       0       0       0       0       0       0       0       0       0       0       0       0       0       0       
      +0       0       0       0       0       0       0       0       0
  5827 ;;      Temps:          0       0       0       0       0       0       0       0       0       0       0       0       
      +0       0       0       0       0       0       0       0       0       0       0       0       0       0       0       
      +0       0       0       0       0       0       0       0       0       0       0       0       0       0       0       
      +0       0       0       0       0       0       0       0       0
  5828 ;;      Totals:         0       0       0       0       0       0       0       0       0       0       0       0       
      +0       0       0       0       0       0       0       0       0       0       0       0       0       0       0       
      +0       0       0       0       0       0       0       0       0       0       0       0       0       0       0       
      +0       0       0       0       0       0       0       0       0
  5829 ;;Total ram usage:        0 bytes
  5830 ;; Hardware stack levels used: 1
  5831 ;; This function calls:
  5832 ;;		Nothing
  5833 ;; This function is called by:
  5834 ;;		_I2C1_Close
  5835 ;;		_I2C1_SetTimeOut
  5836 ;; This function uses a non-reentrant model
  5837 ;;
  5838                           
  5839                           	psect	text71
  5840   004D0C                     __ptext71:
  5841                           	callstack 0
  5842   004D0C                     _I2C1_MasterDisableIrq:
  5843                           	callstack 120
  5844   004D0C                     
  5845                           ;mcc_generated_files/i2c1_master.c: 797:     PIE7bits.I2C1IE = 0;
  5846   004D0C  94A5               	bcf	165,2,c	;volatile
  5847                           
  5848                           ;mcc_generated_files/i2c1_master.c: 798:     PIE7bits.I2C1EIE = 0;
  5849   004D0E  96A5               	bcf	165,3,c	;volatile
  5850                           
  5851                           ;mcc_generated_files/i2c1_master.c: 799:     PIE7bits.I2C1RXIE = 0;
  5852   004D10  90A5               	bcf	165,0,c	;volatile
  5853                           
  5854                           ;mcc_generated_files/i2c1_master.c: 800:     PIE7bits.I2C1TXIE = 0;
  5855   004D12  92A5               	bcf	165,1,c	;volatile
  5856                           
  5857                           ;mcc_generated_files/i2c1_master.c: 801:     I2C1PIEbits.SCIE = 0;
  5858   004D14  0102               	movlb	2	; () banked
  5859   004D16  919B               	bcf	155,0,b	;volatile
  5860                           
  5861                           ;mcc_generated_files/i2c1_master.c: 802:     I2C1PIEbits.PCIE = 0;
  5862   004D18  959B               	bcf	155,2,b	;volatile
  5863                           
  5864                           ;mcc_generated_files/i2c1_master.c: 803:     I2C1PIEbits.CNTIE = 0;
  5865   004D1A  9F9B               	bcf	155,7,b	;volatile
  5866                           
  5867                           ;mcc_generated_files/i2c1_master.c: 804:     I2C1PIEbits.ACKTIE = 0;
  5868   004D1C  9D9B               	bcf	155,6,b	;volatile
  5869                           
  5870                           ;mcc_generated_files/i2c1_master.c: 805:     I2C1PIEbits.RSCIE = 0;
  5871   004D1E  939B               	bcf	155,1,b	;volatile
  5872                           
  5873                           ;mcc_generated_files/i2c1_master.c: 806:     I2C1ERRbits.BCLIE = 0;
  5874   004D20  9397               	bcf	151,1,b	;volatile
  5875                           
  5876                           ;mcc_generated_files/i2c1_master.c: 807:     I2C1ERRbits.BTOIE = 0;
  5877   004D22  9597               	bcf	151,2,b	;volatile
  5878                           
  5879                           ;mcc_generated_files/i2c1_master.c: 808:     I2C1ERRbits.NACKIE = 0;
  5880   004D24  9197               	bcf	151,0,b	;volatile
  5881   004D26                     
  5882                           ; BSR set to: 2
  5883   004D26  0012               	return		;funcret
  5884   004D28                     __end_of_I2C1_MasterDisableIrq:
  5885                           	callstack 0
  5886                           
  5887 ;; *************** function _I2C1_MasterClose *****************
  5888 ;; Defined at:
  5889 ;;		line 657 in file "mcc_generated_files/i2c1_master.c"
  5890 ;; Parameters:    Size  Location     Type
  5891 ;;		None
  5892 ;; Auto vars:     Size  Location     Type
  5893 ;;		None
  5894 ;; Return value:  Size  Location     Type
  5895 ;;                  1    wreg      void 
  5896 ;; Registers used:
  5897 ;;		wreg, status,2
  5898 ;; Tracked objects:
  5899 ;;		On entry : 0/0
  5900 ;;		On exit  : 0/0
  5901 ;;		Unchanged: 0/0
  5902 ;; Data sizes:     COMRAM   BANK5   BANK6   BANK7   BANK8   BANK9  BANK10  BANK11  BANK12  BANK13  BANK14  BANK15  BANK1
      +6  BANK17  BANK18  BANK19  BANK20  BANK21  BANK22  BANK23  BANK24  BANK25  BANK26  BANK27  BANK28  BANK29  BANK30  BANK3
      +1  BANK32  BANK33  BANK34  BANK35  BANK36  BANK37  BANK38  BANK39  BANK40  BANK41  BANK42  BANK43  BANK44  BANK45  BANK4
      +6  BANK47  BANK48  BANK49  BANK50  BANK51  BANK52  BANK53  BANK54
  5903 ;;      Params:         0       0       0       0       0       0       0       0       0       0       0       0       
      +0       0       0       0       0       0       0       0       0       0       0       0       0       0       0       
      +0       0       0       0       0       0       0       0       0       0       0       0       0       0       0       
      +0       0       0       0       0       0       0       0       0
  5904 ;;      Locals:         0       0       0       0       0       0       0       0       0       0       0       0       
      +0       0       0       0       0       0       0       0       0       0       0       0       0       0       0       
      +0       0       0       0       0       0       0       0       0       0       0       0       0       0       0       
      +0       0       0       0       0       0       0       0       0
  5905 ;;      Temps:          0       0       0       0       0       0       0       0       0       0       0       0       
      +0       0       0       0       0       0       0       0       0       0       0       0       0       0       0       
      +0       0       0       0       0       0       0       0       0       0       0       0       0       0       0       
      +0       0       0       0       0       0       0       0       0
  5906 ;;      Totals:         0       0       0       0       0       0       0       0       0       0       0       0       
      +0       0       0       0       0       0       0       0       0       0       0       0       0       0       0       
      +0       0       0       0       0       0       0       0       0       0       0       0       0       0       0       
      +0       0       0       0       0       0       0       0       0
  5907 ;;Total ram usage:        0 bytes
  5908 ;; Hardware stack levels used: 1
  5909 ;; This function calls:
  5910 ;;		Nothing
  5911 ;; This function is called by:
  5912 ;;		_I2C1_Close
  5913 ;; This function uses a non-reentrant model
  5914 ;;
  5915                           
  5916                           	psect	text72
  5917   004E42                     __ptext72:
  5918                           	callstack 0
  5919   004E42                     _I2C1_MasterClose:
  5920                           	callstack 120
  5921   004E42                     
  5922                           ;mcc_generated_files/i2c1_master.c: 660:     I2C1CON0bits.EN = 0;
  5923   004E42  0102               	movlb	2	; () banked
  5924   004E44  9F94               	bcf	148,7,b	;volatile
  5925   004E46                     
  5926                           ; BSR set to: 2
  5927                           ;mcc_generated_files/i2c1_master.c: 662:     I2C1PIR = 0x00;
  5928   004E46  0E00               	movlw	0
  5929   004E48  6F9A               	movwf	154,b	;volatile
  5930   004E4A                     
  5931                           ; BSR set to: 2
  5932                           ;mcc_generated_files/i2c1_master.c: 664:     I2C1STAT1bits.CLRBF = 1;
  5933   004E4A  8599               	bsf	153,2,b	;volatile
  5934   004E4C                     
  5935                           ; BSR set to: 2
  5936   004E4C  0012               	return		;funcret
  5937   004E4E                     __end_of_I2C1_MasterClose:
  5938                           	callstack 0
  5939                           
  5940 ;; *************** function _I2C1_MasterClearIrq *****************
  5941 ;; Defined at:
  5942 ;;		line 811 in file "mcc_generated_files/i2c1_master.c"
  5943 ;; Parameters:    Size  Location     Type
  5944 ;;		None
  5945 ;; Auto vars:     Size  Location     Type
  5946 ;;		None
  5947 ;; Return value:  Size  Location     Type
  5948 ;;                  1    wreg      void 
  5949 ;; Registers used:
  5950 ;;		wreg, status,2
  5951 ;; Tracked objects:
  5952 ;;		On entry : 0/0
  5953 ;;		On exit  : 0/0
  5954 ;;		Unchanged: 0/0
  5955 ;; Data sizes:     COMRAM   BANK5   BANK6   BANK7   BANK8   BANK9  BANK10  BANK11  BANK12  BANK13  BANK14  BANK15  BANK1
      +6  BANK17  BANK18  BANK19  BANK20  BANK21  BANK22  BANK23  BANK24  BANK25  BANK26  BANK27  BANK28  BANK29  BANK30  BANK3
      +1  BANK32  BANK33  BANK34  BANK35  BANK36  BANK37  BANK38  BANK39  BANK40  BANK41  BANK42  BANK43  BANK44  BANK45  BANK4
      +6  BANK47  BANK48  BANK49  BANK50  BANK51  BANK52  BANK53  BANK54
  5956 ;;      Params:         0       0       0       0       0       0       0       0       0       0       0       0       
      +0       0       0       0       0       0       0       0       0       0       0       0       0       0       0       
      +0       0       0       0       0       0       0       0       0       0       0       0       0       0       0       
      +0       0       0       0       0       0       0       0       0
  5957 ;;      Locals:         0       0       0       0       0       0       0       0       0       0       0       0       
      +0       0       0       0       0       0       0       0       0       0       0       0       0       0       0       
      +0       0       0       0       0       0       0       0       0       0       0       0       0       0       0       
      +0       0       0       0       0       0       0       0       0
  5958 ;;      Temps:          0       0       0       0       0       0       0       0       0       0       0       0       
      +0       0       0       0       0       0       0       0       0       0       0       0       0       0       0       
      +0       0       0       0       0       0       0       0       0       0       0       0       0       0       0       
      +0       0       0       0       0       0       0       0       0
  5959 ;;      Totals:         0       0       0       0       0       0       0       0       0       0       0       0       
      +0       0       0       0       0       0       0       0       0       0       0       0       0       0       0       
      +0       0       0       0       0       0       0       0       0       0       0       0       0       0       0       
      +0       0       0       0       0       0       0       0       0
  5960 ;;Total ram usage:        0 bytes
  5961 ;; Hardware stack levels used: 1
  5962 ;; This function calls:
  5963 ;;		Nothing
  5964 ;; This function is called by:
  5965 ;;		_I2C1_Open
  5966 ;;		_I2C1_Close
  5967 ;;		_I2C1_DO_BUS_COLLISION
  5968 ;; This function uses a non-reentrant model
  5969 ;;
  5970                           
  5971                           	psect	text73
  5972   004E8A                     __ptext73:
  5973                           	callstack 0
  5974   004E8A                     _I2C1_MasterClearIrq:
  5975                           	callstack 120
  5976   004E8A                     
  5977                           ;mcc_generated_files/i2c1_master.c: 813:     I2C1PIR = 0x00;
  5978   004E8A  0E00               	movlw	0
  5979   004E8C  0102               	movlb	2	; () banked
  5980   004E8E  6F9A               	movwf	154,b	;volatile
  5981   004E90                     
  5982                           ; BSR set to: 2
  5983   004E90  0012               	return		;funcret
  5984   004E92                     __end_of_I2C1_MasterClearIrq:
  5985                           	callstack 0
  5986                           
  5987 ;; *************** function _SYSTEM_Initialize *****************
  5988 ;; Defined at:
  5989 ;;		line 50 in file "mcc_generated_files/mcc.c"
  5990 ;; Parameters:    Size  Location     Type
  5991 ;;		None
  5992 ;; Auto vars:     Size  Location     Type
  5993 ;;		None
  5994 ;; Return value:  Size  Location     Type
  5995 ;;                  1    wreg      void 
  5996 ;; Registers used:
  5997 ;;		wreg, status,2, cstack
  5998 ;; Tracked objects:
  5999 ;;		On entry : 0/0
  6000 ;;		On exit  : 0/0
  6001 ;;		Unchanged: 0/0
  6002 ;; Data sizes:     COMRAM   BANK5   BANK6   BANK7   BANK8   BANK9  BANK10  BANK11  BANK12  BANK13  BANK14  BANK15  BANK1
      +6  BANK17  BANK18  BANK19  BANK20  BANK21  BANK22  BANK23  BANK24  BANK25  BANK26  BANK27  BANK28  BANK29  BANK30  BANK3
      +1  BANK32  BANK33  BANK34  BANK35  BANK36  BANK37  BANK38  BANK39  BANK40  BANK41  BANK42  BANK43  BANK44  BANK45  BANK4
      +6  BANK47  BANK48  BANK49  BANK50  BANK51  BANK52  BANK53  BANK54
  6003 ;;      Params:         0       0       0       0       0       0       0       0       0       0       0       0       
      +0       0       0       0       0       0       0       0       0       0       0       0       0       0       0       
      +0       0       0       0       0       0       0       0       0       0       0       0       0       0       0       
      +0       0       0       0       0       0       0       0       0
  6004 ;;      Locals:         0       0       0       0       0       0       0       0       0       0       0       0       
      +0       0       0       0       0       0       0       0       0       0       0       0       0       0       0       
      +0       0       0       0       0       0       0       0       0       0       0       0       0       0       0       
      +0       0       0       0       0       0       0       0       0
  6005 ;;      Temps:          0       0       0       0       0       0       0       0       0       0       0       0       
      +0       0       0       0       0       0       0       0       0       0       0       0       0       0       0       
      +0       0       0       0       0       0       0       0       0       0       0       0       0       0       0       
      +0       0       0       0       0       0       0       0       0
  6006 ;;      Totals:         0       0       0       0       0       0       0       0       0       0       0       0       
      +0       0       0       0       0       0       0       0       0       0       0       0       0       0       0       
      +0       0       0       0       0       0       0       0       0       0       0       0       0       0       0       
      +0       0       0       0       0       0       0       0       0
  6007 ;;Total ram usage:        0 bytes
  6008 ;; Hardware stack levels used: 1
  6009 ;; Hardware stack levels required when called: 1
  6010 ;; This function calls:
  6011 ;;		_I2C1_Initialize
  6012 ;;		_OSCILLATOR_Initialize
  6013 ;;		_PIN_MANAGER_Initialize
  6014 ;;		_PMD_Initialize
  6015 ;; This function is called by:
  6016 ;;		_main
  6017 ;; This function uses a non-reentrant model
  6018 ;;
  6019                           
  6020                           	psect	text74
  6021   004DEC                     __ptext74:
  6022                           	callstack 0
  6023   004DEC                     _SYSTEM_Initialize:
  6024                           	callstack 125
  6025   004DEC                     
  6026                           ;mcc_generated_files/mcc.c: 52:     PMD_Initialize();
  6027   004DEC  EC25  F026         	call	_PMD_Initialize	;wreg free
  6028                           
  6029                           ;mcc_generated_files/mcc.c: 53:     I2C1_Initialize();
  6030   004DF0  ECD1  F025         	call	_I2C1_Initialize	;wreg free
  6031                           
  6032                           ;mcc_generated_files/mcc.c: 54:     PIN_MANAGER_Initialize();
  6033   004DF4  EC50  F021         	call	_PIN_MANAGER_Initialize	;wreg free
  6034                           
  6035                           ;mcc_generated_files/mcc.c: 55:     OSCILLATOR_Initialize();
  6036   004DF8  EC94  F026         	call	_OSCILLATOR_Initialize	;wreg free
  6037   004DFC  0012               	return		;funcret
  6038   004DFE                     __end_of_SYSTEM_Initialize:
  6039                           	callstack 0
  6040                           
  6041 ;; *************** function _PMD_Initialize *****************
  6042 ;; Defined at:
  6043 ;;		line 72 in file "mcc_generated_files/mcc.c"
  6044 ;; Parameters:    Size  Location     Type
  6045 ;;		None
  6046 ;; Auto vars:     Size  Location     Type
  6047 ;;		None
  6048 ;; Return value:  Size  Location     Type
  6049 ;;                  1    wreg      void 
  6050 ;; Registers used:
  6051 ;;		wreg, status,2
  6052 ;; Tracked objects:
  6053 ;;		On entry : 0/0
  6054 ;;		On exit  : 0/0
  6055 ;;		Unchanged: 0/0
  6056 ;; Data sizes:     COMRAM   BANK5   BANK6   BANK7   BANK8   BANK9  BANK10  BANK11  BANK12  BANK13  BANK14  BANK15  BANK1
      +6  BANK17  BANK18  BANK19  BANK20  BANK21  BANK22  BANK23  BANK24  BANK25  BANK26  BANK27  BANK28  BANK29  BANK30  BANK3
      +1  BANK32  BANK33  BANK34  BANK35  BANK36  BANK37  BANK38  BANK39  BANK40  BANK41  BANK42  BANK43  BANK44  BANK45  BANK4
      +6  BANK47  BANK48  BANK49  BANK50  BANK51  BANK52  BANK53  BANK54
  6057 ;;      Params:         0       0       0       0       0       0       0       0       0       0       0       0       
      +0       0       0       0       0       0       0       0       0       0       0       0       0       0       0       
      +0       0       0       0       0       0       0       0       0       0       0       0       0       0       0       
      +0       0       0       0       0       0       0       0       0
  6058 ;;      Locals:         0       0       0       0       0       0       0       0       0       0       0       0       
      +0       0       0       0       0       0       0       0       0       0       0       0       0       0       0       
      +0       0       0       0       0       0       0       0       0       0       0       0       0       0       0       
      +0       0       0       0       0       0       0       0       0
  6059 ;;      Temps:          0       0       0       0       0       0       0       0       0       0       0       0       
      +0       0       0       0       0       0       0       0       0       0       0       0       0       0       0       
      +0       0       0       0       0       0       0       0       0       0       0       0       0       0       0       
      +0       0       0       0       0       0       0       0       0
  6060 ;;      Totals:         0       0       0       0       0       0       0       0       0       0       0       0       
      +0       0       0       0       0       0       0       0       0       0       0       0       0       0       0       
      +0       0       0       0       0       0       0       0       0       0       0       0       0       0       0       
      +0       0       0       0       0       0       0       0       0
  6061 ;;Total ram usage:        0 bytes
  6062 ;; Hardware stack levels used: 1
  6063 ;; This function calls:
  6064 ;;		Nothing
  6065 ;; This function is called by:
  6066 ;;		_SYSTEM_Initialize
  6067 ;; This function uses a non-reentrant model
  6068 ;;
  6069                           
  6070                           	psect	text75
  6071   004C4A                     __ptext75:
  6072                           	callstack 0
  6073   004C4A                     _PMD_Initialize:
  6074                           	callstack 125
  6075   004C4A                     
  6076                           ;mcc_generated_files/mcc.c: 75:     PMD0 = 0x00;
  6077   004C4A  0E00               	movlw	0
  6078   004C4C  0100               	movlb	0	; () banked
  6079   004C4E  6F60               	movwf	96,b	;volatile
  6080                           
  6081                           ;mcc_generated_files/mcc.c: 77:     PMD1 = 0x00;
  6082   004C50  0E00               	movlw	0
  6083   004C52  6F61               	movwf	97,b	;volatile
  6084                           
  6085                           ;mcc_generated_files/mcc.c: 79:     PMD2 = 0x00;
  6086   004C54  0E00               	movlw	0
  6087   004C56  6F62               	movwf	98,b	;volatile
  6088                           
  6089                           ;mcc_generated_files/mcc.c: 81:     PMD3 = 0x00;
  6090   004C58  0E00               	movlw	0
  6091   004C5A  6F63               	movwf	99,b	;volatile
  6092                           
  6093                           ;mcc_generated_files/mcc.c: 83:     PMD4 = 0x00;
  6094   004C5C  0E00               	movlw	0
  6095   004C5E  6F64               	movwf	100,b	;volatile
  6096                           
  6097                           ;mcc_generated_files/mcc.c: 85:     PMD5 = 0x00;
  6098   004C60  0E00               	movlw	0
  6099   004C62  6F65               	movwf	101,b	;volatile
  6100                           
  6101                           ;mcc_generated_files/mcc.c: 87:     PMD6 = 0x00;
  6102   004C64  0E00               	movlw	0
  6103   004C66  6F66               	movwf	102,b	;volatile
  6104                           
  6105                           ;mcc_generated_files/mcc.c: 89:     PMD7 = 0x00;
  6106   004C68  0E00               	movlw	0
  6107   004C6A  6F67               	movwf	103,b	;volatile
  6108                           
  6109                           ;mcc_generated_files/mcc.c: 91:     PMD8 = 0x00;
  6110   004C6C  0E00               	movlw	0
  6111   004C6E  6F68               	movwf	104,b	;volatile
  6112   004C70                     
  6113                           ; BSR set to: 0
  6114   004C70  0012               	return		;funcret
  6115   004C72                     __end_of_PMD_Initialize:
  6116                           	callstack 0
  6117                           
  6118 ;; *************** function _PIN_MANAGER_Initialize *****************
  6119 ;; Defined at:
  6120 ;;		line 55 in file "mcc_generated_files/pin_manager.c"
  6121 ;; Parameters:    Size  Location     Type
  6122 ;;		None
  6123 ;; Auto vars:     Size  Location     Type
  6124 ;;		None
  6125 ;; Return value:  Size  Location     Type
  6126 ;;                  1    wreg      void 
  6127 ;; Registers used:
  6128 ;;		wreg, status,2
  6129 ;; Tracked objects:
  6130 ;;		On entry : 0/0
  6131 ;;		On exit  : 0/0
  6132 ;;		Unchanged: 0/0
  6133 ;; Data sizes:     COMRAM   BANK5   BANK6   BANK7   BANK8   BANK9  BANK10  BANK11  BANK12  BANK13  BANK14  BANK15  BANK1
      +6  BANK17  BANK18  BANK19  BANK20  BANK21  BANK22  BANK23  BANK24  BANK25  BANK26  BANK27  BANK28  BANK29  BANK30  BANK3
      +1  BANK32  BANK33  BANK34  BANK35  BANK36  BANK37  BANK38  BANK39  BANK40  BANK41  BANK42  BANK43  BANK44  BANK45  BANK4
      +6  BANK47  BANK48  BANK49  BANK50  BANK51  BANK52  BANK53  BANK54
  6134 ;;      Params:         0       0       0       0       0       0       0       0       0       0       0       0       
      +0       0       0       0       0       0       0       0       0       0       0       0       0       0       0       
      +0       0       0       0       0       0       0       0       0       0       0       0       0       0       0       
      +0       0       0       0       0       0       0       0       0
  6135 ;;      Locals:         0       0       0       0       0       0       0       0       0       0       0       0       
      +0       0       0       0       0       0       0       0       0       0       0       0       0       0       0       
      +0       0       0       0       0       0       0       0       0       0       0       0       0       0       0       
      +0       0       0       0       0       0       0       0       0
  6136 ;;      Temps:          0       0       0       0       0       0       0       0       0       0       0       0       
      +0       0       0       0       0       0       0       0       0       0       0       0       0       0       0       
      +0       0       0       0       0       0       0       0       0       0       0       0       0       0       0       
      +0       0       0       0       0       0       0       0       0
  6137 ;;      Totals:         0       0       0       0       0       0       0       0       0       0       0       0       
      +0       0       0       0       0       0       0       0       0       0       0       0       0       0       0       
      +0       0       0       0       0       0       0       0       0       0       0       0       0       0       0       
      +0       0       0       0       0       0       0       0       0
  6138 ;;Total ram usage:        0 bytes
  6139 ;; Hardware stack levels used: 1
  6140 ;; This function calls:
  6141 ;;		Nothing
  6142 ;; This function is called by:
  6143 ;;		_SYSTEM_Initialize
  6144 ;; This function uses a non-reentrant model
  6145 ;;
  6146                           
  6147                           	psect	text76
  6148   0042A0                     __ptext76:
  6149                           	callstack 0
  6150   0042A0                     _PIN_MANAGER_Initialize:
  6151                           	callstack 125
  6152   0042A0                     
  6153                           ;mcc_generated_files/pin_manager.c: 60:     LATE = 0x00;
  6154   0042A0  0E00               	movlw	0
  6155   0042A2  6EC2               	movwf	194,c	;volatile
  6156                           
  6157                           ;mcc_generated_files/pin_manager.c: 61:     LATD = 0x00;
  6158   0042A4  0E00               	movlw	0
  6159   0042A6  6EC1               	movwf	193,c	;volatile
  6160                           
  6161                           ;mcc_generated_files/pin_manager.c: 62:     LATA = 0x00;
  6162   0042A8  0E00               	movlw	0
  6163   0042AA  6EBE               	movwf	190,c	;volatile
  6164                           
  6165                           ;mcc_generated_files/pin_manager.c: 63:     LATF = 0x00;
  6166   0042AC  0E00               	movlw	0
  6167   0042AE  6EC3               	movwf	195,c	;volatile
  6168                           
  6169                           ;mcc_generated_files/pin_manager.c: 64:     LATB = 0x00;
  6170   0042B0  0E00               	movlw	0
  6171   0042B2  6EBF               	movwf	191,c	;volatile
  6172                           
  6173                           ;mcc_generated_files/pin_manager.c: 65:     LATC = 0x00;
  6174   0042B4  0E00               	movlw	0
  6175   0042B6  6EC0               	movwf	192,c	;volatile
  6176                           
  6177                           ;mcc_generated_files/pin_manager.c: 70:     TRISE = 0x07;
  6178   0042B8  0E07               	movlw	7
  6179   0042BA  6ECA               	movwf	202,c	;volatile
  6180                           
  6181                           ;mcc_generated_files/pin_manager.c: 71:     TRISF = 0xF7;
  6182   0042BC  0EF7               	movlw	247
  6183   0042BE  6ECB               	movwf	203,c	;volatile
  6184   0042C0                     
  6185                           ;mcc_generated_files/pin_manager.c: 72:     TRISA = 0xFF;
  6186   0042C0  68C6               	setf	198,c	;volatile
  6187                           
  6188                           ;mcc_generated_files/pin_manager.c: 73:     TRISB = 0xF9;
  6189   0042C2  0EF9               	movlw	249
  6190   0042C4  6EC7               	movwf	199,c	;volatile
  6191   0042C6                     
  6192                           ;mcc_generated_files/pin_manager.c: 74:     TRISC = 0xFF;
  6193   0042C6  68C8               	setf	200,c	;volatile
  6194   0042C8                     
  6195                           ;mcc_generated_files/pin_manager.c: 75:     TRISD = 0xFF;
  6196   0042C8  68C9               	setf	201,c	;volatile
  6197   0042CA                     
  6198                           ;mcc_generated_files/pin_manager.c: 80:     ANSELD = 0xFF;
  6199   0042CA  0104               	movlb	4	; () banked
  6200   0042CC  6918               	setf	24,b	;volatile
  6201   0042CE                     
  6202                           ; BSR set to: 4
  6203                           ;mcc_generated_files/pin_manager.c: 81:     ANSELC = 0xFF;
  6204   0042CE  6910               	setf	16,b	;volatile
  6205                           
  6206                           ;mcc_generated_files/pin_manager.c: 82:     ANSELB = 0xF9;
  6207   0042D0  0EF9               	movlw	249
  6208   0042D2  6F08               	movwf	8,b	;volatile
  6209                           
  6210                           ;mcc_generated_files/pin_manager.c: 83:     ANSELE = 0x07;
  6211   0042D4  0E07               	movlw	7
  6212   0042D6  6F20               	movwf	32,b	;volatile
  6213   0042D8                     
  6214                           ; BSR set to: 4
  6215                           ;mcc_generated_files/pin_manager.c: 84:     ANSELF = 0xFF;
  6216   0042D8  6928               	setf	40,b	;volatile
  6217                           
  6218                           ;mcc_generated_files/pin_manager.c: 85:     ANSELA = 0xF7;
  6219   0042DA  0EF7               	movlw	247
  6220   0042DC  6F00               	movwf	0,b	;volatile
  6221                           
  6222                           ;mcc_generated_files/pin_manager.c: 90:     WPUD = 0x00;
  6223   0042DE  0E00               	movlw	0
  6224   0042E0  6F19               	movwf	25,b	;volatile
  6225                           
  6226                           ;mcc_generated_files/pin_manager.c: 91:     WPUF = 0x00;
  6227   0042E2  0E00               	movlw	0
  6228   0042E4  6F29               	movwf	41,b	;volatile
  6229                           
  6230                           ;mcc_generated_files/pin_manager.c: 92:     WPUE = 0x00;
  6231   0042E6  0E00               	movlw	0
  6232   0042E8  6F21               	movwf	33,b	;volatile
  6233                           
  6234                           ;mcc_generated_files/pin_manager.c: 93:     WPUB = 0x00;
  6235   0042EA  0E00               	movlw	0
  6236   0042EC  6F09               	movwf	9,b	;volatile
  6237                           
  6238                           ;mcc_generated_files/pin_manager.c: 94:     WPUA = 0x00;
  6239   0042EE  0E00               	movlw	0
  6240   0042F0  6F01               	movwf	1,b	;volatile
  6241                           
  6242                           ;mcc_generated_files/pin_manager.c: 95:     WPUC = 0x00;
  6243   0042F2  0E00               	movlw	0
  6244   0042F4  6F11               	movwf	17,b	;volatile
  6245                           
  6246                           ;mcc_generated_files/pin_manager.c: 100:     ODCONE = 0x00;
  6247   0042F6  0E00               	movlw	0
  6248   0042F8  6F22               	movwf	34,b	;volatile
  6249                           
  6250                           ;mcc_generated_files/pin_manager.c: 101:     ODCONF = 0x00;
  6251   0042FA  0E00               	movlw	0
  6252   0042FC  6F2A               	movwf	42,b	;volatile
  6253                           
  6254                           ;mcc_generated_files/pin_manager.c: 102:     ODCONA = 0x00;
  6255   0042FE  0E00               	movlw	0
  6256   004300  6F02               	movwf	2,b	;volatile
  6257                           
  6258                           ;mcc_generated_files/pin_manager.c: 103:     ODCONB = 0x06;
  6259   004302  0E06               	movlw	6
  6260   004304  6F0A               	movwf	10,b	;volatile
  6261                           
  6262                           ;mcc_generated_files/pin_manager.c: 104:     ODCONC = 0x18;
  6263   004306  0E18               	movlw	24
  6264   004308  6F12               	movwf	18,b	;volatile
  6265                           
  6266                           ;mcc_generated_files/pin_manager.c: 105:     ODCOND = 0x00;
  6267   00430A  0E00               	movlw	0
  6268   00430C  6F1A               	movwf	26,b	;volatile
  6269   00430E                     
  6270                           ; BSR set to: 4
  6271                           ;mcc_generated_files/pin_manager.c: 110:     SLRCONA = 0xFF;
  6272   00430E  6903               	setf	3,b	;volatile
  6273   004310                     
  6274                           ; BSR set to: 4
  6275                           ;mcc_generated_files/pin_manager.c: 111:     SLRCONB = 0xFF;
  6276   004310  690B               	setf	11,b	;volatile
  6277   004312                     
  6278                           ; BSR set to: 4
  6279                           ;mcc_generated_files/pin_manager.c: 112:     SLRCONC = 0xFF;
  6280   004312  6913               	setf	19,b	;volatile
  6281   004314                     
  6282                           ; BSR set to: 4
  6283                           ;mcc_generated_files/pin_manager.c: 113:     SLRCOND = 0xFF;
  6284   004314  691B               	setf	27,b	;volatile
  6285                           
  6286                           ;mcc_generated_files/pin_manager.c: 114:     SLRCONE = 0x07;
  6287   004316  0E07               	movlw	7
  6288   004318  6F23               	movwf	35,b	;volatile
  6289   00431A                     
  6290                           ; BSR set to: 4
  6291                           ;mcc_generated_files/pin_manager.c: 115:     SLRCONF = 0xFF;
  6292   00431A  692B               	setf	43,b	;volatile
  6293   00431C                     
  6294                           ; BSR set to: 4
  6295                           ;mcc_generated_files/pin_manager.c: 120:     INLVLA = 0xFF;
  6296   00431C  6904               	setf	4,b	;volatile
  6297   00431E                     
  6298                           ; BSR set to: 4
  6299                           ;mcc_generated_files/pin_manager.c: 121:     INLVLB = 0xFF;
  6300   00431E  690C               	setf	12,b	;volatile
  6301   004320                     
  6302                           ; BSR set to: 4
  6303                           ;mcc_generated_files/pin_manager.c: 122:     INLVLC = 0xFF;
  6304   004320  6914               	setf	20,b	;volatile
  6305   004322                     
  6306                           ; BSR set to: 4
  6307                           ;mcc_generated_files/pin_manager.c: 123:     INLVLD = 0xFF;
  6308   004322  691C               	setf	28,b	;volatile
  6309                           
  6310                           ;mcc_generated_files/pin_manager.c: 124:     INLVLE = 0x0F;
  6311   004324  0E0F               	movlw	15
  6312   004326  6F24               	movwf	36,b	;volatile
  6313   004328                     
  6314                           ; BSR set to: 4
  6315                           ;mcc_generated_files/pin_manager.c: 125:     INLVLF = 0xFF;
  6316   004328  692C               	setf	44,b	;volatile
  6317                           
  6318                           ;mcc_generated_files/pin_manager.c: 134:     I2C1SDAPPS = 0x0A;
  6319   00432A  0E0A               	movlw	10
  6320   00432C  0102               	movlb	2	; () banked
  6321   00432E  6F70               	movwf	112,b	;volatile
  6322                           
  6323                           ;mcc_generated_files/pin_manager.c: 135:     RB1PPS = 0x37;
  6324   004330  0E37               	movlw	55
  6325   004332  6F0A               	movwf	10,b	;volatile
  6326                           
  6327                           ;mcc_generated_files/pin_manager.c: 136:     RB2PPS = 0x38;
  6328   004334  0E38               	movlw	56
  6329   004336  6F0B               	movwf	11,b	;volatile
  6330                           
  6331                           ;mcc_generated_files/pin_manager.c: 137:     I2C1SCLPPS = 0x09;
  6332   004338  0E09               	movlw	9
  6333   00433A  6F71               	movwf	113,b	;volatile
  6334   00433C                     
  6335                           ; BSR set to: 2
  6336   00433C  0012               	return		;funcret
  6337   00433E                     __end_of_PIN_MANAGER_Initialize:
  6338                           	callstack 0
  6339                           
  6340 ;; *************** function _OSCILLATOR_Initialize *****************
  6341 ;; Defined at:
  6342 ;;		line 58 in file "mcc_generated_files/mcc.c"
  6343 ;; Parameters:    Size  Location     Type
  6344 ;;		None
  6345 ;; Auto vars:     Size  Location     Type
  6346 ;;		None
  6347 ;; Return value:  Size  Location     Type
  6348 ;;                  1    wreg      void 
  6349 ;; Registers used:
  6350 ;;		wreg, status,2
  6351 ;; Tracked objects:
  6352 ;;		On entry : 0/0
  6353 ;;		On exit  : 0/0
  6354 ;;		Unchanged: 0/0
  6355 ;; Data sizes:     COMRAM   BANK5   BANK6   BANK7   BANK8   BANK9  BANK10  BANK11  BANK12  BANK13  BANK14  BANK15  BANK1
      +6  BANK17  BANK18  BANK19  BANK20  BANK21  BANK22  BANK23  BANK24  BANK25  BANK26  BANK27  BANK28  BANK29  BANK30  BANK3
      +1  BANK32  BANK33  BANK34  BANK35  BANK36  BANK37  BANK38  BANK39  BANK40  BANK41  BANK42  BANK43  BANK44  BANK45  BANK4
      +6  BANK47  BANK48  BANK49  BANK50  BANK51  BANK52  BANK53  BANK54
  6356 ;;      Params:         0       0       0       0       0       0       0       0       0       0       0       0       
      +0       0       0       0       0       0       0       0       0       0       0       0       0       0       0       
      +0       0       0       0       0       0       0       0       0       0       0       0       0       0       0       
      +0       0       0       0       0       0       0       0       0
  6357 ;;      Locals:         0       0       0       0       0       0       0       0       0       0       0       0       
      +0       0       0       0       0       0       0       0       0       0       0       0       0       0       0       
      +0       0       0       0       0       0       0       0       0       0       0       0       0       0       0       
      +0       0       0       0       0       0       0       0       0
  6358 ;;      Temps:          0       0       0       0       0       0       0       0       0       0       0       0       
      +0       0       0       0       0       0       0       0       0       0       0       0       0       0       0       
      +0       0       0       0       0       0       0       0       0       0       0       0       0       0       0       
      +0       0       0       0       0       0       0       0       0
  6359 ;;      Totals:         0       0       0       0       0       0       0       0       0       0       0       0       
      +0       0       0       0       0       0       0       0       0       0       0       0       0       0       0       
      +0       0       0       0       0       0       0       0       0       0       0       0       0       0       0       
      +0       0       0       0       0       0       0       0       0
  6360 ;;Total ram usage:        0 bytes
  6361 ;; Hardware stack levels used: 1
  6362 ;; This function calls:
  6363 ;;		Nothing
  6364 ;; This function is called by:
  6365 ;;		_SYSTEM_Initialize
  6366 ;; This function uses a non-reentrant model
  6367 ;;
  6368                           
  6369                           	psect	text77
  6370   004D28                     __ptext77:
  6371                           	callstack 0
  6372   004D28                     _OSCILLATOR_Initialize:
  6373                           	callstack 125
  6374   004D28                     
  6375                           ;mcc_generated_files/mcc.c: 61:     OSCCON1 = 0x60;
  6376   004D28  0E60               	movlw	96
  6377   004D2A  0100               	movlb	0	; () banked
  6378   004D2C  6FAD               	movwf	173,b	;volatile
  6379                           
  6380                           ;mcc_generated_files/mcc.c: 63:     OSCCON3 = 0x00;
  6381   004D2E  0E00               	movlw	0
  6382   004D30  6FAF               	movwf	175,b	;volatile
  6383                           
  6384                           ;mcc_generated_files/mcc.c: 65:     OSCEN = 0x00;
  6385   004D32  0E00               	movlw	0
  6386   004D34  6FB3               	movwf	179,b	;volatile
  6387                           
  6388                           ;mcc_generated_files/mcc.c: 67:     OSCFRQ = 0x05;
  6389   004D36  0E05               	movlw	5
  6390   004D38  6FB1               	movwf	177,b	;volatile
  6391                           
  6392                           ;mcc_generated_files/mcc.c: 69:     OSCTUNE = 0x00;
  6393   004D3A  0E00               	movlw	0
  6394   004D3C  6FB0               	movwf	176,b	;volatile
  6395   004D3E                     
  6396                           ; BSR set to: 0
  6397   004D3E  0012               	return		;funcret
  6398   004D40                     __end_of_OSCILLATOR_Initialize:
  6399                           	callstack 0
  6400                           
  6401 ;; *************** function _I2C1_Initialize *****************
  6402 ;; Defined at:
  6403 ;;		line 183 in file "mcc_generated_files/i2c1_master.c"
  6404 ;; Parameters:    Size  Location     Type
  6405 ;;		None
  6406 ;; Auto vars:     Size  Location     Type
  6407 ;;		None
  6408 ;; Return value:  Size  Location     Type
  6409 ;;                  1    wreg      void 
  6410 ;; Registers used:
  6411 ;;		wreg, status,2
  6412 ;; Tracked objects:
  6413 ;;		On entry : 0/0
  6414 ;;		On exit  : 0/0
  6415 ;;		Unchanged: 0/0
  6416 ;; Data sizes:     COMRAM   BANK5   BANK6   BANK7   BANK8   BANK9  BANK10  BANK11  BANK12  BANK13  BANK14  BANK15  BANK1
      +6  BANK17  BANK18  BANK19  BANK20  BANK21  BANK22  BANK23  BANK24  BANK25  BANK26  BANK27  BANK28  BANK29  BANK30  BANK3
      +1  BANK32  BANK33  BANK34  BANK35  BANK36  BANK37  BANK38  BANK39  BANK40  BANK41  BANK42  BANK43  BANK44  BANK45  BANK4
      +6  BANK47  BANK48  BANK49  BANK50  BANK51  BANK52  BANK53  BANK54
  6417 ;;      Params:         0       0       0       0       0       0       0       0       0       0       0       0       
      +0       0       0       0       0       0       0       0       0       0       0       0       0       0       0       
      +0       0       0       0       0       0       0       0       0       0       0       0       0       0       0       
      +0       0       0       0       0       0       0       0       0
  6418 ;;      Locals:         0       0       0       0       0       0       0       0       0       0       0       0       
      +0       0       0       0       0       0       0       0       0       0       0       0       0       0       0       
      +0       0       0       0       0       0       0       0       0       0       0       0       0       0       0       
      +0       0       0       0       0       0       0       0       0
  6419 ;;      Temps:          0       0       0       0       0       0       0       0       0       0       0       0       
      +0       0       0       0       0       0       0       0       0       0       0       0       0       0       0       
      +0       0       0       0       0       0       0       0       0       0       0       0       0       0       0       
      +0       0       0       0       0       0       0       0       0
  6420 ;;      Totals:         0       0       0       0       0       0       0       0       0       0       0       0       
      +0       0       0       0       0       0       0       0       0       0       0       0       0       0       0       
      +0       0       0       0       0       0       0       0       0       0       0       0       0       0       0       
      +0       0       0       0       0       0       0       0       0
  6421 ;;Total ram usage:        0 bytes
  6422 ;; Hardware stack levels used: 1
  6423 ;; This function calls:
  6424 ;;		Nothing
  6425 ;; This function is called by:
  6426 ;;		_SYSTEM_Initialize
  6427 ;; This function uses a non-reentrant model
  6428 ;;
  6429                           
  6430                           	psect	text78
  6431   004BA2                     __ptext78:
  6432                           	callstack 0
  6433   004BA2                     _I2C1_Initialize:
  6434                           	callstack 125
  6435   004BA2                     
  6436                           ;mcc_generated_files/i2c1_master.c: 186:     I2C1CON0 = 0x04;
  6437   004BA2  0E04               	movlw	4
  6438   004BA4  0102               	movlb	2	; () banked
  6439   004BA6  6F94               	movwf	148,b	;volatile
  6440                           
  6441                           ;mcc_generated_files/i2c1_master.c: 188:     I2C1CON1 = 0x80;
  6442   004BA8  0E80               	movlw	128
  6443   004BAA  6F95               	movwf	149,b	;volatile
  6444                           
  6445                           ;mcc_generated_files/i2c1_master.c: 190:     I2C1CON2 = 0x18;
  6446   004BAC  0E18               	movlw	24
  6447   004BAE  6F96               	movwf	150,b	;volatile
  6448                           
  6449                           ;mcc_generated_files/i2c1_master.c: 192:     I2C1CLK = 0x03;
  6450   004BB0  0E03               	movlw	3
  6451   004BB2  6F9E               	movwf	158,b	;volatile
  6452                           
  6453                           ;mcc_generated_files/i2c1_master.c: 194:     I2C1PIR = 0x00;
  6454   004BB4  0E00               	movlw	0
  6455   004BB6  6F9A               	movwf	154,b	;volatile
  6456                           
  6457                           ;mcc_generated_files/i2c1_master.c: 196:     I2C1PIE = 0x00;
  6458   004BB8  0E00               	movlw	0
  6459   004BBA  6F9B               	movwf	155,b	;volatile
  6460                           
  6461                           ;mcc_generated_files/i2c1_master.c: 198:     I2C1ERR = 0x00;
  6462   004BBC  0E00               	movlw	0
  6463   004BBE  6F97               	movwf	151,b	;volatile
  6464                           
  6465                           ;mcc_generated_files/i2c1_master.c: 200:     I2C1CNTL = 0x00;
  6466   004BC0  0E00               	movlw	0
  6467   004BC2  6F8C               	movwf	140,b	;volatile
  6468                           
  6469                           ;mcc_generated_files/i2c1_master.c: 201:     I2C1CNTH = 0x00;
  6470   004BC4  0E00               	movlw	0
  6471   004BC6  6F8D               	movwf	141,b	;volatile
  6472                           
  6473                           ;mcc_generated_files/i2c1_master.c: 203:     I2C1BAUD = 0x00;
  6474   004BC8  0E00               	movlw	0
  6475   004BCA  6F9D               	movwf	157,b	;volatile
  6476   004BCC                     
  6477                           ; BSR set to: 2
  6478   004BCC  0012               	return		;funcret
  6479   004BCE                     __end_of_I2C1_Initialize:
  6480                           	callstack 0
  6481                           
  6482                           	psect	text79
  6483   000000                     __ptext79:
  6484                           	callstack 0
  6485   000000                     
  6486                           	psect	rparam
  6487   000000                     
  6488                           	psect	idloc
  6489                           
  6490                           ;Config register IDLOC0 @ 0x200000
  6491                           ;	unspecified, using default values
  6492   200000                     	org	2097152
  6493   200000  0FFF               	dw	4095
  6494                           
  6495                           ;Config register IDLOC1 @ 0x200002
  6496                           ;	unspecified, using default values
  6497   200002                     	org	2097154
  6498   200002  0FFF               	dw	4095
  6499                           
  6500                           ;Config register IDLOC2 @ 0x200004
  6501                           ;	unspecified, using default values
  6502   200004                     	org	2097156
  6503   200004  0FFF               	dw	4095
  6504                           
  6505                           ;Config register IDLOC3 @ 0x200006
  6506                           ;	unspecified, using default values
  6507   200006                     	org	2097158
  6508   200006  0FFF               	dw	4095
  6509                           
  6510                           ;Config register IDLOC4 @ 0x200008
  6511                           ;	unspecified, using default values
  6512   200008                     	org	2097160
  6513   200008  0FFF               	dw	4095
  6514                           
  6515                           ;Config register IDLOC5 @ 0x20000A
  6516                           ;	unspecified, using default values
  6517   20000A                     	org	2097162
  6518   20000A  0FFF               	dw	4095
  6519                           
  6520                           ;Config register IDLOC6 @ 0x20000C
  6521                           ;	unspecified, using default values
  6522   20000C                     	org	2097164
  6523   20000C  0FFF               	dw	4095
  6524                           
  6525                           ;Config register IDLOC7 @ 0x20000E
  6526                           ;	unspecified, using default values
  6527   20000E                     	org	2097166
  6528   20000E  0FFF               	dw	4095
  6529                           
  6530                           ;Config register IDLOC8 @ 0x200010
  6531                           ;	unspecified, using default values
  6532   200010                     	org	2097168
  6533   200010  0FFF               	dw	4095
  6534                           
  6535                           ;Config register IDLOC9 @ 0x200012
  6536                           ;	unspecified, using default values
  6537   200012                     	org	2097170
  6538   200012  0FFF               	dw	4095
  6539                           
  6540                           ;Config register IDLOC10 @ 0x200014
  6541                           ;	unspecified, using default values
  6542   200014                     	org	2097172
  6543   200014  0FFF               	dw	4095
  6544                           
  6545                           ;Config register IDLOC11 @ 0x200016
  6546                           ;	unspecified, using default values
  6547   200016                     	org	2097174
  6548   200016  0FFF               	dw	4095
  6549                           
  6550                           ;Config register IDLOC12 @ 0x200018
  6551                           ;	unspecified, using default values
  6552   200018                     	org	2097176
  6553   200018  0FFF               	dw	4095
  6554                           
  6555                           ;Config register IDLOC13 @ 0x20001A
  6556                           ;	unspecified, using default values
  6557   20001A                     	org	2097178
  6558   20001A  0FFF               	dw	4095
  6559                           
  6560                           ;Config register IDLOC14 @ 0x20001C
  6561                           ;	unspecified, using default values
  6562   20001C                     	org	2097180
  6563   20001C  0FFF               	dw	4095
  6564                           
  6565                           ;Config register IDLOC15 @ 0x20001E
  6566                           ;	unspecified, using default values
  6567   20001E                     	org	2097182
  6568   20001E  0FFF               	dw	4095
  6569                           
  6570                           ;Config register IDLOC16 @ 0x200020
  6571                           ;	unspecified, using default values
  6572   200020                     	org	2097184
  6573   200020  0FFF               	dw	4095
  6574                           
  6575                           ;Config register IDLOC17 @ 0x200022
  6576                           ;	unspecified, using default values
  6577   200022                     	org	2097186
  6578   200022  0FFF               	dw	4095
  6579                           
  6580                           ;Config register IDLOC18 @ 0x200024
  6581                           ;	unspecified, using default values
  6582   200024                     	org	2097188
  6583   200024  0FFF               	dw	4095
  6584                           
  6585                           ;Config register IDLOC19 @ 0x200026
  6586                           ;	unspecified, using default values
  6587   200026                     	org	2097190
  6588   200026  0FFF               	dw	4095
  6589                           
  6590                           ;Config register IDLOC20 @ 0x200028
  6591                           ;	unspecified, using default values
  6592   200028                     	org	2097192
  6593   200028  0FFF               	dw	4095
  6594                           
  6595                           ;Config register IDLOC21 @ 0x20002A
  6596                           ;	unspecified, using default values
  6597   20002A                     	org	2097194
  6598   20002A  0FFF               	dw	4095
  6599                           
  6600                           ;Config register IDLOC22 @ 0x20002C
  6601                           ;	unspecified, using default values
  6602   20002C                     	org	2097196
  6603   20002C  0FFF               	dw	4095
  6604                           
  6605                           ;Config register IDLOC23 @ 0x20002E
  6606                           ;	unspecified, using default values
  6607   20002E                     	org	2097198
  6608   20002E  0FFF               	dw	4095
  6609                           
  6610                           ;Config register IDLOC24 @ 0x200030
  6611                           ;	unspecified, using default values
  6612   200030                     	org	2097200
  6613   200030  0FFF               	dw	4095
  6614                           
  6615                           ;Config register IDLOC25 @ 0x200032
  6616                           ;	unspecified, using default values
  6617   200032                     	org	2097202
  6618   200032  0FFF               	dw	4095
  6619                           
  6620                           ;Config register IDLOC26 @ 0x200034
  6621                           ;	unspecified, using default values
  6622   200034                     	org	2097204
  6623   200034  0FFF               	dw	4095
  6624                           
  6625                           ;Config register IDLOC27 @ 0x200036
  6626                           ;	unspecified, using default values
  6627   200036                     	org	2097206
  6628   200036  0FFF               	dw	4095
  6629                           
  6630                           ;Config register IDLOC28 @ 0x200038
  6631                           ;	unspecified, using default values
  6632   200038                     	org	2097208
  6633   200038  0FFF               	dw	4095
  6634                           
  6635                           ;Config register IDLOC29 @ 0x20003A
  6636                           ;	unspecified, using default values
  6637   20003A                     	org	2097210
  6638   20003A  0FFF               	dw	4095
  6639                           
  6640                           ;Config register IDLOC30 @ 0x20003C
  6641                           ;	unspecified, using default values
  6642   20003C                     	org	2097212
  6643   20003C  0FFF               	dw	4095
  6644                           
  6645                           ;Config register IDLOC31 @ 0x20003E
  6646                           ;	unspecified, using default values
  6647   20003E                     	org	2097214
  6648   20003E  0FFF               	dw	4095
  6649                           
  6650                           	psect	config
  6651                           
  6652                           ;Config register CONFIG1 @ 0x300000
  6653                           ;	External Oscillator Selection
  6654                           ;	FEXTOSC = OFF, Oscillator not enabled
  6655                           ;	Reset Oscillator Selection
  6656                           ;	RSTOSC = HFINTOSC_1MHZ, HFINTOSC with HFFRQ = 4 MHz and CDIV = 4:1
  6657   300000                     	org	3145728
  6658   300000  EC                 	db	236
  6659                           
  6660                           ;Config register CONFIG2 @ 0x300001
  6661                           ;	Clock out Enable bit
  6662                           ;	CLKOUTEN = OFF, CLKOUT function is disabled
  6663                           ;	PRLOCKED One-Way Set Enable bit
  6664                           ;	PR1WAY = ON, PRLOCKED bit can be cleared and set only once
  6665                           ;	Clock Switch Enable bit
  6666                           ;	CSWEN = ON, Writing to NOSC and NDIV is allowed
  6667                           ;	JTAG Enable bit
  6668                           ;	JTAGEN = OFF, Disable JTAG Boundary Scan mode, JTAG pins revert to user functions
  6669                           ;	Fail-Safe Clock Monitor Enable bit
  6670                           ;	FCMEN = ON, Fail-Safe Clock Monitor enabled
  6671                           ;	Fail-Safe Clock Monitor -Primary XTAL Enable bit
  6672                           ;	FCMENP = ON, FSCM timer will set FSCMP bit and OSFIF interrupt on Primary XTAL failure
  6673                           ;	Fail-Safe Clock Monitor -Secondary XTAL Enable bit
  6674                           ;	FCMENS = ON, FSCM timer will set FSCMS bit and OSFIF interrupt on Secondary XTAL failu
      +                          re
  6675   300001                     	org	3145729
  6676   300001  EF                 	db	239
  6677                           
  6678                           ;Config register CONFIG3 @ 0x300002
  6679                           ;	MCLR Enable bit
  6680                           ;	MCLRE = EXTMCLR, If LVP = 0, MCLR pin is MCLR; If LVP = 1, RE3 pin function is MCLR
  6681                           ;	Power-up timer selection bits
  6682                           ;	PWRTS = PWRT_OFF, PWRT is disabled
  6683                           ;	Multi-vector enable bit
  6684                           ;	MVECEN = OFF, Interrupt contoller does not use vector table to prioritze interrupts
  6685                           ;	IVTLOCK bit One-way set enable bit
  6686                           ;	IVT1WAY = ON, IVTLOCKED bit can be cleared and set only once
  6687                           ;	Low Power BOR Enable bit
  6688                           ;	LPBOREN = OFF, Low-Power BOR disabled
  6689                           ;	Brown-out Reset Enable bits
  6690                           ;	BOREN = SBORDIS, Brown-out Reset enabled , SBOREN bit is ignored
  6691   300002                     	org	3145730
  6692   300002  F7                 	db	247
  6693                           
  6694                           ;Config register CONFIG4 @ 0x300003
  6695                           ;	Brown-out Reset Voltage Selection bits
  6696                           ;	BORV = VBOR_1P9, Brown-out Reset Voltage (VBOR) set to 1.9V
  6697                           ;	ZCD Disable bit
  6698                           ;	ZCD = OFF, ZCD module is disabled. ZCD can be enabled by setting the ZCDSEN bit of ZCD
      +                          CON
  6699                           ;	PPSLOCK bit One-Way Set Enable bit
  6700                           ;	PPS1WAY = ON, PPSLOCKED bit can be cleared and set only once; PPS registers remain loc
      +                          ked after one clear/set cycle
  6701                           ;	Stack Full/Underflow Reset Enable bit
  6702                           ;	STVREN = ON, Stack full/underflow will cause Reset
  6703                           ;	Low Voltage Programming Enable bit
  6704                           ;	LVP = ON, Low voltage programming enabled. MCLR/VPP pin function is MCLR. MCLRE config
      +                          uration bit is ignored
  6705                           ;	Extended Instruction Set Enable bit
  6706                           ;	XINST = OFF, Extended Instruction Set and Indexed Addressing Mode disabled
  6707   300003                     	org	3145731
  6708   300003  FF                 	db	255
  6709                           
  6710                           ;Config register CONFIG5 @ 0x300004
  6711                           ;	WDT Period selection bits
  6712                           ;	WDTCPS = WDTCPS_31, Divider ratio 1:65536; software control of WDTPS
  6713                           ;	WDT operating mode
  6714                           ;	WDTE = OFF, WDT Disabled; SWDTEN is ignored
  6715   300004                     	org	3145732
  6716   300004  9F                 	db	159
  6717                           
  6718                           ;Config register CONFIG6 @ 0x300005
  6719                           ;	WDT Window Select bits
  6720                           ;	WDTCWS = WDTCWS_7, window always open (100%); software control; keyed access not requi
      +                          red
  6721                           ;	WDT input clock selector
  6722                           ;	WDTCCS = SC, Software Control
  6723   300005                     	org	3145733
  6724   300005  FF                 	db	255
  6725                           
  6726                           ;Config register CONFIG7 @ 0x300006
  6727                           ;	Boot Block Size selection bits
  6728                           ;	BBSIZE = BBSIZE_512, Boot Block size is 512 words
  6729                           ;	Boot Block enable bit
  6730                           ;	BBEN = OFF, Boot block disabled
  6731                           ;	Storage Area Flash enable bit
  6732                           ;	SAFEN = OFF, SAF disabled
  6733   300006                     	org	3145734
  6734   300006  FF                 	db	255
  6735                           
  6736                           ;Config register CONFIG8 @ 0x300007
  6737                           ;	Boot Block Write Protection bit
  6738                           ;	WRTB = OFF, Boot Block not Write protected
  6739                           ;	Configuration Register Write Protection bit
  6740                           ;	WRTC = OFF, Configuration registers not Write protected
  6741                           ;	Data EEPROM Write Protection bit
  6742                           ;	WRTD = OFF, Data EEPROM not Write protected
  6743                           ;	SAF Write protection bit
  6744                           ;	WRTSAF = OFF, SAF not Write Protected
  6745                           ;	Application Block write protection bit
  6746                           ;	WRTAPP = OFF, Application Block not write protected
  6747   300007                     	org	3145735
  6748   300007  FF                 	db	255
  6749                           
  6750                           ;Config register CONFIG9 @ 0x300008
  6751                           ;	CRC on boot output pin selection
  6752                           ;	BOOTPINSEL = RC5, CRC on boot output pin is RC5
  6753                           ;	CRC on boot output pin enable bit
  6754                           ;	BPEN = OFF, CRC on boot output pin disabled
  6755                           ;	CRC on boot output pin open drain bit
  6756                           ;	ODCON = OFF, Pin drives both high-going and low-going signals
  6757   300008                     	org	3145736
  6758   300008  FF                 	db	255
  6759                           
  6760                           ;Config register CONFIG10 @ 0x300009
  6761                           ;	PFM and Data EEPROM Code Protection bit
  6762                           ;	CP = OFF, PFM and Data EEPROM code protection disabled
  6763   300009                     	org	3145737
  6764   300009  FF                 	db	255
  6765                           
  6766                           ;Config register CONFIG11 @ 0x30000A
  6767                           ;	CRC on boot scan enable for boot area
  6768                           ;	BOOTSCEN = OFF, CRC on boot will not include the boot area of program memory in its ca
      +                          lculation
  6769                           ;	CRC on boot Continue on Error for boot areas bit
  6770                           ;	BOOTCOE = HALT, CRC on boot will stop device if error is detected in boot areas
  6771                           ;	CRC on boot application code scan enable
  6772                           ;	APPSCEN = OFF, CRC on boot will not include the application area of program memory in 
      +                          its calculation
  6773                           ;	CRC on boot SAF area scan enable
  6774                           ;	SAFSCEN = OFF, CRC on boot will not include the SAF area of program memory in its calc
      +                          ulation
  6775                           ;	CRC on boot Data EEPROM scan enable
  6776                           ;	DATASCEN = OFF, CRC on boot will not include data EEPROM in its calculation
  6777                           ;	CRC on boot Config fuses scan enable
  6778                           ;	CFGSCEN = OFF, CRC on boot will not include the configuration fuses in its calculation
  6779                           ;	CRC on boot Continue on Error for non-boot areas bit
  6780                           ;	COE = HALT, CRC on boot will stop device if error is detected in non-boot areas
  6781                           ;	Boot on CRC Enable bit
  6782                           ;	BOOTPOR = OFF, CRC on boot will not run
  6783   30000A                     	org	3145738
  6784   30000A  FF                 	db	255
  6785                           
  6786                           ;Config register CONFIG12 @ 0x30000B
  6787                           ;	Boot Sector Polynomial for CRC on boot bits 31-24
  6788                           ;	BCRCPOLT = hFF, Bits 31:24 of BCRCPOL are 0xFF
  6789   30000B                     	org	3145739
  6790   30000B  FF                 	db	255
  6791                           
  6792                           ;Config register CONFIG13 @ 0x30000C
  6793                           ;	Boot Sector Polynomial for CRC on boot bits 23-16
  6794                           ;	BCRCPOLU = hFF, Bits 23:16 of BCRCPOL are 0xFF
  6795   30000C                     	org	3145740
  6796   30000C  FF                 	db	255
  6797                           
  6798                           ;Config register CONFIG14 @ 0x30000D
  6799                           ;	Boot Sector Polynomial for CRC on boot bits 15-8
  6800                           ;	BCRCPOLH = hFF, Bits 15:8 of BCRCPOL are 0xFF
  6801   30000D                     	org	3145741
  6802   30000D  FF                 	db	255
  6803                           
  6804                           ;Config register CONFIG15 @ 0x30000E
  6805                           ;	Boot Sector Polynomial for CRC on boot bits 7-0
  6806                           ;	BCRCPOLL = hFF, Bits 7:0 of BCRCPOL are 0xFF
  6807   30000E                     	org	3145742
  6808   30000E  FF                 	db	255
  6809                           
  6810                           ;Config register CONFIG16 @ 0x30000F
  6811                           ;	Boot Sector Seed for CRC on boot bits 31-24
  6812                           ;	BCRCSEEDT = hFF, Bits 31:24 of BCRCSEED are 0xFF
  6813   30000F                     	org	3145743
  6814   30000F  FF                 	db	255
  6815                           
  6816                           ;Config register CONFIG17 @ 0x300010
  6817                           ;	Boot Sector Seed for CRC on boot bits 23-16
  6818                           ;	BCRCSEEDU = hFF, Bits 23:16 of BCRCSEED are 0xFF
  6819   300010                     	org	3145744
  6820   300010  FF                 	db	255
  6821                           
  6822                           ;Config register CONFIG18 @ 0x300011
  6823                           ;	Boot Sector Seed for CRC on boot bits 15-8
  6824                           ;	BCRCSEEDH = hFF, Bits 15:8 of BCRCSEED are 0xFF
  6825   300011                     	org	3145745
  6826   300011  FF                 	db	255
  6827                           
  6828                           ;Config register CONFIG19 @ 0x300012
  6829                           ;	Boot Sector Seed for CRC on boot bits 7-0
  6830                           ;	BCRCSEEDL = hFF, Bits 7:0 of BCRCSEED are 0xFF
  6831   300012                     	org	3145746
  6832   300012  FF                 	db	255
  6833                           
  6834                           ;Config register CONFIG20 @ 0x300013
  6835                           ;	unspecified, using default values
  6836                           ;	Boot Sector Expected Result for CRC on boot bits 31-24
  6837                           ;	BCRCEREST = 0xFF, unprogrammed default
  6838   300013                     	org	3145747
  6839   300013  FF                 	db	255
  6840                           
  6841                           ;Config register CONFIG21 @ 0x300014
  6842                           ;	unspecified, using default values
  6843                           ;	Boot Sector Expected Result for CRC on boot bits 23-16
  6844                           ;	BCRCERESU = 0xFF, unprogrammed default
  6845   300014                     	org	3145748
  6846   300014  FF                 	db	255
  6847                           
  6848                           ;Config register CONFIG22 @ 0x300015
  6849                           ;	unspecified, using default values
  6850                           ;	Boot Sector Expected Result for CRC on boot bits 15-8
  6851                           ;	BCRCERESH = 0xFF, unprogrammed default
  6852   300015                     	org	3145749
  6853   300015  FF                 	db	255
  6854                           
  6855                           ;Config register CONFIG23 @ 0x300016
  6856                           ;	unspecified, using default values
  6857                           ;	Boot Sector Expected Result for CRC on boot bits 7-0
  6858                           ;	BCRCERESL = 0xFF, unprogrammed default
  6859   300016                     	org	3145750
  6860   300016  FF                 	db	255
  6861                           
  6862                           ;Config register CONFIG24 @ 0x300017
  6863                           ;	Non-Boot Sector Polynomial for CRC on boot bits 31-24
  6864                           ;	CRCPOLT = hFF, Bits 31:24 of CRCPOL are 0xFF
  6865   300017                     	org	3145751
  6866   300017  FF                 	db	255
  6867                           
  6868                           ;Config register CONFIG25 @ 0x300018
  6869                           ;	Non-Boot Sector Polynomial for CRC on boot bits 23-16
  6870                           ;	CRCPOLU = hFF, Bits 23:16 of CRCPOL are 0xFF
  6871   300018                     	org	3145752
  6872   300018  FF                 	db	255
  6873                           
  6874                           ;Config register CONFIG26 @ 0x300019
  6875                           ;	Non-Boot Sector Polynomial for CRC on boot bits 15-8
  6876                           ;	CRCPOLH = hFF, Bits 15:8 of CRCPOL are 0xFF
  6877   300019                     	org	3145753
  6878   300019  FF                 	db	255
  6879                           
  6880                           ;Config register CONFIG27 @ 0x30001A
  6881                           ;	Non-Boot Sector Polynomial for CRC on boot bits 7-0
  6882                           ;	CRCPOLL = hFF, Bits 7:0 of CRCPOL are 0xFF
  6883   30001A                     	org	3145754
  6884   30001A  FF                 	db	255
  6885                           
  6886                           ;Config register CONFIG28 @ 0x30001B
  6887                           ;	Non-Boot Sector Seed for CRC on boot bits 31-24
  6888                           ;	CRCSEEDT = hFF, Bits 31:24 of CRCSEED are 0xFF
  6889   30001B                     	org	3145755
  6890   30001B  FF                 	db	255
  6891                           
  6892                           ;Config register CONFIG29 @ 0x30001C
  6893                           ;	Non-Boot Sector Seed for CRC on boot bits 23-16
  6894                           ;	CRCSEEDU = hFF, Bits 23:16 of CRCSEED are 0xFF
  6895   30001C                     	org	3145756
  6896   30001C  FF                 	db	255
  6897                           
  6898                           ;Config register CONFIG30 @ 0x30001D
  6899                           ;	Non-Boot Sector Seed for CRC on boot bits 15-8
  6900                           ;	CRCSEEDH = hFF, Bits 15:8 of CRCSEED are 0xFF
  6901   30001D                     	org	3145757
  6902   30001D  FF                 	db	255
  6903                           
  6904                           ;Config register CONFIG31 @ 0x30001E
  6905                           ;	Non-Boot Sector Seed for CRC on boot bits 7-0
  6906                           ;	CRCSEEDL = hFF, Bits 7:0 of CRCSEED are 0xFF
  6907   30001E                     	org	3145758
  6908   30001E  FF                 	db	255
  6909                           
  6910                           ;Config register CONFIG32 @ 0x30001F
  6911                           ;	unspecified, using default values
  6912                           ;	Non-Boot Sector Expected Result for CRC on boot bits 31-24
  6913                           ;	CRCEREST = 0xFF, unprogrammed default
  6914   30001F                     	org	3145759
  6915   30001F  FF                 	db	255
  6916                           
  6917                           ;Config register CONFIG33 @ 0x300020
  6918                           ;	unspecified, using default values
  6919                           ;	Non-Boot Sector Expected Result for CRC on boot bits 23-16
  6920                           ;	CRCERESU = 0xFF, unprogrammed default
  6921   300020                     	org	3145760
  6922   300020  FF                 	db	255
  6923                           
  6924                           ;Config register CONFIG34 @ 0x300021
  6925                           ;	unspecified, using default values
  6926                           ;	Non-Boot Sector Expected Result for CRC on boot bits 15-8
  6927                           ;	CRCERESH = 0xFF, unprogrammed default
  6928   300021                     	org	3145761
  6929   300021  FF                 	db	255
  6930                           
  6931                           ;Config register CONFIG35 @ 0x300022
  6932                           ;	unspecified, using default values
  6933                           ;	Non-Boot Sector Expected Result for CRC on boot bits 7-0
  6934                           ;	CRCERESL = 0xFF, unprogrammed default
  6935   300022                     	org	3145762
  6936   300022  FF                 	db	255
  6937                           
  6938                           ; Padding undefined space
  6939   300023                     	org	3145763
  6940   300023  FF                 	db	255
  6941                           tosu	equ	0x4FF
  6942                           tosh	equ	0x4FE
  6943                           tosl	equ	0x4FD
  6944                           stkptr	equ	0x4FC
  6945                           pclatu	equ	0x4FB
  6946                           pclath	equ	0x4FA
  6947                           pcl	equ	0x4F9
  6948                           tblptru	equ	0x4F8
  6949                           tblptrh	equ	0x4F7
  6950                           tblptrl	equ	0x4F6
  6951                           tablat	equ	0x4F5
  6952                           prodh	equ	0x4F4
  6953                           prodl	equ	0x4F3
  6954                           indf0	equ	0x4EF
  6955                           postinc0	equ	0x4EE
  6956                           postdec0	equ	0x4ED
  6957                           preinc0	equ	0x4EC
  6958                           plusw0	equ	0x4EB
  6959                           fsr0h	equ	0x4EA
  6960                           fsr0l	equ	0x4E9
  6961                           wreg	equ	0x4E8
  6962                           indf1	equ	0x4E7
  6963                           postinc1	equ	0x4E6
  6964                           postdec1	equ	0x4E5
  6965                           preinc1	equ	0x4E4
  6966                           plusw1	equ	0x4E3
  6967                           fsr1h	equ	0x4E2
  6968                           fsr1l	equ	0x4E1
  6969                           bsr	equ	0x4E0
  6970                           indf2	equ	0x4DF
  6971                           postinc2	equ	0x4DE
  6972                           postdec2	equ	0x4DD
  6973                           preinc2	equ	0x4DC
  6974                           plusw2	equ	0x4DB
  6975                           fsr2h	equ	0x4DA
  6976                           fsr2l	equ	0x4D9
  6977                           status	equ	0x4D8

Data Sizes:
    Strings     5
    Constant    57
    Data        1
    BSS         43
    Persistent  0
    Stack       0

Auto Spaces:
    Space          Size  Autos    Used
    COMRAM           95     39      83
    BANK5           160      0       0
    BANK6           256      0       0
    BANK7           256      0       0
    BANK8           256      0       0
    BANK9           256      0       0
    BANK10          256      0       0
    BANK11          256      0       0
    BANK12          256      0       0
    BANK13          256      0       0
    BANK14          256      0       0
    BANK15          256      0       0
    BANK16          256      0       0
    BANK17          256      0       0
    BANK18          256      0       0
    BANK19          256      0       0
    BANK20          256      0       0
    BANK21          256      0       0
    BANK22          256      0       0
    BANK23          256      0       0
    BANK24          256      0       0
    BANK25          256      0       0
    BANK26          256      0       0
    BANK27          256      0       0
    BANK28          256      0       0
    BANK29          256      0       0
    BANK30          256      0       0
    BANK31          256      0       0
    BANK32          256      0       0
    BANK33          256      0       0
    BANK34          256      0       0
    BANK35          256      0       0
    BANK36          256      0       0
    BANK37          256      0       0
    BANK38          256      0       0
    BANK39          256      0       0
    BANK40          256      0       0
    BANK41          256      0       0
    BANK42          256      0       0
    BANK43          256      0       0
    BANK44          256      0       0
    BANK45          256      0       0
    BANK46          256      0       0
    BANK47          256      0       0
    BANK48          256      0       0
    BANK49          256      0       0
    BANK50          256      0       0
    BANK51          256      0       0
    BANK52          256      0       0
    BANK53          256      0       0
    BANK54          256      0       0

Pointer List with Targets:

    i2c_write1ByteRegister@data.data	PTR unsigned char  size(2) Largest target is 0

    i2c_read1ByteRegister@d2.data	PTR unsigned char  size(2) Largest target is 0

    i2c_read2ByteRegister@result.data	PTR unsigned char  size(2) Largest target is 0

    i2c_write2ByteRegister@data.data	PTR unsigned char  size(2) Largest target is 0

    I2C1_Read1ByteRegister@returnValue.data	PTR unsigned char  size(2) Largest target is 0

    I2C1_Read2ByteRegister@returnValue.data	PTR unsigned char  size(2) Largest target is 0

    I2C1_Write1ByteRegister@data.data	PTR unsigned char  size(2) Largest target is 0

    I2C1_Write2ByteRegister@data.data	PTR unsigned char  size(2) Largest target is 0

    I2C1_DO_TX$1899$0	PTR void  size(2) Largest target is 5
		 -> I2C1_ReadDataBlock@bufferBlock(COMRAM[4]), I2C1_Write2ByteRegister@data(COMRAM[2]), I2C1_Write1ByteRegister@data(COMRAM[1]), I2C1_Read2ByteRegister@returnValue(COMRAM[2]), 
		 -> I2C1_Read1ByteRegister@returnValue(COMRAM[1]), i2c_readDataBlock@d(COMRAM[4]), i2c_write2ByteRegister@data(COMRAM[2]), i2c_read2ByteRegister@result(COMRAM[2]), 
		 -> i2c_read1ByteRegister@d2(COMRAM[1]), i2c_write1ByteRegister@data(COMRAM[1]), NULL(NULL[0]), 

    I2C1_DO_TX_EMPTY$1905$0	PTR void  size(2) Largest target is 5
		 -> I2C1_ReadDataBlock@bufferBlock(COMRAM[4]), I2C1_Write2ByteRegister@data(COMRAM[2]), I2C1_Write1ByteRegister@data(COMRAM[1]), I2C1_Read2ByteRegister@returnValue(COMRAM[2]), 
		 -> I2C1_Read1ByteRegister@returnValue(COMRAM[1]), i2c_readDataBlock@d(COMRAM[4]), i2c_write2ByteRegister@data(COMRAM[2]), i2c_read2ByteRegister@result(COMRAM[2]), 
		 -> i2c_read1ByteRegister@d2(COMRAM[1]), i2c_write1ByteRegister@data(COMRAM[1]), NULL(NULL[0]), 

    I2C1_DO_RX_EMPTY$1911$0	PTR void  size(2) Largest target is 5
		 -> I2C1_ReadDataBlock@bufferBlock(COMRAM[4]), I2C1_Write2ByteRegister@data(COMRAM[2]), I2C1_Write1ByteRegister@data(COMRAM[1]), I2C1_Read2ByteRegister@returnValue(COMRAM[2]), 
		 -> I2C1_Read1ByteRegister@returnValue(COMRAM[1]), i2c_readDataBlock@d(COMRAM[4]), i2c_write2ByteRegister@data(COMRAM[2]), i2c_read2ByteRegister@result(COMRAM[2]), 
		 -> i2c_read1ByteRegister@d2(COMRAM[1]), i2c_write1ByteRegister@data(COMRAM[1]), NULL(NULL[0]), 

    I2C1_DO_RX_EMPTY$1916	PTR void  size(2) Largest target is 5
		 -> I2C1_ReadDataBlock@bufferBlock(COMRAM[4]), I2C1_Write2ByteRegister@data(COMRAM[2]), I2C1_Write1ByteRegister@data(COMRAM[1]), I2C1_Read2ByteRegister@returnValue(COMRAM[2]), 
		 -> I2C1_Read1ByteRegister@returnValue(COMRAM[1]), i2c_readDataBlock@d(COMRAM[4]), i2c_write2ByteRegister@data(COMRAM[2]), i2c_read2ByteRegister@result(COMRAM[2]), 
		 -> i2c_read1ByteRegister@d2(COMRAM[1]), i2c_write1ByteRegister@data(COMRAM[1]), NULL(NULL[0]), 

    I2C1_DO_RX_EMPTY$1911	PTR FTN(PTR void ,)enum E360 size(3) Largest target is 1
		 -> I2C1_CallbackReturnReset(), I2C1_CallbackReturnStop(), Absolute function(), rdBlkRegCompleteHandler@i2c1_master_example$F179(), 
		 -> wr2RegCompleteHandler@i2c1_master_example$F168(), wr1RegCompleteHandler@i2c1_master_example$F162(), rd2RegCompleteHandler@i2c1_master_example$F156(), rd1RegCompleteHandler@i2c1_master_example$F145(), 
		 -> rdBlkRegCompleteHandler(), wr2RegCompleteHandler(), rd2RegCompleteHandler(), rd1RegCompleteHandler(), 
		 -> wr1RegCompleteHandler(), 

    I2C1_DO_TX_EMPTY$1910	PTR void  size(2) Largest target is 5
		 -> I2C1_ReadDataBlock@bufferBlock(COMRAM[4]), I2C1_Write2ByteRegister@data(COMRAM[2]), I2C1_Write1ByteRegister@data(COMRAM[1]), I2C1_Read2ByteRegister@returnValue(COMRAM[2]), 
		 -> I2C1_Read1ByteRegister@returnValue(COMRAM[1]), i2c_readDataBlock@d(COMRAM[4]), i2c_write2ByteRegister@data(COMRAM[2]), i2c_read2ByteRegister@result(COMRAM[2]), 
		 -> i2c_read1ByteRegister@d2(COMRAM[1]), i2c_write1ByteRegister@data(COMRAM[1]), NULL(NULL[0]), 

    I2C1_DO_TX_EMPTY$1905	PTR FTN(PTR void ,)enum E360 size(3) Largest target is 1
		 -> I2C1_CallbackReturnReset(), I2C1_CallbackReturnStop(), Absolute function(), rdBlkRegCompleteHandler@i2c1_master_example$F179(), 
		 -> wr2RegCompleteHandler@i2c1_master_example$F168(), wr1RegCompleteHandler@i2c1_master_example$F162(), rd2RegCompleteHandler@i2c1_master_example$F156(), rd1RegCompleteHandler@i2c1_master_example$F145(), 
		 -> rdBlkRegCompleteHandler(), wr2RegCompleteHandler(), rd2RegCompleteHandler(), rd1RegCompleteHandler(), 
		 -> wr1RegCompleteHandler(), 

    I2C1_DO_TX$1904	PTR void  size(2) Largest target is 5
		 -> I2C1_ReadDataBlock@bufferBlock(COMRAM[4]), I2C1_Write2ByteRegister@data(COMRAM[2]), I2C1_Write1ByteRegister@data(COMRAM[1]), I2C1_Read2ByteRegister@returnValue(COMRAM[2]), 
		 -> I2C1_Read1ByteRegister@returnValue(COMRAM[1]), i2c_readDataBlock@d(COMRAM[4]), i2c_write2ByteRegister@data(COMRAM[2]), i2c_read2ByteRegister@result(COMRAM[2]), 
		 -> i2c_read1ByteRegister@d2(COMRAM[1]), i2c_write1ByteRegister@data(COMRAM[1]), NULL(NULL[0]), 

    I2C1_DO_TX$1899	PTR FTN(PTR void ,)enum E360 size(3) Largest target is 1
		 -> I2C1_CallbackReturnReset(), I2C1_CallbackReturnStop(), Absolute function(), rdBlkRegCompleteHandler@i2c1_master_example$F179(), 
		 -> wr2RegCompleteHandler@i2c1_master_example$F168(), wr1RegCompleteHandler@i2c1_master_example$F162(), rd2RegCompleteHandler@i2c1_master_example$F156(), rd1RegCompleteHandler@i2c1_master_example$F145(), 
		 -> rdBlkRegCompleteHandler(), wr2RegCompleteHandler(), rd2RegCompleteHandler(), rd1RegCompleteHandler(), 
		 -> wr1RegCompleteHandler(), 

    I2C1_MasterFsm$1898	const PTR FTN()enum E23261 size(3) Largest target is 1
		 -> I2C1_DO_BUS_ERROR(), I2C1_DO_BUS_COLLISION(), I2C1_DO_ADDRESS_NACK(), I2C1_DO_RESET(), 
		 -> I2C1_DO_RX_NACK_RESTART(), I2C1_DO_RX_NACK_STOP(), I2C1_DO_TX_ACK(), I2C1_DO_RX_ACK(), 
		 -> I2C1_DO_SEND_STOP(), I2C1_DO_SEND_RESTART(), I2C1_DO_SEND_RESTART_WRITE(), I2C1_DO_SEND_RESTART_READ(), 
		 -> I2C1_DO_RX_EMPTY(), I2C1_DO_TX_EMPTY(), I2C1_DO_RX(), I2C1_DO_TX(), 
		 -> I2C1_DO_SEND_ADR_WRITE(), I2C1_DO_SEND_ADR_READ(), I2C1_DO_IDLE(), 

    I2C1_CallbackReturnStop@funPtr	PTR void  size(2) Largest target is 5
		 -> I2C1_ReadDataBlock@bufferBlock(COMRAM[4]), I2C1_Write2ByteRegister@data(COMRAM[2]), I2C1_Write1ByteRegister@data(COMRAM[1]), I2C1_Read2ByteRegister@returnValue(COMRAM[2]), 
		 -> I2C1_Read1ByteRegister@returnValue(COMRAM[1]), i2c_readDataBlock@d(COMRAM[4]), i2c_write2ByteRegister@data(COMRAM[2]), i2c_read2ByteRegister@result(COMRAM[2]), 
		 -> i2c_read1ByteRegister@d2(COMRAM[1]), i2c_write1ByteRegister@data(COMRAM[1]), NULL(NULL[0]), 

    I2C1_CallbackReturnReset@funPtr	PTR void  size(2) Largest target is 5
		 -> I2C1_ReadDataBlock@bufferBlock(COMRAM[4]), I2C1_Write2ByteRegister@data(COMRAM[2]), I2C1_Write1ByteRegister@data(COMRAM[1]), I2C1_Read2ByteRegister@returnValue(COMRAM[2]), 
		 -> I2C1_Read1ByteRegister@returnValue(COMRAM[1]), i2c_readDataBlock@d(COMRAM[4]), i2c_write2ByteRegister@data(COMRAM[2]), i2c_read2ByteRegister@result(COMRAM[2]), 
		 -> i2c_read1ByteRegister@d2(COMRAM[1]), i2c_write1ByteRegister@data(COMRAM[1]), NULL(NULL[0]), 

    cb$0	PTR void  size(2) Largest target is 5
		 -> I2C1_ReadDataBlock@bufferBlock(COMRAM[4]), I2C1_Write2ByteRegister@data(COMRAM[2]), I2C1_Write1ByteRegister@data(COMRAM[1]), I2C1_Read2ByteRegister@returnValue(COMRAM[2]), 
		 -> I2C1_Read1ByteRegister@returnValue(COMRAM[1]), i2c_readDataBlock@d(COMRAM[4]), i2c_write2ByteRegister@data(COMRAM[2]), i2c_read2ByteRegister@result(COMRAM[2]), 
		 -> i2c_read1ByteRegister@d2(COMRAM[1]), i2c_write1ByteRegister@data(COMRAM[1]), NULL(NULL[0]), 

    Absolute function$0	PTR void  size(2) Largest target is 5
		 -> I2C1_ReadDataBlock@bufferBlock(COMRAM[4]), I2C1_Write2ByteRegister@data(COMRAM[2]), I2C1_Write1ByteRegister@data(COMRAM[1]), I2C1_Read2ByteRegister@returnValue(COMRAM[2]), 
		 -> I2C1_Read1ByteRegister@returnValue(COMRAM[1]), i2c_readDataBlock@d(COMRAM[4]), i2c_write2ByteRegister@data(COMRAM[2]), i2c_read2ByteRegister@result(COMRAM[2]), 
		 -> i2c_read1ByteRegister@d2(COMRAM[1]), i2c_write1ByteRegister@data(COMRAM[1]), NULL(NULL[0]), 

    cb$0	PTR void  size(2) Largest target is 5
		 -> I2C1_ReadDataBlock@bufferBlock(COMRAM[4]), I2C1_Write2ByteRegister@data(COMRAM[2]), I2C1_Write1ByteRegister@data(COMRAM[1]), I2C1_Read2ByteRegister@returnValue(COMRAM[2]), 
		 -> I2C1_Read1ByteRegister@returnValue(COMRAM[1]), i2c_readDataBlock@d(COMRAM[4]), i2c_write2ByteRegister@data(COMRAM[2]), i2c_read2ByteRegister@result(COMRAM[2]), 
		 -> i2c_read1ByteRegister@d2(COMRAM[1]), i2c_write1ByteRegister@data(COMRAM[1]), NULL(NULL[0]), 

    S342$0$0	PTR void  size(2) Largest target is 5
		 -> I2C1_ReadDataBlock@bufferBlock(COMRAM[4]), I2C1_Write2ByteRegister@data(COMRAM[2]), I2C1_Write1ByteRegister@data(COMRAM[1]), I2C1_Read2ByteRegister@returnValue(COMRAM[2]), 
		 -> I2C1_Read1ByteRegister@returnValue(COMRAM[1]), i2c_readDataBlock@d(COMRAM[4]), i2c_write2ByteRegister@data(COMRAM[2]), i2c_read2ByteRegister@result(COMRAM[2]), 
		 -> i2c_read1ByteRegister@d2(COMRAM[1]), i2c_write1ByteRegister@data(COMRAM[1]), NULL(NULL[0]), 

    i2c_lcd_text@str	PTR unsigned char  size(2) Largest target is 5
		 -> STR_1(CODE[5]), 

    I2C1_SetCallback@ptr	PTR void  size(2) Largest target is 5
		 -> I2C1_ReadDataBlock@bufferBlock(COMRAM[4]), I2C1_Write2ByteRegister@data(COMRAM[2]), I2C1_Write1ByteRegister@data(COMRAM[1]), I2C1_Read2ByteRegister@returnValue(COMRAM[2]), 
		 -> I2C1_Read1ByteRegister@returnValue(COMRAM[1]), i2c_readDataBlock@d(COMRAM[4]), i2c_write2ByteRegister@data(COMRAM[2]), i2c_read2ByteRegister@result(COMRAM[2]), 
		 -> i2c_read1ByteRegister@d2(COMRAM[1]), i2c_write1ByteRegister@data(COMRAM[1]), NULL(NULL[0]), 

    I2C1_SetCallback@cb	PTR FTN(PTR void ,)enum E360 size(3) Largest target is 1
		 -> Absolute function(), rdBlkRegCompleteHandler@i2c1_master_example$F179(), wr2RegCompleteHandler@i2c1_master_example$F168(), wr1RegCompleteHandler@i2c1_master_example$F162(), 
		 -> rd2RegCompleteHandler@i2c1_master_example$F156(), rd1RegCompleteHandler@i2c1_master_example$F145(), rdBlkRegCompleteHandler(), wr2RegCompleteHandler(), 
		 -> rd2RegCompleteHandler(), rd1RegCompleteHandler(), wr1RegCompleteHandler(), 

    I2C1_SetAddressNackCallback@ptr	PTR void  size(2) Largest target is 0
		 -> NULL(NULL[0]), 

    I2C1_SetAddressNackCallback@cb	PTR FTN(PTR void ,)enum E360 size(3) Largest target is 1
		 -> Absolute function(), 

    I2C1_SetDataCompleteCallback@ptr	PTR void  size(2) Largest target is 5
		 -> I2C1_ReadDataBlock@bufferBlock(COMRAM[4]), I2C1_Write2ByteRegister@data(COMRAM[2]), I2C1_Write1ByteRegister@data(COMRAM[1]), I2C1_Read2ByteRegister@returnValue(COMRAM[2]), 
		 -> I2C1_Read1ByteRegister@returnValue(COMRAM[1]), i2c_readDataBlock@d(COMRAM[4]), i2c_write2ByteRegister@data(COMRAM[2]), i2c_read2ByteRegister@result(COMRAM[2]), 
		 -> i2c_read1ByteRegister@d2(COMRAM[1]), i2c_write1ByteRegister@data(COMRAM[1]), NULL(NULL[0]), 

    I2C1_SetDataCompleteCallback@cb	PTR FTN(PTR void ,)enum E360 size(3) Largest target is 1
		 -> Absolute function(), rdBlkRegCompleteHandler@i2c1_master_example$F179(), wr2RegCompleteHandler@i2c1_master_example$F168(), wr1RegCompleteHandler@i2c1_master_example$F162(), 
		 -> rd2RegCompleteHandler@i2c1_master_example$F156(), rd1RegCompleteHandler@i2c1_master_example$F145(), rdBlkRegCompleteHandler(), wr2RegCompleteHandler(), 
		 -> rd2RegCompleteHandler(), rd1RegCompleteHandler(), wr1RegCompleteHandler(), 

    I2C1_SetBuffer@buffer	PTR void  size(2) Largest target is 5
		 -> i2c_write1ByteRegister@data.data(COMRAM[3]), i2c_read1ByteRegister@d2.data(COMRAM[3]), i2c_read2ByteRegister@result.data(COMRAM[3]), i2c_write2ByteRegister@data.data(COMRAM[3]), 
		 -> I2C1_Read1ByteRegister@returnValue.data(COMRAM[3]), I2C1_Read2ByteRegister@returnValue.data(COMRAM[3]), I2C1_Write1ByteRegister@data.data(COMRAM[3]), I2C1_Write2ByteRegister@data.data(COMRAM[3]), 
		 -> I2C1_ReadDataBlock@reg(COMRAM[1]), I2C1_ReadDataBlock@bufferBlock(COMRAM[4]), bufferBlock.data(COMRAM[3]), I2C1_Write2ByteRegister@reg(COMRAM[1]), 
		 -> I2C1_Write2ByteRegister@data(COMRAM[2]), I2C1_Write1ByteRegister@reg(COMRAM[1]), I2C1_Write1ByteRegister@data(COMRAM[1]), I2C1_Read2ByteRegister@reg(COMRAM[1]), 
		 -> I2C1_Read2ByteRegister@returnValue(COMRAM[2]), I2C1_Read1ByteRegister@reg(COMRAM[1]), I2C1_Read1ByteRegister@returnValue(COMRAM[1]), i2c_readDataBlock@reg(COMRAM[1]), 
		 -> i2c_readDataBlock@d(COMRAM[4]), d.data(COMRAM[3]), i2c_write2ByteRegister@reg(COMRAM[1]), i2c_write2ByteRegister@data(COMRAM[2]), 
		 -> i2c_read2ByteRegister@reg(COMRAM[1]), i2c_read2ByteRegister@result(COMRAM[2]), i2c_read1ByteRegister@reg(COMRAM[1]), i2c_read1ByteRegister@d2(COMRAM[1]), 
		 -> i2c_write1ByteRegister@reg(COMRAM[1]), i2c_write1ByteRegister@data(COMRAM[1]), NULL(NULL[0]), 

    S342$data_ptr	PTR unsigned char  size(2) Largest target is 5
		 -> I2C1_ReadDataBlock@reg(COMRAM[1]), I2C1_ReadDataBlock@bufferBlock(COMRAM[4]), I2C1_Write2ByteRegister@reg(COMRAM[1]), I2C1_Write2ByteRegister@data(COMRAM[2]), 
		 -> I2C1_Write1ByteRegister@reg(COMRAM[1]), I2C1_Write1ByteRegister@data(COMRAM[1]), I2C1_Read2ByteRegister@reg(COMRAM[1]), I2C1_Read2ByteRegister@returnValue(COMRAM[2]), 
		 -> I2C1_Read1ByteRegister@reg(COMRAM[1]), I2C1_Read1ByteRegister@returnValue(COMRAM[1]), i2c_readDataBlock@reg(COMRAM[1]), i2c_readDataBlock@d(COMRAM[4]), 
		 -> i2c_write2ByteRegister@reg(COMRAM[1]), i2c_write2ByteRegister@data(COMRAM[2]), i2c_read2ByteRegister@reg(COMRAM[1]), i2c_read2ByteRegister@result(COMRAM[2]), 
		 -> i2c_read1ByteRegister@reg(COMRAM[1]), i2c_read1ByteRegister@d2(COMRAM[1]), i2c_write1ByteRegister@reg(COMRAM[1]), i2c_write1ByteRegister@data(COMRAM[1]), 
		 -> NULL(NULL[0]), 

    I2C1_Status.data_ptr	PTR unsigned char  size(2) Largest target is 5
		 -> i2c_write1ByteRegister@data.data(COMRAM[3]), i2c_read1ByteRegister@d2.data(COMRAM[3]), i2c_read2ByteRegister@result.data(COMRAM[3]), i2c_write2ByteRegister@data.data(COMRAM[3]), 
		 -> I2C1_Read1ByteRegister@returnValue.data(COMRAM[3]), I2C1_Read2ByteRegister@returnValue.data(COMRAM[3]), I2C1_Write1ByteRegister@data.data(COMRAM[3]), I2C1_Write2ByteRegister@data.data(COMRAM[3]), 
		 -> I2C1_ReadDataBlock@reg(COMRAM[1]), I2C1_ReadDataBlock@bufferBlock(COMRAM[4]), bufferBlock.data(COMRAM[3]), I2C1_Write2ByteRegister@reg(COMRAM[1]), 
		 -> I2C1_Write2ByteRegister@data(COMRAM[2]), I2C1_Write1ByteRegister@reg(COMRAM[1]), I2C1_Write1ByteRegister@data(COMRAM[1]), I2C1_Read2ByteRegister@reg(COMRAM[1]), 
		 -> I2C1_Read2ByteRegister@returnValue(COMRAM[2]), I2C1_Read1ByteRegister@reg(COMRAM[1]), I2C1_Read1ByteRegister@returnValue(COMRAM[1]), i2c_readDataBlock@reg(COMRAM[1]), 
		 -> i2c_readDataBlock@d(COMRAM[4]), d.data(COMRAM[3]), i2c_write2ByteRegister@reg(COMRAM[1]), i2c_write2ByteRegister@data(COMRAM[2]), 
		 -> i2c_read2ByteRegister@reg(COMRAM[1]), i2c_read2ByteRegister@result(COMRAM[2]), i2c_read1ByteRegister@reg(COMRAM[1]), i2c_read1ByteRegister@d2(COMRAM[1]), 
		 -> i2c_write1ByteRegister@reg(COMRAM[1]), i2c_write1ByteRegister@data(COMRAM[1]), NULL(NULL[0]), 

    S342$callbackPayload	PTR void [6] size(2) Largest target is 5
		 -> I2C1_ReadDataBlock@bufferBlock(COMRAM[4]), I2C1_Write2ByteRegister@data(COMRAM[2]), I2C1_Write1ByteRegister@data(COMRAM[1]), I2C1_Read2ByteRegister@returnValue(COMRAM[2]), 
		 -> I2C1_Read1ByteRegister@returnValue(COMRAM[1]), i2c_readDataBlock@d(COMRAM[4]), i2c_write2ByteRegister@data(COMRAM[2]), i2c_read2ByteRegister@result(COMRAM[2]), 
		 -> i2c_read1ByteRegister@d2(COMRAM[1]), i2c_write1ByteRegister@data(COMRAM[1]), NULL(NULL[0]), 

    I2C1_Status.callbackPayload	PTR void [6] size(2) Largest target is 5
		 -> I2C1_ReadDataBlock@bufferBlock(COMRAM[4]), I2C1_Write2ByteRegister@data(COMRAM[2]), I2C1_Write1ByteRegister@data(COMRAM[1]), I2C1_Read2ByteRegister@returnValue(COMRAM[2]), 
		 -> I2C1_Read1ByteRegister@returnValue(COMRAM[1]), i2c_readDataBlock@d(COMRAM[4]), i2c_write2ByteRegister@data(COMRAM[2]), i2c_read2ByteRegister@result(COMRAM[2]), 
		 -> i2c_read1ByteRegister@d2(COMRAM[1]), i2c_write1ByteRegister@data(COMRAM[1]), NULL(NULL[0]), 

    S342$callbackTable	PTR FTN(PTR void ,)enum E360[6] size(3) Largest target is 1
		 -> I2C1_CallbackReturnReset(), I2C1_CallbackReturnStop(), Absolute function(), rdBlkRegCompleteHandler@i2c1_master_example$F179(), 
		 -> wr2RegCompleteHandler@i2c1_master_example$F168(), wr1RegCompleteHandler@i2c1_master_example$F162(), rd2RegCompleteHandler@i2c1_master_example$F156(), rd1RegCompleteHandler@i2c1_master_example$F145(), 
		 -> rdBlkRegCompleteHandler(), wr2RegCompleteHandler(), rd2RegCompleteHandler(), rd1RegCompleteHandler(), 
		 -> wr1RegCompleteHandler(), 

    I2C1_Status.callbackTable	PTR FTN(PTR void ,)enum E360[6] size(3) Largest target is 1
		 -> I2C1_CallbackReturnReset(), I2C1_CallbackReturnStop(), Absolute function(), rdBlkRegCompleteHandler@i2c1_master_example$F179(), 
		 -> wr2RegCompleteHandler@i2c1_master_example$F168(), wr1RegCompleteHandler@i2c1_master_example$F162(), rd2RegCompleteHandler@i2c1_master_example$F156(), rd1RegCompleteHandler@i2c1_master_example$F145(), 
		 -> rdBlkRegCompleteHandler(), wr2RegCompleteHandler(), rd2RegCompleteHandler(), rd1RegCompleteHandler(), 
		 -> wr1RegCompleteHandler(), 

    i2c1_fsmStateTable	const PTR FTN()enum E23261[19] size(3) Largest target is 1
		 -> I2C1_DO_BUS_ERROR(), I2C1_DO_BUS_COLLISION(), I2C1_DO_ADDRESS_NACK(), I2C1_DO_RESET(), 
		 -> I2C1_DO_RX_NACK_RESTART(), I2C1_DO_RX_NACK_STOP(), I2C1_DO_TX_ACK(), I2C1_DO_RX_ACK(), 
		 -> I2C1_DO_SEND_STOP(), I2C1_DO_SEND_RESTART(), I2C1_DO_SEND_RESTART_WRITE(), I2C1_DO_SEND_RESTART_READ(), 
		 -> I2C1_DO_RX_EMPTY(), I2C1_DO_TX_EMPTY(), I2C1_DO_RX(), I2C1_DO_TX(), 
		 -> I2C1_DO_SEND_ADR_WRITE(), I2C1_DO_SEND_ADR_READ(), I2C1_DO_IDLE(), 

    rdBlkRegCompleteHandler@i2c1_master_example$F179@ptr.data	PTR unsigned char  size(2) Largest target is 0

    rdBlkRegCompleteHandler@i2c1_master_example$F179@ptr	PTR void  size(2) Largest target is 5
		 -> I2C1_ReadDataBlock@bufferBlock(COMRAM[4]), I2C1_Write2ByteRegister@data(COMRAM[2]), I2C1_Write1ByteRegister@data(COMRAM[1]), I2C1_Read2ByteRegister@returnValue(COMRAM[2]), 
		 -> I2C1_Read1ByteRegister@returnValue(COMRAM[1]), i2c_readDataBlock@d(COMRAM[4]), i2c_write2ByteRegister@data(COMRAM[2]), i2c_read2ByteRegister@result(COMRAM[2]), 
		 -> i2c_read1ByteRegister@d2(COMRAM[1]), i2c_write1ByteRegister@data(COMRAM[1]), NULL(NULL[0]), 

    wr2RegCompleteHandler@i2c1_master_example$F168@ptr	PTR void  size(2) Largest target is 5
		 -> I2C1_ReadDataBlock@bufferBlock(COMRAM[4]), I2C1_Write2ByteRegister@data(COMRAM[2]), I2C1_Write1ByteRegister@data(COMRAM[1]), I2C1_Read2ByteRegister@returnValue(COMRAM[2]), 
		 -> I2C1_Read1ByteRegister@returnValue(COMRAM[1]), i2c_readDataBlock@d(COMRAM[4]), i2c_write2ByteRegister@data(COMRAM[2]), i2c_read2ByteRegister@result(COMRAM[2]), 
		 -> i2c_read1ByteRegister@d2(COMRAM[1]), i2c_write1ByteRegister@data(COMRAM[1]), NULL(NULL[0]), 

    wr1RegCompleteHandler@i2c1_master_example$F162@ptr	PTR void  size(2) Largest target is 5
		 -> I2C1_ReadDataBlock@bufferBlock(COMRAM[4]), I2C1_Write2ByteRegister@data(COMRAM[2]), I2C1_Write1ByteRegister@data(COMRAM[1]), I2C1_Read2ByteRegister@returnValue(COMRAM[2]), 
		 -> I2C1_Read1ByteRegister@returnValue(COMRAM[1]), i2c_readDataBlock@d(COMRAM[4]), i2c_write2ByteRegister@data(COMRAM[2]), i2c_read2ByteRegister@result(COMRAM[2]), 
		 -> i2c_read1ByteRegister@d2(COMRAM[1]), i2c_write1ByteRegister@data(COMRAM[1]), NULL(NULL[0]), 

    rd2RegCompleteHandler@i2c1_master_example$F156@ptr	PTR void  size(2) Largest target is 5
		 -> I2C1_ReadDataBlock@bufferBlock(COMRAM[4]), I2C1_Write2ByteRegister@data(COMRAM[2]), I2C1_Write1ByteRegister@data(COMRAM[1]), I2C1_Read2ByteRegister@returnValue(COMRAM[2]), 
		 -> I2C1_Read1ByteRegister@returnValue(COMRAM[1]), i2c_readDataBlock@d(COMRAM[4]), i2c_write2ByteRegister@data(COMRAM[2]), i2c_read2ByteRegister@result(COMRAM[2]), 
		 -> i2c_read1ByteRegister@d2(COMRAM[1]), i2c_write1ByteRegister@data(COMRAM[1]), NULL(NULL[0]), 

    rd1RegCompleteHandler@i2c1_master_example$F145@ptr	PTR void  size(2) Largest target is 5
		 -> I2C1_ReadDataBlock@bufferBlock(COMRAM[4]), I2C1_Write2ByteRegister@data(COMRAM[2]), I2C1_Write1ByteRegister@data(COMRAM[1]), I2C1_Read2ByteRegister@returnValue(COMRAM[2]), 
		 -> I2C1_Read1ByteRegister@returnValue(COMRAM[1]), i2c_readDataBlock@d(COMRAM[4]), i2c_write2ByteRegister@data(COMRAM[2]), i2c_read2ByteRegister@result(COMRAM[2]), 
		 -> i2c_read1ByteRegister@d2(COMRAM[1]), i2c_write1ByteRegister@data(COMRAM[1]), NULL(NULL[0]), 

    bufferBlock.data	PTR unsigned char  size(2) Largest target is 0

    d.data	PTR unsigned char  size(2) Largest target is 0

    S76$data	PTR unsigned char  size(2) Largest target is 0

    rdBlkRegCompleteHandler@p.data	PTR unsigned char  size(2) Largest target is 0

    rdBlkRegCompleteHandler@p	PTR void  size(2) Largest target is 5
		 -> I2C1_ReadDataBlock@bufferBlock(COMRAM[4]), I2C1_Write2ByteRegister@data(COMRAM[2]), I2C1_Write1ByteRegister@data(COMRAM[1]), I2C1_Read2ByteRegister@returnValue(COMRAM[2]), 
		 -> I2C1_Read1ByteRegister@returnValue(COMRAM[1]), i2c_readDataBlock@d(COMRAM[4]), i2c_write2ByteRegister@data(COMRAM[2]), i2c_read2ByteRegister@result(COMRAM[2]), 
		 -> i2c_read1ByteRegister@d2(COMRAM[1]), i2c_write1ByteRegister@data(COMRAM[1]), NULL(NULL[0]), 

    wr2RegCompleteHandler@p	PTR void  size(2) Largest target is 5
		 -> I2C1_ReadDataBlock@bufferBlock(COMRAM[4]), I2C1_Write2ByteRegister@data(COMRAM[2]), I2C1_Write1ByteRegister@data(COMRAM[1]), I2C1_Read2ByteRegister@returnValue(COMRAM[2]), 
		 -> I2C1_Read1ByteRegister@returnValue(COMRAM[1]), i2c_readDataBlock@d(COMRAM[4]), i2c_write2ByteRegister@data(COMRAM[2]), i2c_read2ByteRegister@result(COMRAM[2]), 
		 -> i2c_read1ByteRegister@d2(COMRAM[1]), i2c_write1ByteRegister@data(COMRAM[1]), NULL(NULL[0]), 

    rd2RegCompleteHandler@p	PTR void  size(2) Largest target is 5
		 -> I2C1_ReadDataBlock@bufferBlock(COMRAM[4]), I2C1_Write2ByteRegister@data(COMRAM[2]), I2C1_Write1ByteRegister@data(COMRAM[1]), I2C1_Read2ByteRegister@returnValue(COMRAM[2]), 
		 -> I2C1_Read1ByteRegister@returnValue(COMRAM[1]), i2c_readDataBlock@d(COMRAM[4]), i2c_write2ByteRegister@data(COMRAM[2]), i2c_read2ByteRegister@result(COMRAM[2]), 
		 -> i2c_read1ByteRegister@d2(COMRAM[1]), i2c_write1ByteRegister@data(COMRAM[1]), NULL(NULL[0]), 

    rd1RegCompleteHandler@p	PTR void  size(2) Largest target is 5
		 -> I2C1_ReadDataBlock@bufferBlock(COMRAM[4]), I2C1_Write2ByteRegister@data(COMRAM[2]), I2C1_Write1ByteRegister@data(COMRAM[1]), I2C1_Read2ByteRegister@returnValue(COMRAM[2]), 
		 -> I2C1_Read1ByteRegister@returnValue(COMRAM[1]), i2c_readDataBlock@d(COMRAM[4]), i2c_write2ByteRegister@data(COMRAM[2]), i2c_read2ByteRegister@result(COMRAM[2]), 
		 -> i2c_read1ByteRegister@d2(COMRAM[1]), i2c_write1ByteRegister@data(COMRAM[1]), NULL(NULL[0]), 

    wr1RegCompleteHandler@p	PTR void  size(2) Largest target is 5
		 -> I2C1_ReadDataBlock@bufferBlock(COMRAM[4]), I2C1_Write2ByteRegister@data(COMRAM[2]), I2C1_Write1ByteRegister@data(COMRAM[1]), I2C1_Read2ByteRegister@returnValue(COMRAM[2]), 
		 -> I2C1_Read1ByteRegister@returnValue(COMRAM[1]), i2c_readDataBlock@d(COMRAM[4]), i2c_write2ByteRegister@data(COMRAM[2]), i2c_read2ByteRegister@result(COMRAM[2]), 
		 -> i2c_read1ByteRegister@d2(COMRAM[1]), i2c_write1ByteRegister@data(COMRAM[1]), NULL(NULL[0]), 


Critical Paths under _main in COMRAM

    _main->_i2c_lcd_text
    _i2c_lcd_text->_sendDATA
    _sendDATA->_loadPCF
    _i2c_lcd_init->_sendCMD
    _sendCMD->_loadPCF
    _loadPCF->_PCF_Wr
    _PCF_Wr->_I2C1_Write1ByteRegister
    _I2C1_SetAddressNackCallback->_I2C1_SetCallback
    _I2C1_MasterWrite->_I2C1_MasterOperation
    _I2C1_MasterFsm->_I2C1_DO_TX
    _I2C1_DO_TX->_I2C1_CallbackReturnReset
    _I2C1_DO_TX->_I2C1_CallbackReturnStop
    _I2C1_DO_TX->_rd1RegCompleteHandler
    _I2C1_DO_TX->_rd1RegCompleteHandler@i2c1_master_example$F145
    _I2C1_DO_TX->_rd2RegCompleteHandler
    _I2C1_DO_TX->_rd2RegCompleteHandler@i2c1_master_example$F156
    _I2C1_DO_TX->_rdBlkRegCompleteHandler
    _I2C1_DO_TX->_rdBlkRegCompleteHandler@i2c1_master_example$F179
    _I2C1_DO_TX->_wr1RegCompleteHandler
    _I2C1_DO_TX->_wr1RegCompleteHandler@i2c1_master_example$F162
    _I2C1_DO_TX->_wr2RegCompleteHandler
    _I2C1_DO_TX->_wr2RegCompleteHandler@i2c1_master_example$F168
    _I2C1_DO_TX_EMPTY->_I2C1_CallbackReturnReset
    _I2C1_DO_TX_EMPTY->_I2C1_CallbackReturnStop
    _I2C1_DO_TX_EMPTY->_rd1RegCompleteHandler
    _I2C1_DO_TX_EMPTY->_rd1RegCompleteHandler@i2c1_master_example$F145
    _I2C1_DO_TX_EMPTY->_rd2RegCompleteHandler
    _I2C1_DO_TX_EMPTY->_rd2RegCompleteHandler@i2c1_master_example$F156
    _I2C1_DO_TX_EMPTY->_rdBlkRegCompleteHandler
    _I2C1_DO_TX_EMPTY->_rdBlkRegCompleteHandler@i2c1_master_example$F179
    _I2C1_DO_TX_EMPTY->_wr1RegCompleteHandler
    _I2C1_DO_TX_EMPTY->_wr1RegCompleteHandler@i2c1_master_example$F162
    _I2C1_DO_TX_EMPTY->_wr2RegCompleteHandler
    _I2C1_DO_TX_EMPTY->_wr2RegCompleteHandler@i2c1_master_example$F168
    _I2C1_DO_SEND_STOP->_I2C1_MasterSendTxData
    _I2C1_DO_SEND_STOP->_I2C1_MasterSetCounter
    _I2C1_DO_RX->_I2C1_DO_RX_EMPTY
    _I2C1_DO_BUS_COLLISION->_I2C1_CallbackReturnReset
    _I2C1_DO_BUS_COLLISION->_I2C1_CallbackReturnStop
    _I2C1_DO_BUS_COLLISION->_rd1RegCompleteHandler
    _I2C1_DO_BUS_COLLISION->_rd1RegCompleteHandler@i2c1_master_example$F145
    _I2C1_DO_BUS_COLLISION->_rd2RegCompleteHandler
    _I2C1_DO_BUS_COLLISION->_rd2RegCompleteHandler@i2c1_master_example$F156
    _I2C1_DO_BUS_COLLISION->_rdBlkRegCompleteHandler
    _I2C1_DO_BUS_COLLISION->_rdBlkRegCompleteHandler@i2c1_master_example$F179
    _I2C1_DO_BUS_COLLISION->_wr1RegCompleteHandler
    _I2C1_DO_BUS_COLLISION->_wr1RegCompleteHandler@i2c1_master_example$F162
    _I2C1_DO_BUS_COLLISION->_wr2RegCompleteHandler
    _I2C1_DO_BUS_COLLISION->_wr2RegCompleteHandler@i2c1_master_example$F168
    _I2C1_DO_SEND_RESTART_READ->_I2C1_MasterSetCounter
    _I2C1_DO_RX_EMPTY->_I2C1_CallbackReturnReset
    _I2C1_DO_RX_EMPTY->_I2C1_CallbackReturnStop
    _I2C1_DO_RX_EMPTY->_rd1RegCompleteHandler
    _I2C1_DO_RX_EMPTY->_rd1RegCompleteHandler@i2c1_master_example$F145
    _I2C1_DO_RX_EMPTY->_rd2RegCompleteHandler
    _I2C1_DO_RX_EMPTY->_rd2RegCompleteHandler@i2c1_master_example$F156
    _I2C1_DO_RX_EMPTY->_rdBlkRegCompleteHandler
    _I2C1_DO_RX_EMPTY->_rdBlkRegCompleteHandler@i2c1_master_example$F179
    _I2C1_DO_RX_EMPTY->_wr1RegCompleteHandler
    _I2C1_DO_RX_EMPTY->_wr1RegCompleteHandler@i2c1_master_example$F162
    _I2C1_DO_RX_EMPTY->_wr2RegCompleteHandler
    _I2C1_DO_RX_EMPTY->_wr2RegCompleteHandler@i2c1_master_example$F168
    _I2C1_DO_ADDRESS_NACK->_I2C1_CallbackReturnReset
    _I2C1_DO_ADDRESS_NACK->_I2C1_CallbackReturnStop
    _I2C1_DO_ADDRESS_NACK->_rd1RegCompleteHandler
    _I2C1_DO_ADDRESS_NACK->_rd1RegCompleteHandler@i2c1_master_example$F145
    _I2C1_DO_ADDRESS_NACK->_rd2RegCompleteHandler
    _I2C1_DO_ADDRESS_NACK->_rd2RegCompleteHandler@i2c1_master_example$F156
    _I2C1_DO_ADDRESS_NACK->_rdBlkRegCompleteHandler
    _I2C1_DO_ADDRESS_NACK->_rdBlkRegCompleteHandler@i2c1_master_example$F179
    _I2C1_DO_ADDRESS_NACK->_wr1RegCompleteHandler
    _I2C1_DO_ADDRESS_NACK->_wr1RegCompleteHandler@i2c1_master_example$F162
    _I2C1_DO_ADDRESS_NACK->_wr2RegCompleteHandler
    _I2C1_DO_ADDRESS_NACK->_wr2RegCompleteHandler@i2c1_master_example$F168
    _wr2RegCompleteHandler@i2c1_master_example$F168->_I2C1_SetDataCompleteCallback
    _wr2RegCompleteHandler->_I2C1_SetDataCompleteCallback
    _wr1RegCompleteHandler@i2c1_master_example$F162->_I2C1_SetDataCompleteCallback
    _wr1RegCompleteHandler->_I2C1_SetDataCompleteCallback
    _rdBlkRegCompleteHandler@i2c1_master_example$F179->_I2C1_SetDataCompleteCallback
    _rdBlkRegCompleteHandler->_I2C1_SetDataCompleteCallback
    _rd2RegCompleteHandler@i2c1_master_example$F156->_I2C1_SetDataCompleteCallback
    _rd2RegCompleteHandler->_I2C1_SetDataCompleteCallback
    _rd1RegCompleteHandler@i2c1_master_example$F145->_I2C1_SetDataCompleteCallback
    _rd1RegCompleteHandler->_I2C1_SetDataCompleteCallback
    _I2C1_SetDataCompleteCallback->_I2C1_SetCallback

Critical Paths under _main in BANK5

    None.

Critical Paths under _main in BANK6

    None.

Critical Paths under _main in BANK7

    None.

Critical Paths under _main in BANK8

    None.

Critical Paths under _main in BANK9

    None.

Critical Paths under _main in BANK10

    None.

Critical Paths under _main in BANK11

    None.

Critical Paths under _main in BANK12

    None.

Critical Paths under _main in BANK13

    None.

Critical Paths under _main in BANK14

    None.

Critical Paths under _main in BANK15

    None.

Critical Paths under _main in BANK16

    None.

Critical Paths under _main in BANK17

    None.

Critical Paths under _main in BANK18

    None.

Critical Paths under _main in BANK19

    None.

Critical Paths under _main in BANK20

    None.

Critical Paths under _main in BANK21

    None.

Critical Paths under _main in BANK22

    None.

Critical Paths under _main in BANK23

    None.

Critical Paths under _main in BANK24

    None.

Critical Paths under _main in BANK25

    None.

Critical Paths under _main in BANK26

    None.

Critical Paths under _main in BANK27

    None.

Critical Paths under _main in BANK28

    None.

Critical Paths under _main in BANK29

    None.

Critical Paths under _main in BANK30

    None.

Critical Paths under _main in BANK31

    None.

Critical Paths under _main in BANK32

    None.

Critical Paths under _main in BANK33

    None.

Critical Paths under _main in BANK34

    None.

Critical Paths under _main in BANK35

    None.

Critical Paths under _main in BANK36

    None.

Critical Paths under _main in BANK37

    None.

Critical Paths under _main in BANK38

    None.

Critical Paths under _main in BANK39

    None.

Critical Paths under _main in BANK40

    None.

Critical Paths under _main in BANK41

    None.

Critical Paths under _main in BANK42

    None.

Critical Paths under _main in BANK43

    None.

Critical Paths under _main in BANK44

    None.

Critical Paths under _main in BANK45

    None.

Critical Paths under _main in BANK46

    None.

Critical Paths under _main in BANK47

    None.

Critical Paths under _main in BANK48

    None.

Critical Paths under _main in BANK49

    None.

Critical Paths under _main in BANK50

    None.

Critical Paths under _main in BANK51

    None.

Critical Paths under _main in BANK52

    None.

Critical Paths under _main in BANK53

    None.

Critical Paths under _main in BANK54

    None.

Call Graph Tables:

 ---------------------------------------------------------------------------------
 (Depth) Function   	        Calls       Base Space   Used Autos Params    Refs
 ---------------------------------------------------------------------------------
 (0) _main                                                 4     4      0 2822856
                                             35 COMRAM     4     4      0
                  _SYSTEM_Initialize
                       _i2c_lcd_init
                       _i2c_lcd_text
 ---------------------------------------------------------------------------------
 (1) _i2c_lcd_text                                         2     0      2  941187
                                             33 COMRAM     2     0      2
                           _sendDATA
 ---------------------------------------------------------------------------------
 (2) _sendDATA                                             4     4      0  941066
                                             29 COMRAM     4     4      0
                            _loadPCF
 ---------------------------------------------------------------------------------
 (1) _i2c_lcd_init                                         1     1      0 1881646
                                             33 COMRAM     1     1      0
                             _PCF_Wr
                            _sendCMD
 ---------------------------------------------------------------------------------
 (2) _sendCMD                                              4     4      0  941066
                                             29 COMRAM     4     4      0
                            _loadPCF
 ---------------------------------------------------------------------------------
 (3) _loadPCF                                              4     3      1  940976
                                             25 COMRAM     4     3      1
                             _PCF_Wr
 ---------------------------------------------------------------------------------
 (4) _PCF_Wr                                               1     1      0  940580
                                             24 COMRAM     1     1      0
            _I2C1_Write1ByteRegister
 ---------------------------------------------------------------------------------
 (5) _I2C1_Write1ByteRegister                              3     1      2  940558
                                             21 COMRAM     3     1      2
                         _I2C1_Close
                   _I2C1_MasterWrite
                          _I2C1_Open
        _I2C1_SetAddressNackCallback
                     _I2C1_SetBuffer
       _I2C1_SetDataCompleteCallback
 ---------------------------------------------------------------------------------
 (6) _I2C1_SetAddressNackCallback                          5     0      5    2782
                                              6 COMRAM     5     0      5
                   _I2C1_SetCallback
 ---------------------------------------------------------------------------------
 (6) _I2C1_Open                                            2     2      0      46
                                              0 COMRAM     2     2      0
                _I2C1_MasterClearIrq
                    _I2C1_MasterOpen
 ---------------------------------------------------------------------------------
 (7) _I2C1_MasterOpen                                      0     0      0       0
 ---------------------------------------------------------------------------------
 (6) _I2C1_MasterWrite                                     0     0      0  929793
               _I2C1_MasterOperation
 ---------------------------------------------------------------------------------
 (7) _I2C1_MasterOperation                                 2     2      0  929793
                                             19 COMRAM     2     2      0
              _I2C1_DO_SEND_ADR_READ
             _I2C1_DO_SEND_ADR_WRITE
              _I2C1_MasterSetCounter
                        _I2C1_Poller
 ---------------------------------------------------------------------------------
 (8) _I2C1_Poller                                          0     0      0  852230
                     _I2C1_MasterFsm
            _I2C1_MasterWaitForEvent
 ---------------------------------------------------------------------------------
 (9) _I2C1_MasterWaitForEvent                              0     0      0       0
 ---------------------------------------------------------------------------------
 (9) _I2C1_MasterFsm                                       0     0      0  852230
           _I2C1_ClearInterruptFlags
               _I2C1_DO_ADDRESS_NACK *
              _I2C1_DO_BUS_COLLISION *
                  _I2C1_DO_BUS_ERROR *
                       _I2C1_DO_IDLE *
                      _I2C1_DO_RESET *
                         _I2C1_DO_RX *
                     _I2C1_DO_RX_ACK *
                   _I2C1_DO_RX_EMPTY *
            _I2C1_DO_RX_NACK_RESTART *
               _I2C1_DO_RX_NACK_STOP *
              _I2C1_DO_SEND_ADR_READ *
             _I2C1_DO_SEND_ADR_WRITE *
               _I2C1_DO_SEND_RESTART *
          _I2C1_DO_SEND_RESTART_READ *
         _I2C1_DO_SEND_RESTART_WRITE *
                  _I2C1_DO_SEND_STOP *
                         _I2C1_DO_TX *
                     _I2C1_DO_TX_ACK *
                   _I2C1_DO_TX_EMPTY *
                  _I2C1_MasterIsNack
 ---------------------------------------------------------------------------------
 (10) _I2C1_DO_TX_ACK                                      0     0      0       0
                 _I2C1_MasterSendAck
 ---------------------------------------------------------------------------------
 (10) _I2C1_DO_TX                                          6     6      0  232467
                                             13 COMRAM     6     6      0
                   Absolute function *
           _I2C1_CallbackReturnReset *
            _I2C1_CallbackReturnStop *
          _I2C1_DO_SEND_RESTART_READ
         _I2C1_DO_SEND_RESTART_WRITE
                   _I2C1_DO_TX_EMPTY
                  _I2C1_MasterIsNack
            _I2C1_MasterIsTxBufEmpty
              _I2C1_MasterSendTxData
              _rd1RegCompleteHandler *
_rd1RegCompleteHandler@i2c1_master_e *
              _rd2RegCompleteHandler *
_rd2RegCompleteHandler@i2c1_master_e *
            _rdBlkRegCompleteHandler *
_rdBlkRegCompleteHandler@i2c1_master *
              _wr1RegCompleteHandler *
_wr1RegCompleteHandler@i2c1_master_e *
              _wr2RegCompleteHandler *
_wr2RegCompleteHandler@i2c1_master_e *
 ---------------------------------------------------------------------------------
 (11) _I2C1_MasterIsTxBufEmpty                             0     0      0       0
 ---------------------------------------------------------------------------------
 (10) _I2C1_MasterIsNack                                   0     0      0       0
 ---------------------------------------------------------------------------------
 (10) _I2C1_DO_TX_EMPTY                                    2     2      0   77451
                                             13 COMRAM     2     2      0
                   Absolute function *
           _I2C1_CallbackReturnReset *
            _I2C1_CallbackReturnStop *
          _I2C1_MasterDisableRestart
           _I2C1_MasterEnableRestart
              _I2C1_MasterSetCounter
              _rd1RegCompleteHandler *
_rd1RegCompleteHandler@i2c1_master_e *
              _rd2RegCompleteHandler *
_rd2RegCompleteHandler@i2c1_master_e *
            _rdBlkRegCompleteHandler *
_rdBlkRegCompleteHandler@i2c1_master *
              _wr1RegCompleteHandler *
_wr1RegCompleteHandler@i2c1_master_e *
              _wr2RegCompleteHandler *
_wr2RegCompleteHandler@i2c1_master_e *
 ---------------------------------------------------------------------------------
 (10) _I2C1_DO_SEND_STOP                                   0     0      0      44
              _I2C1_MasterGetCounter
              _I2C1_MasterSendTxData
              _I2C1_MasterSetCounter
                    _I2C1_MasterStop
 ---------------------------------------------------------------------------------
 (11) _I2C1_MasterGetCounter                               0     0      0       0
 ---------------------------------------------------------------------------------
 (10) _I2C1_DO_SEND_ADR_WRITE                              0     0      0      22
              _I2C1_MasterSendTxData
 ---------------------------------------------------------------------------------
 (10) _I2C1_DO_RX_NACK_STOP                                0     0      0       0
                       _I2C1_DO_IDLE
                _I2C1_MasterSendNack
                    _I2C1_MasterStop
 ---------------------------------------------------------------------------------
 (11) _I2C1_MasterStop                                     0     0      0       0
 ---------------------------------------------------------------------------------
 (11) _I2C1_DO_IDLE                                        0     0      0       0
 ---------------------------------------------------------------------------------
 (10) _I2C1_DO_RX_NACK_RESTART                             0     0      0       0
                _I2C1_MasterSendNack
 ---------------------------------------------------------------------------------
 (11) _I2C1_MasterSendNack                                 0     0      0       0
 ---------------------------------------------------------------------------------
 (10) _I2C1_DO_RX_ACK                                      0     0      0       0
                 _I2C1_MasterSendAck
 ---------------------------------------------------------------------------------
 (11) _I2C1_MasterSendAck                                  0     0      0       0
 ---------------------------------------------------------------------------------
 (10) _I2C1_DO_RX                                          3     3      0   77474
                                             15 COMRAM     3     3      0
                   _I2C1_DO_RX_EMPTY
               _I2C1_MasterGetRxData
             _I2C1_MasterIsRxBufFull
 ---------------------------------------------------------------------------------
 (11) _I2C1_MasterIsRxBufFull                              0     0      0       0
 ---------------------------------------------------------------------------------
 (11) _I2C1_MasterGetRxData                                0     0      0       0
 ---------------------------------------------------------------------------------
 (10) _I2C1_DO_BUS_ERROR                                   0     0      0       0
                _I2C1_MasterResetBus
 ---------------------------------------------------------------------------------
 (10) _I2C1_DO_BUS_COLLISION                               2     2      0  154924
                                             13 COMRAM     2     2      0
                   Absolute function *
           _I2C1_CallbackReturnReset *
            _I2C1_CallbackReturnStop *
                      _I2C1_DO_RESET
          _I2C1_DO_SEND_RESTART_READ
         _I2C1_DO_SEND_RESTART_WRITE
                _I2C1_MasterClearIrq
              _rd1RegCompleteHandler *
_rd1RegCompleteHandler@i2c1_master_e *
              _rd2RegCompleteHandler *
_rd2RegCompleteHandler@i2c1_master_e *
            _rdBlkRegCompleteHandler *
_rdBlkRegCompleteHandler@i2c1_master *
              _wr1RegCompleteHandler *
_wr1RegCompleteHandler@i2c1_master_e *
              _wr2RegCompleteHandler *
_wr2RegCompleteHandler@i2c1_master_e *
 ---------------------------------------------------------------------------------
 (11) _I2C1_DO_SEND_RESTART_WRITE                          0     0      0       0
 ---------------------------------------------------------------------------------
 (11) _I2C1_DO_SEND_RESTART_READ                           0     0      0   77495
              _I2C1_DO_SEND_ADR_READ
              _I2C1_MasterSetCounter
 ---------------------------------------------------------------------------------
 (12) _I2C1_DO_SEND_ADR_READ                               0     0      0   77473
                   _I2C1_DO_RX_EMPTY
              _I2C1_MasterSendTxData
 ---------------------------------------------------------------------------------
 (11) _I2C1_MasterSendTxData                               1     1      0      22
                                              0 COMRAM     1     1      0
 ---------------------------------------------------------------------------------
 (13) _I2C1_DO_RX_EMPTY                                    2     2      0   77451
                                             13 COMRAM     2     2      0
                   Absolute function *
           _I2C1_CallbackReturnReset *
            _I2C1_CallbackReturnStop *
          _I2C1_MasterDisableRestart
           _I2C1_MasterEnableRestart
              _I2C1_MasterSetCounter
              _rd1RegCompleteHandler *
_rd1RegCompleteHandler@i2c1_master_e *
              _rd2RegCompleteHandler *
_rd2RegCompleteHandler@i2c1_master_e *
            _rdBlkRegCompleteHandler *
_rdBlkRegCompleteHandler@i2c1_master *
              _wr1RegCompleteHandler *
_wr1RegCompleteHandler@i2c1_master_e *
              _wr2RegCompleteHandler *
_wr2RegCompleteHandler@i2c1_master_e *
 ---------------------------------------------------------------------------------
 (11) _I2C1_MasterSetCounter                               1     1      0      22
                                              0 COMRAM     1     1      0
 ---------------------------------------------------------------------------------
 (11) _I2C1_MasterEnableRestart                            0     0      0       0
 ---------------------------------------------------------------------------------
 (11) _I2C1_MasterDisableRestart                           0     0      0       0
 ---------------------------------------------------------------------------------
 (10) _I2C1_DO_RESET                                       0     0      0       0
                _I2C1_MasterResetBus
 ---------------------------------------------------------------------------------
 (11) _I2C1_MasterResetBus                                 0     0      0       0
 ---------------------------------------------------------------------------------
 (10) _I2C1_DO_ADDRESS_NACK                                2     2      0   77429
                                             13 COMRAM     2     2      0
                   Absolute function *
           _I2C1_CallbackReturnReset *
            _I2C1_CallbackReturnStop *
               _I2C1_DO_SEND_RESTART
              _rd1RegCompleteHandler *
_rd1RegCompleteHandler@i2c1_master_e *
              _rd2RegCompleteHandler *
_rd2RegCompleteHandler@i2c1_master_e *
            _rdBlkRegCompleteHandler *
_rdBlkRegCompleteHandler@i2c1_master *
              _wr1RegCompleteHandler *
_wr1RegCompleteHandler@i2c1_master_e *
              _wr2RegCompleteHandler *
_wr2RegCompleteHandler@i2c1_master_e *
 ---------------------------------------------------------------------------------
 (11) _wr2RegCompleteHandler@i2c1_master_example$F168      2     0      2    7712
                                             11 COMRAM     2     0      2
                     _I2C1_SetBuffer
       _I2C1_SetDataCompleteCallback
 ---------------------------------------------------------------------------------
 (11) _wr2RegCompleteHandler                               2     0      2    7712
                                             11 COMRAM     2     0      2
                     _I2C1_SetBuffer
       _I2C1_SetDataCompleteCallback
 ---------------------------------------------------------------------------------
 (11) _wr1RegCompleteHandler@i2c1_master_example$F162      2     0      2    7712
                                             11 COMRAM     2     0      2
                     _I2C1_SetBuffer
       _I2C1_SetDataCompleteCallback
 ---------------------------------------------------------------------------------
 (11) _wr1RegCompleteHandler                               2     0      2    7712
                                             11 COMRAM     2     0      2
                     _I2C1_SetBuffer
       _I2C1_SetDataCompleteCallback
 ---------------------------------------------------------------------------------
 (11) _rdBlkRegCompleteHandler@i2c1_master_example$F179    2     0      2    7734
                                             11 COMRAM     2     0      2
                     _I2C1_SetBuffer
       _I2C1_SetDataCompleteCallback
 ---------------------------------------------------------------------------------
 (11) _rdBlkRegCompleteHandler                             2     0      2    7734
                                             11 COMRAM     2     0      2
                     _I2C1_SetBuffer
       _I2C1_SetDataCompleteCallback
 ---------------------------------------------------------------------------------
 (11) _rd2RegCompleteHandler@i2c1_master_example$F156      2     0      2    7712
                                             11 COMRAM     2     0      2
                     _I2C1_SetBuffer
       _I2C1_SetDataCompleteCallback
 ---------------------------------------------------------------------------------
 (11) _rd2RegCompleteHandler                               2     0      2    7712
                                             11 COMRAM     2     0      2
                     _I2C1_SetBuffer
       _I2C1_SetDataCompleteCallback
 ---------------------------------------------------------------------------------
 (11) _rd1RegCompleteHandler@i2c1_master_example$F145      2     0      2    7712
                                             11 COMRAM     2     0      2
                     _I2C1_SetBuffer
       _I2C1_SetDataCompleteCallback
 ---------------------------------------------------------------------------------
 (11) _rd1RegCompleteHandler                               2     0      2    7712
                                             11 COMRAM     2     0      2
                     _I2C1_SetBuffer
       _I2C1_SetDataCompleteCallback
 ---------------------------------------------------------------------------------
 (6) _I2C1_SetDataCompleteCallback                         5     0      5    3998
                                              6 COMRAM     5     0      5
                   _I2C1_SetCallback
 ---------------------------------------------------------------------------------
 (7) _I2C1_SetCallback                                     6     1      5     914
                                              0 COMRAM     6     1      5
 ---------------------------------------------------------------------------------
 (6) _I2C1_SetBuffer                                       4     0      4    3692
                                              0 COMRAM     4     0      4
 ---------------------------------------------------------------------------------
 (10) _I2C1_DO_SEND_RESTART                                0     0      0       0
 ---------------------------------------------------------------------------------
 (11) _I2C1_CallbackReturnStop                             2     0      2       0
                                             11 COMRAM     2     0      2
 ---------------------------------------------------------------------------------
 (11) _I2C1_CallbackReturnReset                            2     0      2     265
                                             11 COMRAM     2     0      2
 ---------------------------------------------------------------------------------
 (11) Absolute function(Fake)                              2     0      2       0
 ---------------------------------------------------------------------------------
 (10) _I2C1_ClearInterruptFlags                            0     0      0       0
          _I2C1_MasterClearCountFlag
           _I2C1_MasterClearNackFlag
           _I2C1_MasterClearStopFlag
          _I2C1_MasterIsCountFlagSet
           _I2C1_MasterIsNackFlagSet
           _I2C1_MasterIsStopFlagSet
 ---------------------------------------------------------------------------------
 (11) _I2C1_MasterIsStopFlagSet                            0     0      0       0
 ---------------------------------------------------------------------------------
 (11) _I2C1_MasterIsNackFlagSet                            0     0      0       0
 ---------------------------------------------------------------------------------
 (11) _I2C1_MasterIsCountFlagSet                           0     0      0       0
 ---------------------------------------------------------------------------------
 (11) _I2C1_MasterClearStopFlag                            0     0      0       0
 ---------------------------------------------------------------------------------
 (11) _I2C1_MasterClearNackFlag                            0     0      0       0
 ---------------------------------------------------------------------------------
 (11) _I2C1_MasterClearCountFlag                           0     0      0       0
 ---------------------------------------------------------------------------------
 (6) _I2C1_Close                                           1     1      0      15
                                              0 COMRAM     1     1      0
                _I2C1_MasterClearIrq
                   _I2C1_MasterClose
              _I2C1_MasterDisableIrq
 ---------------------------------------------------------------------------------
 (7) _I2C1_MasterDisableIrq                                0     0      0       0
 ---------------------------------------------------------------------------------
 (7) _I2C1_MasterClose                                     0     0      0       0
 ---------------------------------------------------------------------------------
 (7) _I2C1_MasterClearIrq                                  0     0      0       0
 ---------------------------------------------------------------------------------
 (1) _SYSTEM_Initialize                                    0     0      0       0
                    _I2C1_Initialize
              _OSCILLATOR_Initialize
             _PIN_MANAGER_Initialize
                     _PMD_Initialize
 ---------------------------------------------------------------------------------
 (2) _PMD_Initialize                                       0     0      0       0
 ---------------------------------------------------------------------------------
 (2) _PIN_MANAGER_Initialize                               0     0      0       0
 ---------------------------------------------------------------------------------
 (2) _OSCILLATOR_Initialize                                0     0      0       0
 ---------------------------------------------------------------------------------
 (2) _I2C1_Initialize                                      0     0      0       0
 ---------------------------------------------------------------------------------
 Estimated maximum stack depth 13
 ---------------------------------------------------------------------------------

 Call Graph Graphs:

 _main (ROOT)
   _SYSTEM_Initialize
     _I2C1_Initialize
     _OSCILLATOR_Initialize
     _PIN_MANAGER_Initialize
     _PMD_Initialize
   _i2c_lcd_init
     _PCF_Wr
       _I2C1_Write1ByteRegister
         _I2C1_Close
           _I2C1_MasterClearIrq
           _I2C1_MasterClose
           _I2C1_MasterDisableIrq
         _I2C1_MasterWrite
           _I2C1_MasterOperation
             _I2C1_DO_SEND_ADR_READ
               _I2C1_DO_RX_EMPTY
                 Absolute function(Fake) *
                 _I2C1_CallbackReturnReset *
                 _I2C1_CallbackReturnStop *
                 _I2C1_MasterDisableRestart *
                 _I2C1_MasterEnableRestart *
                 _I2C1_MasterSetCounter *
                 _rd1RegCompleteHandler *
                   _I2C1_SetBuffer
                   _I2C1_SetDataCompleteCallback
                     _I2C1_SetCallback
                 _rd1RegCompleteHandler@i2c1_master_example$F145 *
                   _I2C1_SetBuffer
                   _I2C1_SetDataCompleteCallback
                 _rd2RegCompleteHandler *
                   _I2C1_SetBuffer
                   _I2C1_SetDataCompleteCallback
                 _rd2RegCompleteHandler@i2c1_master_example$F156 *
                   _I2C1_SetBuffer
                   _I2C1_SetDataCompleteCallback
                 _rdBlkRegCompleteHandler *
                   _I2C1_SetBuffer
                   _I2C1_SetDataCompleteCallback
                 _rdBlkRegCompleteHandler@i2c1_master_example$F179 *
                   _I2C1_SetBuffer
                   _I2C1_SetDataCompleteCallback
                 _wr1RegCompleteHandler *
                   _I2C1_SetBuffer
                   _I2C1_SetDataCompleteCallback
                 _wr1RegCompleteHandler@i2c1_master_example$F162 *
                   _I2C1_SetBuffer
                   _I2C1_SetDataCompleteCallback
                 _wr2RegCompleteHandler *
                   _I2C1_SetBuffer
                   _I2C1_SetDataCompleteCallback
                 _wr2RegCompleteHandler@i2c1_master_example$F168 *
                   _I2C1_SetBuffer
                   _I2C1_SetDataCompleteCallback
               _I2C1_MasterSendTxData
             _I2C1_DO_SEND_ADR_WRITE
               _I2C1_MasterSendTxData
             _I2C1_MasterSetCounter
             _I2C1_Poller
               _I2C1_MasterFsm
                 _I2C1_ClearInterruptFlags
                   _I2C1_MasterClearCountFlag
                   _I2C1_MasterClearNackFlag
                   _I2C1_MasterClearStopFlag
                   _I2C1_MasterIsCountFlagSet
                   _I2C1_MasterIsNackFlagSet
                   _I2C1_MasterIsStopFlagSet
                 _I2C1_DO_ADDRESS_NACK *
                   Absolute function(Fake) *
                   _I2C1_CallbackReturnReset *
                   _I2C1_CallbackReturnStop *
                   _I2C1_DO_SEND_RESTART *
                   _rd1RegCompleteHandler *
                   _rd1RegCompleteHandler@i2c1_master_example$F145 *
                   _rd2RegCompleteHandler *
                   _rd2RegCompleteHandler@i2c1_master_example$F156 *
                   _rdBlkRegCompleteHandler *
                   _rdBlkRegCompleteHandler@i2c1_master_example$F179 *
                   _wr1RegCompleteHandler *
                   _wr1RegCompleteHandler@i2c1_master_example$F162 *
                   _wr2RegCompleteHandler *
                   _wr2RegCompleteHandler@i2c1_master_example$F168 *
                 _I2C1_DO_BUS_COLLISION *
                   Absolute function(Fake) *
                   _I2C1_CallbackReturnReset *
                   _I2C1_CallbackReturnStop *
                   _I2C1_DO_RESET *
                     _I2C1_MasterResetBus
                   _I2C1_DO_SEND_RESTART_READ *
                     _I2C1_DO_SEND_ADR_READ
                     _I2C1_MasterSetCounter
                   _I2C1_DO_SEND_RESTART_WRITE *
                   _I2C1_MasterClearIrq *
                   _rd1RegCompleteHandler *
                   _rd1RegCompleteHandler@i2c1_master_example$F145 *
                   _rd2RegCompleteHandler *
                   _rd2RegCompleteHandler@i2c1_master_example$F156 *
                   _rdBlkRegCompleteHandler *
                   _rdBlkRegCompleteHandler@i2c1_master_example$F179 *
                   _wr1RegCompleteHandler *
                   _wr1RegCompleteHandler@i2c1_master_example$F162 *
                   _wr2RegCompleteHandler *
                   _wr2RegCompleteHandler@i2c1_master_example$F168 *
                 _I2C1_DO_BUS_ERROR *
                   _I2C1_MasterResetBus
                 _I2C1_DO_IDLE *
                 _I2C1_DO_RESET *
                 _I2C1_DO_RX *
                   _I2C1_DO_RX_EMPTY
                   _I2C1_MasterGetRxData
                   _I2C1_MasterIsRxBufFull
                 _I2C1_DO_RX_ACK *
                   _I2C1_MasterSendAck
                 _I2C1_DO_RX_EMPTY *
                 _I2C1_DO_RX_NACK_RESTART *
                   _I2C1_MasterSendNack
                 _I2C1_DO_RX_NACK_STOP *
                   _I2C1_DO_IDLE
                   _I2C1_MasterSendNack
                   _I2C1_MasterStop
                 _I2C1_DO_SEND_ADR_READ *
                 _I2C1_DO_SEND_ADR_WRITE *
                 _I2C1_DO_SEND_RESTART *
                 _I2C1_DO_SEND_RESTART_READ *
                 _I2C1_DO_SEND_RESTART_WRITE *
                 _I2C1_DO_SEND_STOP *
                   _I2C1_MasterGetCounter
                   _I2C1_MasterSendTxData
                   _I2C1_MasterSetCounter
                   _I2C1_MasterStop
                 _I2C1_DO_TX *
                   Absolute function(Fake) *
                   _I2C1_CallbackReturnReset *
                   _I2C1_CallbackReturnStop *
                   _I2C1_DO_SEND_RESTART_READ *
                   _I2C1_DO_SEND_RESTART_WRITE *
                   _I2C1_DO_TX_EMPTY *
                     Absolute function(Fake) *
                     _I2C1_CallbackReturnReset *
                     _I2C1_CallbackReturnStop *
                     _I2C1_MasterDisableRestart *
                     _I2C1_MasterEnableRestart *
                     _I2C1_MasterSetCounter *
                     _rd1RegCompleteHandler *
                     _rd1RegCompleteHandler@i2c1_master_example$F145 *
                     _rd2RegCompleteHandler *
                     _rd2RegCompleteHandler@i2c1_master_example$F156 *
                     _rdBlkRegCompleteHandler *
                     _rdBlkRegCompleteHandler@i2c1_master_example$F179 *
                     _wr1RegCompleteHandler *
                     _wr1RegCompleteHandler@i2c1_master_example$F162 *
                     _wr2RegCompleteHandler *
                     _wr2RegCompleteHandler@i2c1_master_example$F168 *
                   _I2C1_MasterIsNack *
                   _I2C1_MasterIsTxBufEmpty *
                   _I2C1_MasterSendTxData *
                   _rd1RegCompleteHandler *
                   _rd1RegCompleteHandler@i2c1_master_example$F145 *
                   _rd2RegCompleteHandler *
                   _rd2RegCompleteHandler@i2c1_master_example$F156 *
                   _rdBlkRegCompleteHandler *
                   _rdBlkRegCompleteHandler@i2c1_master_example$F179 *
                   _wr1RegCompleteHandler *
                   _wr1RegCompleteHandler@i2c1_master_example$F162 *
                   _wr2RegCompleteHandler *
                   _wr2RegCompleteHandler@i2c1_master_example$F168 *
                 _I2C1_DO_TX_ACK *
                   _I2C1_MasterSendAck
                 _I2C1_DO_TX_EMPTY *
                 _I2C1_MasterIsNack *
               _I2C1_MasterWaitForEvent
         _I2C1_Open
           _I2C1_MasterClearIrq
           _I2C1_MasterOpen
         _I2C1_SetAddressNackCallback
           _I2C1_SetCallback
         _I2C1_SetBuffer
         _I2C1_SetDataCompleteCallback
     _sendCMD
       _loadPCF
         _PCF_Wr
   _i2c_lcd_text
     _sendDATA
       _loadPCF

 Address spaces:
Name               Size   Autos  Total    Cost      Usage
BIGRAM            31FF      0       0     105        0.0%
BITBIGSFR_1        900      0       0     104        0.0%
EEDATA             400      0       0       0        0.0%
BITBIGSFRhhllll    161      0       0     116        0.0%
BITBIGSFRlllllh    156      0       0     122        0.0%
BITBANK54          100      0       0     102        0.0%
BANK54             100      0       0     103        0.0%
BITBANK53          100      0       0     100        0.0%
BANK53             100      0       0     101        0.0%
BITBANK52          100      0       0      98        0.0%
BANK52             100      0       0      99        0.0%
BITBANK51          100      0       0      96        0.0%
BANK51             100      0       0      97        0.0%
BITBANK50          100      0       0      94        0.0%
BANK50             100      0       0      95        0.0%
BITBANK49          100      0       0      92        0.0%
BANK49             100      0       0      93        0.0%
BITBANK48          100      0       0      90        0.0%
BANK48             100      0       0      91        0.0%
BITBANK47          100      0       0      88        0.0%
BANK47             100      0       0      89        0.0%
BITBANK46          100      0       0      86        0.0%
BANK46             100      0       0      87        0.0%
BITBANK45          100      0       0      84        0.0%
BANK45             100      0       0      85        0.0%
BITBANK44          100      0       0      82        0.0%
BANK44             100      0       0      83        0.0%
BITBANK43          100      0       0      80        0.0%
BANK43             100      0       0      81        0.0%
BITBANK42          100      0       0      78        0.0%
BANK42             100      0       0      79        0.0%
BITBANK41          100      0       0      76        0.0%
BANK41             100      0       0      77        0.0%
BITBANK40          100      0       0      74        0.0%
BANK40             100      0       0      75        0.0%
BITBANK39          100      0       0      72        0.0%
BANK39             100      0       0      73        0.0%
BITBANK38          100      0       0      70        0.0%
BANK38             100      0       0      71        0.0%
BITBANK37          100      0       0      68        0.0%
BANK37             100      0       0      69        0.0%
BITBANK36          100      0       0      66        0.0%
BANK36             100      0       0      67        0.0%
BITBANK35          100      0       0      64        0.0%
BANK35             100      0       0      65        0.0%
BITBANK34          100      0       0      62        0.0%
BANK34             100      0       0      63        0.0%
BITBANK33          100      0       0      60        0.0%
BANK33             100      0       0      61        0.0%
BITBANK32          100      0       0      58        0.0%
BANK32             100      0       0      59        0.0%
BITBANK31          100      0       0      56        0.0%
BANK31             100      0       0      57        0.0%
BITBANK30          100      0       0      54        0.0%
BANK30             100      0       0      55        0.0%
BITBANK29          100      0       0      52        0.0%
BANK29             100      0       0      53        0.0%
BITBANK28          100      0       0      50        0.0%
BANK28             100      0       0      51        0.0%
BITBANK27          100      0       0      48        0.0%
BANK27             100      0       0      49        0.0%
BITBANK26          100      0       0      46        0.0%
BANK26             100      0       0      47        0.0%
BITBANK25          100      0       0      44        0.0%
BANK25             100      0       0      45        0.0%
BITBANK24          100      0       0      42        0.0%
BANK24             100      0       0      43        0.0%
BITBANK23          100      0       0      40        0.0%
BANK23             100      0       0      41        0.0%
BITBANK22          100      0       0      38        0.0%
BANK22             100      0       0      39        0.0%
BITBANK21          100      0       0      36        0.0%
BANK21             100      0       0      37        0.0%
BITBANK20          100      0       0      34        0.0%
BANK20             100      0       0      35        0.0%
BITBANK19          100      0       0      32        0.0%
BANK19             100      0       0      33        0.0%
BITBANK18          100      0       0      30        0.0%
BANK18             100      0       0      31        0.0%
BITBANK17          100      0       0      28        0.0%
BANK17             100      0       0      29        0.0%
BITBANK16          100      0       0      26        0.0%
BANK16             100      0       0      27        0.0%
BITBANK15          100      0       0      24        0.0%
BANK15             100      0       0      25        0.0%
BITBANK14          100      0       0      22        0.0%
BANK14             100      0       0      23        0.0%
BITBANK13          100      0       0      20        0.0%
BANK13             100      0       0      21        0.0%
BITBANK12          100      0       0      18        0.0%
BANK12             100      0       0      19        0.0%
BITBANK11          100      0       0      16        0.0%
BANK11             100      0       0      17        0.0%
BITBANK10          100      0       0      14        0.0%
BANK10             100      0       0      15        0.0%
BITBANK9           100      0       0      12        0.0%
BANK9              100      0       0      13        0.0%
BITBANK8           100      0       0      10        0.0%
BANK8              100      0       0      11        0.0%
BITBANK7           100      0       0       8        0.0%
BANK7              100      0       0       9        0.0%
BITBANK6           100      0       0       6        0.0%
BANK6              100      0       0       7        0.0%
BITBANK5            A0      0       0       4        0.0%
BANK5               A0      0       0       5        0.0%
BITBIGSFRhhlhhh     78      0       0     110        0.0%
BITBIGSFRllllh      64      0       0     121        0.0%
BITBIGSFRllllll     60      0       0     126        0.0%
BITCOMRAM           5F      0       0       0        0.0%
COMRAM              5F     27      53       1       87.4%
BITBIGSFRllllll     44      0       0     125        0.0%
BITBIGSFRhhhhhh     34      0       0     106        0.0%
BITBIGSFRlllh       18      0       0     120        0.0%
BITBIGSFRhhhl        F      0       0     109        0.0%
BITBIGSFRhhhhll      8      0       0     108        0.0%
BITBIGSFRlh          6      0       0     119        0.0%
BITBIGSFRhhllll      3      0       0     115        0.0%
BITBIGSFRhhlhhl      3      0       0     111        0.0%
BITBIGSFRhhlllh      3      0       0     114        0.0%
BITBIGSFRhhllh       3      0       0     113        0.0%
BITBIGSFRhhlhl       3      0       0     112        0.0%
BITBIGSFRhhhhhl      2      0       0     107        0.0%
BITBIGSFRlllllh      1      0       0     123        0.0%
BITBIGSFRlllllh      1      0       0     124        0.0%
BITBIGSFRhlh         1      0       0     117        0.0%
BITBIGSFRhll         1      0       0     118        0.0%
BIGSFR_1             0      0       0     200        0.0%
BIGSFR               0      0       0     200        0.0%
BITSFR_14            0      0       0     200        0.0%
SFR_14               0      0       0     200        0.0%
BITSFR_13            0      0       0     200        0.0%
SFR_13               0      0       0     200        0.0%
BITSFR_12            0      0       0     200        0.0%
SFR_12               0      0       0     200        0.0%
BITSFR_11            0      0       0     200        0.0%
SFR_11               0      0       0     200        0.0%
BITSFR_10            0      0       0     200        0.0%
SFR_10               0      0       0     200        0.0%
BITSFR_9             0      0       0     200        0.0%
SFR_9                0      0       0     200        0.0%
BITSFR_8             0      0       0     200        0.0%
SFR_8                0      0       0     200        0.0%
BITSFR_7             0      0       0     200        0.0%
SFR_7                0      0       0     200        0.0%
BITSFR_6             0      0       0     200        0.0%
SFR_6                0      0       0     200        0.0%
BITSFR_5             0      0       0     200        0.0%
SFR_5                0      0       0     200        0.0%
BITSFR_4             0      0       0     200        0.0%
SFR_4                0      0       0     200        0.0%
BITSFR_3             0      0       0     200        0.0%
SFR_3                0      0       0     200        0.0%
BITSFR_2             0      0       0     200        0.0%
SFR_2                0      0       0     200        0.0%
BITSFR_1             0      0       0     200        0.0%
SFR_1                0      0       0     200        0.0%
BITSFR               0      0       0     200        0.0%
SFR                  0      0       0     200        0.0%
STACK                0      0       0       2        0.0%
NULL                 0      0       0       0        0.0%
ABS                  0      0      53     127        0.0%
DATA                 0      0      53       3        0.0%
CODE                 0      0       0       0        0.0%


Microchip Technology PIC18 Macro Assembler V2.40 build 20220703182018 
Symbol Table                                                                                   Sun Mar 12 18:58:52 2023

                                                      l17 4AEC  
                                                      l53 4A8C  
                                                      l38 4ABC  
                                                      l65 4A5C  
                                                      l77 495E  
                                                      u70 4DC0  
                                                      u71 4DBA  
                                                      u80 4D94  
                                                      u81 4D8E  
                                                      u90 4DAA  
                                                      u91 4DA4  
                                                      u76 4DC2  
                                                      u86 4D96  
                                                      u96 4DAC  
                                                     l146 463A  
                                                     l411 488A  
                                                     l403 4784  
                                                     l421 4DEA  
                                                     l501 471A  
                                                     l414 4E56  
                                                     l350 4200  
                                                     l191 49CC  
                                                     l520 4EDC  
                                                     l360 48D6  
                                                     l185 4A2C  
                                                     l346 4BCC  
                                                     l610 4E90  
                                                     l354 4C20  
                                                     l194 4B1C  
                                                     l418 4BF6  
                                                     l514 4E0A  
                                                     l523 4ED8  
                                                     l427 415E  
                                                     l188 49FC  
                                                     l444 43CC  
                                                     l452 45C4  
                                                     l508 46AE  
                                                     l373 4CB6  
                                                     l197 491A  
                                                     l445 4384  
                                                     l461 429E  
                                                     l621 4838  
                                                     l613 47E0  
                                                     l533 4BA0  
                                                     l542 4E88  
                                                     l470 4E40  
                                                     l614 47F2  
                                                     l366 4E68  
                                                     l382 4CD2  
                                                     l607 4D26  
                                                     l551 4E60  
                                                     l536 4E4C  
                                                     l376 4D0A  
                                                     l560 4E9C  
                                                     l480 4C48  
                                                     l616 4804  
                                                     l393 4450  
                                                     l545 4E96  
                                                     l473 4ED4  
                                                     l617 4818  
                                                     l554 4EB4  
                                                     l618 482A  
                                                     l539 4EAE  
                                                     l563 4D6A  
                                                     l483 4E78  
                                                     l811 4B74  
                                                     l716 433C  
                                                     l548 4E34  
                                                     l476 4ED0  
                                                     l492 4E70  
                                                     l581 4D96  
                                                     l557 4EBA  
                                                     l805 47DE  
                                                     l590 4EC0  
                                                     l566 4EA8  
                                                     l486 4E80  
                                                     l814 44CE  
                                                     l575 4D80  
                                                     l495 4E18  
                                                     l399 4CEE  
                                                     l584 4DC2  
                                                     l808 4B48  
                                                     l761 4D3E  
                                                     l593 4ECC  
                                                     l569 4EA2  
                                                     l489 4E26  
                                                     l578 4D54  
                                                     l826 499C  
                                                     l587 4DAC  
                                                     l764 4C70  
                                                     l596 4EC6  
                                                     l758 4DFC  
                                                     l798 4DD6  
                                                     u120 4D7E  
                                                     u121 4D78  
                                                     u130 484E  
                                                     u131 484A  
                                                     u140 486A  
                                                     u300 4826  
                                                     u141 4866  
                                                     u301 4822  
                                                     u150 4886  
                                                     u126 4D80  
                                                     u310 4838  
                                                     u151 4882  
                                                     u311 4834  
                                                     u400 4C0A  
                                                     u401 4C06  
                                                     u270 47EE  
                                                     u271 47EA  
                                                     u280 4800  
                                                     u360 4B86  
                                                     u281 47FC  
                                                     u361 4B82  
                                                     u290 4814  
                                                     u291 4810  
                                                     u810 4BE8  
                                                     u811 4BE4  
                                                     u820 4D68  
                                                     u900 4352  
                                                     u821 4D62  
                                                     u901 434E  
                                                     u830 4D52  
                                                     u910 436C  
                                                     u831 4D4C  
                                                     u911 4368  
                                                     u920 439C  
                                                     u808 4252  
                                                     u921 4398  
                                                     u809 4266  
                                                     u770 43E4  
                                                     u826 4D6A  
                                                     u850 4054  
                                                     u930 4C3A  
                                                     u771 43E0  
                                                     u851 4050  
                                                     u931 4C36  
                                                     u780 4CA4  
                                                     u836 4D54  
                                                     u781 4CA0  
                                                     u870 40E0  
                                                     u790 423A  
                                                     u871 40DC  
                                                     u791 4236  
                                                     u880 40F4  
                                                     u848 4580  
                                                     u960 4734  
                                                     u881 40F0  
                                                     u849 4594  
                                                     u961 4730  
                                                     u890 4134  
                                                     u970 4748  
                                                     u891 4130  
                                                     u971 4744  
                                                     u868 4080  
                                                     u948 46DE  
                                                     u869 4094  
                                                     u949 46F2  
                                                     u958 4672  
                                                     u990 4CEE  
                                                     u959 4686  
                                                     u991 4CEA  
                                                     u988 4768  
                                                     u989 4782  
                             ??_I2C1_MasterClearCountFlag 052C  
                                   ?_I2C1_MasterOperation 052C  
                                  ?_I2C1_MasterSetCounter 052C  
                                                     prod 0004F3  
                                         sendDATA@NibbleH 054A  
                                                     tosl 0004FD  
                                                     wreg 0004E8  
                                         sendDATA@NibbleL 054B  
                                  ?_I2C1_MasterSendTxData 052C  
                                    _I2C1_DO_RX_NACK_STOP 4E1A  
                               ?_I2C1_MasterEnableRestart 052C  
                                fp__I2C1_DO_SEND_ADR_READ 0000  
                                 fp__I2C1_DO_SEND_RESTART 0000  
                                    I2C1_SetBuffer@buffer 052C  
                              ??_I2C1_MasterIsStopFlagSet 052C  
                                                    l2002 4D0C  
                                                    l2004 4E42  
                                                    l2100 4C16  
                                 ??_rd2RegCompleteHandler 0539  
                                                    l2006 4E46  
                                                    l2102 4C1A  
                                                    l2008 4E4A  
                                                    l2104 4C1E  
                                                    l3000 417C  
                                                    l2202 4DEC  
                                                    l3010 419A  
                                                    l3002 4180  
                                                    l3020 41CA  
                                                    l3012 41A2  
                                                    l3004 4184  
                                                    l3100 4468  
                                                    l3030 41F6  
                                                    l3022 41D6  
                                                    l3014 41AE  
                                                    l3006 418C  
                                                    l3110 44AA  
                                                    l3102 447E  
                                                    l2160 42CA  
                                                    l2152 42A0  
                                                    l3040 4E62  
                                                    l3032 41FA  
                                                    l3024 41DE  
                                                    l3016 41B6  
                                                    l3008 418E  
                                                    l3112 44B0  
                                                    l3104 4484  
                                                    l3120 4964  
                                                    l2170 4312  
                                                    l2162 42CE  
                                                    l2154 42C0  
                                                    l2090 4BF8  
                                                    l3026 41EA  
                                                    l3018 41C2  
                                                    l3034 41FE  
                                                    l3050 45F6  
                                                    l3114 44B8  
                                                    l3106 449E  
                                                    l3122 4978  
                                                    l2148 4BA2  
                                                    l2180 4320  
                                                    l2172 4314  
                                                    l2164 42D8  
                                                    l2156 42C6  
                                                    l2092 4BFC  
                                                    l3028 41F2  
                                                    l3052 460A  
                                                    l3044 45C8  
                                                    l3060 4788  
                                                    l3116 44BE  
                                                    l3108 44A6  
                                                    l3124 497C  
                                                    l2182 4322  
                                                    l2174 431A  
                                                    l2166 430E  
                                                    l2158 42C8  
                                                    l2094 4C0A  
                                                    l3038 4CB8  
                                                    l3054 4622  
                                                    l3046 45C8  
                                                    l3070 47C2  
                                                    l3062 478C  
                                                    l3118 4960  
                                                    l2184 4328  
                                                    l2176 431C  
                                                    l2168 4310  
                                                    l2096 4C0E  
                                                    l2600 4CAC  
                                                    l3056 4626  
                                                    l3048 45DE  
                                                    l3072 47C8  
                                                    l3064 4792  
                                                    l3320 44D4  
                                                    l2178 431E  
                                                    l2186 4C4A  
                                                    l2098 4C12  
                                                    l2602 4CB4  
                                                    l2610 4AEA  
                                                    l3058 4DC6  
                                                    l3074 47CA  
                                                    l3090 4B4C  
                                                    l3330 452E  
                                                    l3322 44D8  
                                                    l2188 4D28  
                                                    l2604 4CF0  
                                                    l1740 4D6C  
                                                    l1900 4E1A  
                                                    l3076 47D2  
                                                    l3068 4798  
                                                    l3092 4B60  
                                                    l3084 4B20  
                                                    l3324 44E0  
                                                    l2606 4ABE  
                                                    l2614 4A8E  
                                                    l2622 4A5E  
                                                    l2630 4A2E  
                                                    l2710 4212  
                                                    l2702 4202  
                                                    l1902 4E22  
                                                    l3078 47D8  
                                                    l3094 4B6A  
                                                    l3086 4B34  
                                                    l3326 44F0  
                                                    l3318 44D0  
                                                    l1672 4DAE  
                                                    l2608 4AD2  
                                                    l2616 4AA2  
                                                    l2624 4A72  
                                                    l2632 4A42  
                                                    l2640 4944  
                                                    l1664 4E58  
                                                    l1744 4EAA  
                                                    l1760 4E9E  
                                                    l1752 4E98  
                                                    l2800 4DE0  
                                                    l2712 4216  
                                                    l2704 4208  
                                                    l3096 4452  
                                                    l3088 4B3E  
                                                    l3328 4516  
                                                    l1666 4E8A  
                                                    l1682 4EBC  
                                                    l2618 4ABA  
                                                    l2626 4A8A  
                                                    l2634 4A5A  
                                                    l2642 495C  
                                                    l2650 4A2A  
                                                    l1754 4E92  
                                                    l1690 4E4E  
                                                    l2802 4DE8  
                                                    l2810 4058  
                                                    l2722 4228  
                                                    l2706 420C  
                                                    l1906 4E6A  
                                                    l1762 4E0C  
                                                    l3098 4458  
                                                    l1676 4EC8  
                                                    l1684 4D98  
                                                    l1780 483A  
                                                    l1692 4E50  
                                                    l2740 4BCE  
                                                    l2724 423A  
                                                    l2716 421C  
                                                    l2732 4244  
                                                    l1748 4ECE  
                                                    l1908 4E6E  
                                                    l1764 4E10  
                                                    l3460 4704  
                                                    l1678 4D82  
                                                    l1790 4886  
                                                    l1782 484E  
                                                    l2590 43D0  
                                                    l2670 4AEE  
                                                    l2638 491C  
                                                    l2646 49FE  
                                                    l2654 49CE  
                                                    l2662 499E  
                                                    l1758 4EA4  
                                                    l1694 4E54  
                                                    l2742 4BD6  
                                                    l2830 40F4  
                                                    l2814 4060  
                                                    l2806 4040  
                                                    l3462 4278  
                                                    l2726 423E  
                                                    l2718 4222  
                                                    l1766 4E12  
                                                    l2910 46C6  
                                                    l2902 46B0  
                                                    l1688 4EC2  
                                                    l1784 4856  
                                                    l2592 43E4  
                                                    l2672 4B02  
                                                    l2648 4A12  
                                                    l2656 49E2  
                                                    l2664 49B2  
                                                    l2680 4900  
                                                    l2752 4D56  
                                                    l2744 4BE8  
                                                    l2840 4144  
                                                    l2832 410C  
                                                    l2824 406E  
                                                    l3464 45A6  
                                                    l1768 4E16  
                                                    l2904 46B8  
                                                    l1960 4E04  
                                                    l3456 47AC  
                                                    l1786 486A  
                                                    l2594 441C  
                                                    l2674 4B1A  
                                                    l2658 49FA  
                                                    l2666 49CA  
                                                    l2682 4918  
                                                    l2690 4EB0  
                                                    l2738 4E84  
                                                    l2746 4BEC  
                                                    l2842 414C  
                                                    l2834 4118  
                                                    l3466 40A6  
                                                    l2818 4068  
                                                    l2826 40CC  
                                                    l2770 454C  
                                                    l2762 4ED2  
                                                    l1890 4E76  
                                                    l2906 46BE  
                                                    l3458 4698  
                                                    l2930 4650  
                                                    l2922 463C  
                                                    l1962 4E08  
                                                    l1788 4872  
                                                    l2596 4C96  
                                                    l2692 4EB6  
                                                    l2748 4BF4  
                                                    l2844 4150  
                                                    l2836 411C  
                                                    l2828 40E0  
                                                    l2852 415C  
                                                    l2860 433E  
                                                    l2780 4562  
                                                    l2772 4552  
                                                    l2756 4E36  
                                                    l2916 46CC  
                                                    l2940 4660  
                                                    l2924 4640  
                                                    l1956 4DFE  
                                                    l2598 4CA4  
                                                    l2678 48D8  
                                                    l2694 4EDA  
                                                    l2686 4E2A  
                                                    l2766 4D40  
                                                    l1894 4E7A  
                                                    l2846 4156  
                                                    l2838 4134  
                                                    l2870 439C  
                                                    l2862 4352  
                                                    l2774 4556  
                                                    l2758 4E3C  
                                                    l2934 4658  
                                                    l2926 4648  
                                                    l1958 4E02  
                                                    l2950 4734  
                                                    l2688 4E2E  
                                                    l1896 4E7E  
                                                    l2872 43AA  
                                                    l2880 43B2  
                                                    l2784 4568  
                                                    l2792 4572  
                                                    l1888 4E72  
                                                    l2952 4748  
                                                    l2960 4CDC  
                                                    l2698 4ED6  
                                                    l2882 43B8  
                                                    l2866 4358  
                                                    l2786 456C  
                                                    l2778 455C  
                                                    l2890 4C22  
                                                    l2954 474C  
                                                    l2946 471C  
                                                    l2962 4CE0  
                                                    l2970 48A2  
                                                    l1994 4B76  
                                                    l2884 43C6  
                                                    l2868 436C  
                                                    l2892 4C26  
                                                    l2948 4720  
                                                    l2956 4CD4  
                                                    l2980 48C8  
                                                    l2972 48A6  
                                                    l2964 488E  
                                                    l1996 4B86  
                                                    l2798 4DD8  
                                                    l2886 43CA  
                                                    l2894 4C3A  
                                                    l2958 4CD8  
                                                    l2982 48CC  
                                                    l2974 48AC  
                                                    l2966 4892  
                                                    l1998 4B9E  
                                                    l2990 4162  
                                                    l2896 4C40  
                                                    l2984 48D0  
                                                    l2976 48BC  
                                                    l2968 48A0  
                                                    l2992 4166  
                                                    l2898 4C46  
                                                    l2978 48C0  
                                                    l2986 48D4  
                                                    l2994 4174  
                                                    l2996 4178  
                                                    l2998 417A  
                                                    STR_1 403A  
                                           ?_i2c_lcd_init 052C  
                                                    u1000 48A0  
                                                    u1001 489C  
                                                    u1010 48BC  
                                                    u1011 48B8  
                                                    u1020 4174  
                                                    u1021 4170  
                                                    u1030 45DE  
                                                    u1031 45DA  
                                                    u1040 463A  
                                                    u1041 4636  
                                                    u1050 499C  
                                                    u1051 4998  
                                                    u1340 4500  
                                                    u1341 44FA  
                                                    _LATA 0004BE  
                                                    u1350 4544  
                                                    _LATB 0004BF  
                                                    u1407 44A0  
                                                    u1351 4540  
                                                    _LATC 0004C0  
                                                    _LATD 0004C1  
                                                    u1417 44B2  
                                                    _LATE 0004C2  
                                                    u1346 4502  
                                                    _LATF 0004C3  
                                                    u1427 44C4  
                                                    u1437 47DA  
                                                    u1367 4520  
                                                    u1377 445E  
                                                    u1387 4474  
                                                    u1397 4486  
                                                    _PMD0 000060  
                                                    _PMD1 000061  
                                                    _PMD2 000062  
                                                    _PMD3 000063  
                                                    _PMD4 000064  
                                                    _PMD5 000065  
                                                    _PMD6 000066  
                                                    _PMD7 000067  
                                                    _PMD8 000068  
                                           ?_i2c_lcd_text 054D  
                                                    _WPUA 000401  
                                                    _WPUB 000409  
                                                    _WPUC 000411  
                                                    _WPUD 000419  
                                                    _WPUE 000421  
                                                    _WPUF 000429  
                                 ??_wr2RegCompleteHandler 0539  
                                        ??_I2C1_MasterFsm 053F  
                               ??_I2C1_CallbackReturnStop 0539  
                                                    _main 44D0  
                                                    fsr2h 0004DA  
                                                    indf2 0004DF  
                                                    fsr2l 0004D9  
                                          sendCMD@NibbleH 054A  
                                          sendCMD@NibbleL 054B  
                                                    prodh 0004F4  
                                                    prodl 0004F3  
                                                    start FFFC  
                                        ??_I2C1_SetBuffer 0530  
                                            ___param_bank 000000  
                           I2C1_CallbackReturnStop@funPtr 0537  
                           __end_of_OSCILLATOR_Initialize 4D40  
                                       __end_of_I2C1_Open 4202  
                                                   ?_main 052C  
                              __end_of_i2c1_fsmStateTable 403A  
                                                   _OSCEN 0000B3  
                                                   _TRISA 0004C6  
                                                   _TRISB 0004C7  
                                                   _TRISC 0004C8  
                                                   _TRISD 0004C9  
                                                   _TRISE 0004CA  
                                                   _TRISF 0004CB  
                                  ??_I2C1_MasterGetRxData 052C  
                                   ?_I2C1_DO_RX_NACK_STOP 052C  
                              ??_I2C1_CallbackReturnReset 0539  
                                       ??_I2C1_MasterOpen 052C  
                                       ??_I2C1_MasterStop 052C  
                                       ??_I2C1_Initialize 052C  
                               ?_I2C1_MasterIsNackFlagSet 052C  
                                             loadPCF@dato 0548  
                                             loadPCF@mode 0545  
                                         __end_of_loadPCF 47E0  
                                          ??_i2c_lcd_init 054D  
                                         __end_of_sendCMD 4B76  
                                          ??_i2c_lcd_text 054F  
                                                   main@a 0551  
                        __end_of_I2C1_MasterClearNackFlag 4EC8  
       rd1RegCompleteHandler@i2c1_master_example$F145@ptr 0537  
       wr1RegCompleteHandler@i2c1_master_example$F162@ptr 0537  
                                                   pclath 0004FA  
       rd2RegCompleteHandler@i2c1_master_example$F156@ptr 0537  
                                                   tablat 0004F5  
       wr2RegCompleteHandler@i2c1_master_example$F168@ptr 0537  
     rdBlkRegCompleteHandler@i2c1_master_example$F179@ptr 0537  
                                                   status 0004D8  
                                            ??_I2C1_DO_RX 053B  
                                            ??_I2C1_DO_TX 0539  
                               _I2C1_MasterClearCountFlag 4EC8  
                                  ??_I2C1_DO_ADDRESS_NACK 0539  
                                            ??_I2C1_Close 052C  
                                fp__rd1RegCompleteHandler 0000  
                                         __initialization 4C72  
                                            __end_of_main 454C  
                                fp__wr1RegCompleteHandler 0000  
                              ?_I2C1_MasterDisableRestart 052C  
                            I2C1_MasterSetCounter@counter 052C  
                        __end_of_I2C1_MasterClearStopFlag 4EC2  
                            fp__I2C1_DO_SEND_RESTART_READ 0000  
                                  ??_I2C1_MasterOperation 053F  
                                                  ??_main 054F  
                                           __activetblptr 000003  
                                      __end_of_I2C1_DO_RX 43CE  
                                      __end_of_I2C1_DO_TX 4160  
                                      __end_of_I2C1_Close 4C22  
                                                  _ANSELA 000400  
                                                  _ANSELB 000408  
                                                  _ANSELC 000410  
                                                  _ANSELD 000418  
                                                  _ANSELE 000420  
                                                  _ANSELF 000428  
                                                  _RB1PPS 00020A  
                                                  _RB2PPS 00020B  
                                                  _ODCONA 000402  
                                                  _ODCONB 00040A  
                                                  _ODCONC 000412  
                                                  _ODCOND 00041A  
                                                  _ODCONE 000422  
                                                  _ODCONF 00042A  
                                                  _INLVLA 000404  
                                                  _INLVLB 00040C  
                                                  _INLVLC 000414  
                                                  _INLVLD 00041C  
                                                  _INLVLE 000424  
                                                  _INLVLF 00042C  
                                 ??_I2C1_MasterGetCounter 052C  
                                                  _PCF_Wr 4DC4  
                                                  _OSCFRQ 0000B1  
                                       ?_I2C1_MasterClose 052C  
                                rdBlkRegCompleteHandler@p 0537  
                                        _I2C1_DO_RX_EMPTY 4202  
                                 ??_I2C1_MasterDisableIrq 052C  
                                       ?_I2C1_MasterWrite 052C  
                                ?_I2C1_MasterWaitForEvent 052C  
                                      ??_I2C1_MasterClose 052C  
                                        _I2C1_DO_TX_EMPTY 454C  
                                      ??_I2C1_MasterWrite 0541  
                                ?_I2C1_Write1ByteRegister 0541  
                       __end_of_I2C1_MasterDisableRestart 4EBC  
                                                  clear_0 4C8A  
                                        __end_of_sendDATA 4B4A  
                                                  isa$std 000001  
                                ??_I2C1_DO_SEND_ADR_WRITE 052C  
                                       ?_I2C1_SetCallback 052C  
                                               ??_loadPCF 0546  
                                  ??_I2C1_DO_RX_NACK_STOP 052C  
                                 ??_I2C1_DO_BUS_COLLISION 0539  
                                   _I2C1_DO_SEND_ADR_READ 4BCE  
                                          _PMD_Initialize 4C4A  
                                            __pdataCOMRAM 0553  
                                               ??_sendCMD 0549  
                           ?_I2C1_SetDataCompleteCallback 0532  
                                      ??_I2C1_SetCallback 0531  
                                            __mediumconst 0000  
                                                  tblptrh 0004F7  
                                                  tblptrl 0004F6  
                                                  tblptru 0004F8  
                                 _I2C1_DO_RX_NACK_RESTART 4E6A  
                              fp__I2C1_DO_RX_NACK_RESTART 0000  
                                       _SYSTEM_Initialize 4DEC  
                          I2C1_SetDataCompleteCallback@cb 0532  
                                              __accesstop 0560  
                                 __end_of__initialization 4C90  
                         I2C1_MasterOperation@returnValue 0540  
                                      ?_SYSTEM_Initialize 052C  
                                           ___rparam_used 000001  
                                _I2C1_MasterClearNackFlag 4EC2  
                                           ??_I2C1_Poller 053F  
                                 _rdBlkRegCompleteHandler 491C  
                              fp__rdBlkRegCompleteHandler 0000  
                                          __pcstackCOMRAM 052C  
                                     ??_SYSTEM_Initialize 052C  
                        __end_of_I2C1_MasterEnableRestart 4EB6  
                                    __end_of_i2c_lcd_init 44D0  
                                    __end_of_i2c_lcd_text 499E  
                                 ??_I2C1_MasterSetCounter 052C  
                                  __end_of_PMD_Initialize 4C72  
                            ??_I2C1_DO_SEND_RESTART_WRITE 052C  
                                 ??_I2C1_MasterSendTxData 052C  
                              ?_I2C1_MasterIsCountFlagSet 052C  
                                _I2C1_MasterClearStopFlag 4EBC  
                                   __end_of_I2C1_DO_RESET 4E1A  
                                       _I2C1_DO_BUS_ERROR 4DFE  
                               __end_of_SYSTEM_Initialize 4DFE  
                                         i2c_lcd_text@str 054D  
                               ?_I2C1_ClearInterruptFlags 052C  
                                      ?_I2C1_DO_BUS_ERROR 052C  
                         __end_of_I2C1_MasterWaitForEvent 483A  
                                                 ?_PCF_Wr 052C  
                           __end_of_rd2RegCompleteHandler 4A8E  
                                    I2C1_Open@returnValue 052D  
                           __end_of_wr2RegCompleteHandler 4A5E  
                         __end_of_I2C1_Write1ByteRegister 463C  
                                   _rd1RegCompleteHandler 4A8E  
                                     ??_I2C1_DO_BUS_ERROR 052C  
                                       _I2C1_DO_SEND_STOP 4C22  
                                   _wr1RegCompleteHandler 4ABE  
                                           fp__I2C1_DO_RX 0000  
                                           fp__I2C1_DO_TX 0000  
                                         fp__I2C1_DO_IDLE 0000  
                                 fp__I2C1_DO_ADDRESS_NACK 0000  
                                      ?_I2C1_DO_SEND_STOP 052C  
                                                 _I2C1CLK 00029E  
                                                 _I2C1ERR 000297  
                                                 _I2C1PIE 00029B  
                                                 _I2C1PIR 00029A  
                                                 _I2C1RXB 00028A  
                                                 _I2C1TXB 00028B  
                        __end_of_I2C1_MasterIsNackFlagSet 4DAE  
                                         _I2C1_MasterOpen 4B76  
                                 _I2C1_MasterIsTxBufEmpty 4D40  
                                         _I2C1_MasterStop 4E98  
                                         _I2C1_Initialize 4BA2  
                                     __end_of_I2C1_Poller 4CF0  
                                       fp__I2C1_DO_RX_ACK 0000  
                                       fp__I2C1_DO_TX_ACK 0000  
                                         ?_PMD_Initialize 052C  
                                  ?_I2C1_DO_SEND_ADR_READ 052C  
                                     ??_I2C1_DO_SEND_STOP 052D  
                               __end_of_I2C1_DO_BUS_ERROR 4E0C  
                                       _I2C1_MasterIsNack 4D56  
                       __end_of_I2C1_MasterIsCountFlagSet 4DC4  
                                                 _OSCCON1 0000AD  
                                                 _OSCCON3 0000AF  
                                               _I2C1_Open 4160  
                               ??_I2C1_DO_RX_NACK_RESTART 052C  
                                                 _OSCTUNE 0000B0  
                                                 _SLRCONA 000403  
                                                 _SLRCONB 00040B  
                                                 _SLRCONC 000413  
                                                 _SLRCOND 00041B  
                                                 _SLRCONE 000423  
                                                 _SLRCONF 00042B  
                                   I2C1_DO_RX@retFsmState 053D  
                                      ?_I2C1_MasterIsNack 052C  
                              ?_I2C1_DO_SEND_RESTART_READ 052C  
                          ??_I2C1_SetDataCompleteCallback 0537  
                                      _i2c1_fsmStateTable 4001  
                                     ??_I2C1_MasterIsNack 052C  
       fp__rd1RegCompleteHandler@i2c1_master_example$F145 0000  
  __end_of_rd1RegCompleteHandler@i2c1_master_example$F145 4A2E  
          _rd1RegCompleteHandler@i2c1_master_example$F145 49FE  
       fp__wr1RegCompleteHandler@i2c1_master_example$F162 0000  
  __end_of_wr1RegCompleteHandler@i2c1_master_example$F162 49CE  
          _wr1RegCompleteHandler@i2c1_master_example$F162 499E  
       fp__rd2RegCompleteHandler@i2c1_master_example$F156 0000  
  __end_of_rd2RegCompleteHandler@i2c1_master_example$F156 49FE  
          _rd2RegCompleteHandler@i2c1_master_example$F156 49CE  
       fp__wr2RegCompleteHandler@i2c1_master_example$F168 0000  
  __end_of_wr2RegCompleteHandler@i2c1_master_example$F168 4B1E  
          _wr2RegCompleteHandler@i2c1_master_example$F168 4AEE  
     fp__rdBlkRegCompleteHandler@i2c1_master_example$F179 0000  
__end_of_rdBlkRegCompleteHandler@i2c1_master_example$F179 491C  
        _rdBlkRegCompleteHandler@i2c1_master_example$F179 48D8  
                               __end_of_I2C1_DO_SEND_STOP 4C4A  
                               ??_rdBlkRegCompleteHandler 0539  
                                               ?_sendDATA 052C  
                                      I2C1_SetCallback@cb 052C  
                                                 __Hparam 0000  
                                                 __Lparam 0000  
                                     fp__I2C1_DO_RX_EMPTY 0000  
                                     fp__I2C1_DO_TX_EMPTY 0000  
                               ?_I2C1_MasterIsStopFlagSet 052C  
                             ??_I2C1_MasterDisableRestart 052C  
                                            __psmallconst 4000  
                                                 __pcinit 4C72  
                                           ?_I2C1_DO_IDLE 052C  
                                                 __ramtop 4000  
                                                 __ptext0 44D0  
                                                 __ptext1 4960  
                                                 __ptext2 4B1E  
                                                 __ptext3 4452  
                                                 __ptext4 4B4A  
                                                 __ptext5 4786  
                                                 __ptext6 4DC4  
                                                 __ptext7 45C6  
                                                 __ptext8 4CB8  
                                                 __ptext9 4160  
                                _I2C1_MasterEnableRestart 4EB0  
                               __end_of_I2C1_MasterIsNack 4D6C  
                            ?_I2C1_SetAddressNackCallback 0532  
                                                 _loadPCF 4786  
                                __end_of_I2C1_DO_RX_EMPTY 42A0  
                                   _OSCILLATOR_Initialize 4D28  
                                             _I2C1ERRbits 000297  
                                                 _sendCMD 4B4A  
                                __end_of_I2C1_DO_TX_EMPTY 45C6  
                                ??_I2C1_MasterIsRxBufFull 052C  
                                ??_PIN_MANAGER_Initialize 052C  
                                             _I2C1PIEbits 00029B  
                                              ?_I2C1_Open 052C  
                                             _I2C1PIRbits 00029A  
                                 fp__I2C1_DO_RX_NACK_STOP 0000  
                                ?_I2C1_CallbackReturnStop 0537  
                       __end_of_I2C1_DO_SEND_RESTART_READ 4E42  
                                    end_of_initialization 4C90  
                              __end_of_I2C1_MasterSendAck 4EAA  
                                     _I2C1_MasterClearIrq 4E8A  
                                  ?_rd1RegCompleteHandler 0537  
                                  _I2C1_DO_SEND_ADR_WRITE 4DD8  
                                              ??_sendDATA 0549  
                           __end_of_I2C1_MasterGetCounter 4E98  
                            __end_of_I2C1_DO_SEND_RESTART 4ED2  
                                 __end_of_I2C1_MasterOpen 4BA2  
                                  ?_wr1RegCompleteHandler 0537  
                                 __end_of_I2C1_MasterStop 4E9E  
                                 __end_of_I2C1_Initialize 4BCE  
                                             _I2C1_Poller 4CD4  
                               ?_I2C1_CallbackReturnReset 0537  
                           __end_of_I2C1_MasterDisableIrq 4D28  
                                             _I2C1_Status 0501  
                               ??_I2C1_MasterIsTxBufEmpty 052C  
                                fp__rd2RegCompleteHandler 0000  
                                                 postdec2 0004DD  
                                fp__wr2RegCompleteHandler 0000  
                                                 postinc0 0004EE  
                                                 postinc2 0004DE  
                                     _I2C1_MasterSendNack 4E9E  
                     __end_of_I2C1_SetAddressNackCallback 4CD4  
                             _I2C1_SetAddressNackCallback 4CB8  
                                    ?_I2C1_MasterClearIrq 052C  
                                          ??_I2C1_DO_IDLE 052C  
                                     _I2C1_MasterResetBus 4E58  
                      __end_of_I2C1_DO_SEND_RESTART_WRITE 4ED6  
                              _I2C1_DO_SEND_RESTART_WRITE 4ED2  
                         __end_of_rdBlkRegCompleteHandler 4960  
                                _I2C1_MasterIsNackFlagSet 4D98  
                           ??_I2C1_SetAddressNackCallback 0537  
                           __end_of_I2C1_DO_BUS_COLLISION 46B0  
                         I2C1_SetDataCompleteCallback@ptr 0535  
                             I2C1_Write1ByteRegister@data 0542  
                          I2C1_CallbackReturnReset@funPtr 0537  
                              ??_I2C1_MasterClearNackFlag 052C  
                                    ?_I2C1_MasterSendNack 052C  
                                            sendDATA@dato 054C  
                               _I2C1_MasterDisableRestart 4EB6  
                                    ?_I2C1_MasterResetBus 052C  
                                            _i2c_lcd_init 4452  
                                            _i2c_lcd_text 4960  
                                          __end_of_PCF_Wr 4DD8  
                                          _I2C1_DO_TX$883 053B  
                                   ??_I2C1_MasterClearIrq 052C  
                                        I2C1_DO_TX@dataTx 053D  
                              ??_I2C1_MasterClearStopFlag 052C  
                                          _I2C1_DO_RX_ACK 4E72  
                                          _I2C1_DO_TX_ACK 4E7A  
                                           __pidataCOMRAM 4EDE  
                        __end_of_I2C1_ClearInterruptFlags 488C  
                                  ?_OSCILLATOR_Initialize 052C  
                         __end_of_I2C1_CallbackReturnStop 4EDE  
                           __end_of_I2C1_MasterSetCounter 4E36  
                           __end_of_I2C1_MasterSendTxData 4E8A  
                             ??_I2C1_MasterIsCountFlagSet 052C  
                                     start_initialization 4C72  
                                             ??_I2C1_Open 052C  
                                   ??_I2C1_MasterSendNack 052C  
                                   ??_I2C1_MasterResetBus 052C  
                                                ??_PCF_Wr 0544  
                                  rd1RegCompleteHandler@p 0537  
                                I2C1_SetBuffer@bufferSize 052E  
                                        ?_I2C1_MasterOpen 052C  
                                        ?_I2C1_MasterStop 052C  
                          I2C1_Write1ByteRegister@address 0543  
                                        ?_I2C1_Initialize 052C  
                                        ??_PMD_Initialize 052C  
                                  __end_of_I2C1_DO_RX_ACK 4E7A  
                                  __end_of_I2C1_DO_TX_ACK 4E82  
                                  wr1RegCompleteHandler@p 0537  
                                 ??_I2C1_DO_SEND_ADR_READ 052C  
                                              PCF_Wr@dato 0544  
                                        I2C1_Open@address 052C  
                                             __pbssCOMRAM 0501  
                                    _I2C1_DO_SEND_RESTART 4ECE  
                                              sendCMD@cmd 054C  
                             ??_I2C1_DO_SEND_RESTART_READ 052D  
                                   I2C1_DO_TX@retFsmState 053E  
                        __end_of_I2C1_MasterIsStopFlagSet 4D98  
                                fp__I2C1_DO_BUS_COLLISION 0000  
                                    __end_of_I2C1_DO_IDLE 4E58  
                           I2C1_SetAddressNackCallback@cb 0532  
                               _I2C1_MasterIsCountFlagSet 4DAE  
                                   _rd2RegCompleteHandler 4A5E  
                               fp__I2C1_DO_SEND_ADR_WRITE 0000  
                                  _I2C1_MasterIsRxBufFull 4D6C  
                                  _PIN_MANAGER_Initialize 42A0  
                                   _wr2RegCompleteHandler 4A2E  
                              ??_I2C1_MasterEnableRestart 052C  
                                          _I2C1_MasterFsm 471C  
                                        fp__I2C1_DO_RESET 0000  
                                         ?_I2C1_DO_RX_ACK 052C  
                                         ?_I2C1_DO_TX_ACK 052C  
                                                _I2C1BAUD 00029D  
                                                _I2C1CON0 000294  
                                                _I2C1CON1 000295  
                                                _I2C1CON2 000296  
                                                _I2C1CNTH 00028D  
                                                _I2C1CNTL 00028C  
                                 _I2C1_MasterWaitForEvent 47E0  
                                        _I2C1_MasterClose 4E42  
                                          _I2C1_SetBuffer 4C96  
                                        _I2C1_MasterWrite 4E62  
                                                ?_loadPCF 0545  
                                             __smallconst 4000  
                                 _I2C1_Write1ByteRegister 45C6  
                                   ?_I2C1_DO_SEND_RESTART 052C  
                                       ?_I2C1_DO_RX_EMPTY 052C  
                                                ?_sendCMD 052C  
                                _I2C1_ClearInterruptFlags 483A  
                                       ?_I2C1_DO_TX_EMPTY 052C  
                                      ??_I2C1_DO_RX_EMPTY 0539  
                        __end_of_I2C1_CallbackReturnReset 4EDA  
                                      ??_I2C1_DO_TX_EMPTY 0539  
                                 ??_rd1RegCompleteHandler 0539  
                                               _paramsLCD 052B  
                                 ?_I2C1_DO_SEND_ADR_WRITE 052C  
                               I2C1_MasterSendTxData@data 052C  
                                              _I2C1SDAPPS 000270  
                                              _I2C1SCLPPS 000271  
                                 ??_wr1RegCompleteHandler 0539  
                                        _I2C1_SetCallback 43CE  
                                                _LATFbits 0004C3  
                                              _I2C1_DO_RX 433E  
                                              _I2C1_DO_TX 4040  
                                                _PIE7bits 0004A5  
                                              _I2C1_Close 4BF8  
                                            ?_I2C1_Poller 052C  
                                  __end_of_I2C1_MasterFsm 4786  
                                    fp__I2C1_DO_BUS_ERROR 0000  
                            __end_of_I2C1_MasterGetRxData 4EB0  
                                           _I2C1STAT1bits 000299  
                                                _PIR7bits 0004B5  
                              ??_I2C1_MasterIsNackFlagSet 052C  
                                      _I2C1_MasterSendAck 4EA4  
                               _I2C1_DO_SEND_RESTART_READ 4E36  
                                  __end_of_I2C1_SetBuffer 4CB8  
                    __end_of_I2C1_SetDataCompleteCallback 4D0C  
                            _I2C1_SetDataCompleteCallback 4CF0  
                             ?_I2C1_DO_SEND_RESTART_WRITE 052C  
                              I2C1_Write1ByteRegister@reg 0541  
                                     ?_I2C1_MasterSendAck 052C  
                                ?_I2C1_DO_RX_NACK_RESTART 052C  
                                    fp__I2C1_DO_SEND_STOP 0000  
                              ?_I2C1_MasterClearCountFlag 052C  
                                               _statusLED 0553  
                            __end_of_I2C1_DO_ADDRESS_NACK 471C  
                          __end_of_I2C1_DO_SEND_ADR_WRITE 4DEC  
                                           _I2C1_DO_RESET 4E0C  
                                   I2C1_Close@returnValue 052C  
                                ?_rdBlkRegCompleteHandler 0537  
                                     I2C1_SetCallback@idx 0531  
                                     I2C1_SetCallback@ptr 052F  
                                    ??_I2C1_MasterSendAck 052C  
                                  ?_rd2RegCompleteHandler 0537  
                            __end_of_I2C1_MasterOperation 48D8  
                                  ?_wr2RegCompleteHandler 0537  
                                _I2C1_MasterIsStopFlagSet 4D82  
                                                __Hrparam 0000  
                                         ?_I2C1_MasterFsm 052C  
                                   _I2C1_MasterGetCounter 4E92  
                                                __Lrparam 0000  
                               ??_I2C1_MasterWaitForEvent 052C  
                                   _I2C1_MasterDisableIrq 4D0C  
                                 ??_OSCILLATOR_Initialize 052C  
                                         ?_I2C1_SetBuffer 052C  
                               ??_I2C1_Write1ByteRegister 0543  
                                  ??_I2C1_DO_SEND_RESTART 052C  
                       __end_of_I2C1_MasterClearCountFlag 4ECE  
                                            _I2C1CON0bits 000294  
                                            _I2C1CON1bits 000295  
                                          ?_I2C1_DO_RESET 052C  
                                                __ptext10 4B76  
                                                __ptext11 4E62  
                                                __ptext20 4E6A  
                                                __ptext12 488C  
                                                __ptext21 4E1A  
                                                __ptext13 4CD4  
                                                __ptext30 4040  
                                                __ptext22 4E72  
                                                __ptext14 47E0  
                                                __ptext31 4DD8  
                                                __ptext23 4C22  
                                                __ptext15 471C  
                                                __ptext40 4EA4  
                                                __ptext32 4BCE  
                                                __ptext24 4ECE  
                                                __ptext16 4DFE  
                                                __ptext41 4D6C  
                                                __ptext33 4E4E  
                                                __ptext25 4ED2  
                                                __ptext17 463C  
                                                __ptext50 48D8  
                                                __ptext42 4EAA  
                                                __ptext34 4E7A  
                                                __ptext26 4E36  
                                                __ptext18 46B0  
                                                __ptext51 499E  
                                                __ptext43 4E82  
                                                __ptext35 4D40  
                                                __ptext27 4202  
                                                __ptext19 4E0C  
                                                __ptext60 4CF0  
                                                __ptext52 49CE  
                                                __ptext44 4E28  
                                                __ptext36 4D56  
                                                __ptext28 454C  
                                                __ptext61 43CE  
                                                __ptext53 49FE  
                                                __ptext45 4EB0  
                                                __ptext37 4E92  
                                                __ptext29 433E  
                                                __ptext70 4BF8  
                                                __ptext62 4C96  
                                                __ptext54 491C  
                                                __ptext46 4EB6  
                                                __ptext38 4E98  
                                                __ptext71 4D0C  
                                                __ptext63 483A  
                                                __ptext55 4A2E  
                                                __ptext47 4E58  
                                                __ptext39 4E9E  
                                                __ptext72 4E42  
                                                __ptext64 4D82  
                                                __ptext56 4A5E  
                                                __ptext48 4ED6  
                                                __ptext73 4E8A  
                                                __ptext65 4D98  
                                                __ptext57 4A8E  
                                                __ptext49 4EDA  
                                                __ptext74 4DEC  
                                                __ptext66 4DAE  
                                                __ptext58 4ABE  
                                                __ptext75 4C4A  
                                                __ptext67 4EBC  
                                                __ptext59 4AEE  
                                                __ptext76 42A0  
                                                __ptext68 4EC2  
                                                __ptext77 4D28  
                                                __ptext69 4EC8  
                                                __ptext78 4BA2  
                                                __ptext79 0000  
                                   _I2C1_DO_BUS_COLLISION 463C  
                                _I2C1_CallbackReturnReset 4ED6  
                             fp__I2C1_CallbackReturnReset 0000  
                                ?_I2C1_MasterIsTxBufEmpty 052C  
                                             ?_I2C1_DO_RX 052C  
                                             ?_I2C1_DO_TX 052C  
                                                _sendDATA 4B1E  
                             __end_of_I2C1_MasterClearIrq 4E92  
                            __end_of_I2C1_DO_RX_NACK_STOP 4E28  
                                             ?_I2C1_Close 052C  
                                                isa$xinst 000000  
                               ?_I2C1_MasterClearNackFlag 052C  
                         __end_of_I2C1_DO_RX_NACK_RESTART 4E72  
                                I2C1_MasterOperation@read 053F  
                           __end_of_I2C1_DO_SEND_ADR_READ 4BF8  
                                            _I2C1_DO_IDLE 4E4E  
                             __end_of_I2C1_MasterSendNack 4EA4  
                             __end_of_I2C1_MasterResetBus 4E62  
                           fp__I2C1_DO_SEND_RESTART_WRITE 0000  
                          I2C1_SetAddressNackCallback@ptr 0535  
                                   _I2C1_MasterSetCounter 4E28  
                                    _I2C1_MasterGetRxData 4EAA  
                                   _I2C1_MasterSendTxData 4E82  
                ?_wr1RegCompleteHandler@pic18f57q84$F1624 0537  
               ??_rd2RegCompleteHandler@pic18f57q84$F1641 0539  
                ?_rd1RegCompleteHandler@pic18f57q84$F1633 0537  
               ??_wr1RegCompleteHandler@pic18f57q84$F1626 0539  
               ??_rd1RegCompleteHandler@pic18f57q84$F1635 0539  
              ?_rdBlkRegCompleteHandler@pic18f57q84$F1651 0537  
             ??_rdBlkRegCompleteHandler@pic18f57q84$F1653 0539  
                ?_wr2RegCompleteHandler@pic18f57q84$F1645 0537  
               ??_wr2RegCompleteHandler@pic18f57q84$F1647 0539  
                ?_rd2RegCompleteHandler@pic18f57q84$F1639 0537  
                               ?_I2C1_MasterClearStopFlag 052C  
                                __end_of_I2C1_MasterClose 4E4E  
                                  rd2RegCompleteHandler@p 0537  
                                 ?_I2C1_MasterIsRxBufFull 052C  
                                 ?_PIN_MANAGER_Initialize 052C  
                                __end_of_I2C1_MasterWrite 4E6A  
                                        ??_I2C1_DO_RX_ACK 052C  
                                        ??_I2C1_DO_TX_ACK 052C  
                                  ?_I2C1_MasterGetCounter 052C  
                                 _I2C1_CallbackReturnStop 4EDA  
                              fp__I2C1_CallbackReturnStop 0000  
                                    _I2C1_DO_ADDRESS_NACK 46B0  
                                  ?_I2C1_MasterDisableIrq 052C  
                                  wr2RegCompleteHandler@p 0537  
                              ??_I2C1_ClearInterruptFlags 052C  
                                __end_of_I2C1_SetCallback 4452  
                                         ??_I2C1_DO_RESET 052C  
                                    _I2C1_MasterOperation 488C  
                                   ?_I2C1_MasterGetRxData 052C  
                                  ?_I2C1_DO_BUS_COLLISION 052C  
                         __end_of_I2C1_MasterIsTxBufEmpty 4D56  
                          __end_of_I2C1_MasterIsRxBufFull 4D82  
                          __end_of_PIN_MANAGER_Initialize 433E  
                           __end_of_rd1RegCompleteHandler 4ABE  
                           __end_of_wr1RegCompleteHandler 4AEE  
                                   ?_I2C1_DO_ADDRESS_NACK 052C  
